 csgo-cheat

 Timestamp is 5ce9eff4 (Sat May 25 21:46:28 2019)

 Preferred load address is 10000000

 Start         Length     Name                   Class
 0001:00000000 000007b0H .text$di                CODE
 0001:000007b0 000397e0H .text$mn                CODE
 0001:00039f90 00001750H .text$x                 CODE
 0001:0003b6e0 0000019fH .text$yd                CODE
 0002:00000000 000001a8H .idata$5                DATA
 0002:000001a8 00000004H .00cfg                  DATA
 0002:000001ac 00000004H .CRT$XCA                DATA
 0002:000001b0 000000e8H .CRT$XCU                DATA
 0002:00000298 00000004H .CRT$XCZ                DATA
 0002:0000029c 00000004H .CRT$XIA                DATA
 0002:000002a0 00000004H .CRT$XIC                DATA
 0002:000002a4 00000004H .CRT$XIZ                DATA
 0002:000002a8 00000004H .CRT$XLA                DATA
 0002:000002ac 00000004H .CRT$XLZ                DATA
 0002:000002b0 00000004H .CRT$XPA                DATA
 0002:000002b4 00000004H .CRT$XPZ                DATA
 0002:000002b8 00000004H .CRT$XTA                DATA
 0002:000002bc 00000004H .CRT$XTZ                DATA
 0002:000002c0 00000000H .gfids$y                DATA
 0002:000002c0 00002dc8H .rdata                  DATA
 0002:00003088 00000018H .rdata$T                DATA
 0002:000030a0 00000400H .rdata$r                DATA
 0002:000034a0 000001ecH .rdata$sxdata           DATA
 0002:0000368c 0000036cH .rdata$zzzdbg           DATA
 0002:000039f8 00000004H .rtc$IAA                DATA
 0002:000039fc 00000004H .rtc$IZZ                DATA
 0002:00003a00 00000004H .rtc$TAA                DATA
 0002:00003a04 00000004H .rtc$TZZ                DATA
 0002:00003a08 00000004H .tls                    DATA
 0002:00003a0c 00000004H .tls$                   DATA
 0002:00003a10 00000008H .tls$ZZZ                DATA
 0002:00003a18 0000200cH .xdata$x                DATA
 0002:00005a24 00000000H .edata                  DATA
 0002:00005a24 00000104H .idata$2                DATA
 0002:00005b28 00000014H .idata$3                DATA
 0002:00005b3c 000001a8H .idata$4                DATA
 0002:00005ce4 0000084cH .idata$6                DATA
 0003:00000000 00000064H .data                   DATA
 0003:00000064 000001c4H .data$r                 DATA
 0003:00000228 00196734H .bss                    DATA
 0004:00000000 00000060H .rsrc$01                DATA
 0004:00000060 00000180H .rsrc$02                DATA

  Address         Publics by Value              Rva+Base       Lib:Object

 0000:00000000       ___hybrid_auxiliary_iat    00000000     <absolute>
 0000:00000000       ___enclave_config          00000000     <absolute>
 0000:00000000       ___guard_iat_table         00000000     <absolute>
 0000:00000000       ___guard_longjmp_count     00000000     <absolute>
 0000:00000000       ___volatile_metadata       00000000     <absolute>
 0000:00000000       ___dynamic_value_reloc_table 00000000     <absolute>
 0000:00000000       ___guard_fids_table        00000000     <absolute>
 0000:00000000       ___guard_iat_count         00000000     <absolute>
 0000:00000000       ___hybrid_code_map_count   00000000     <absolute>
 0000:00000000       ___guard_longjmp_table     00000000     <absolute>
 0000:00000000       ___guard_fids_count        00000000     <absolute>
 0000:00000000       ___hybrid_code_map         00000000     <absolute>
 0000:0000002c       __tls_array                0000002c     <absolute>
 0000:0000007b       ___safe_se_handler_count   0000007b     <absolute>
 0000:00000100       ___guard_flags             00000100     <absolute>
 0000:00000000       ___ImageBase               10000000     <linker-defined>
 0001:000007b0       ??2@YAPAXIPAX@Z            100017b0 f i backtacking.obj
 0001:000007c0       _cosf                      100017c0 f i backtacking.obj
 0001:000007e0       _sinf                      100017e0 f i backtacking.obj
 0001:00000800       _sqrtf                     10001800 f i backtacking.obj
 0001:00000820       ?cos@@YAMM@Z               10001820 f i backtacking.obj
 0001:00000840       ?sin@@YAMM@Z               10001840 f i backtacking.obj
 0001:00000860       ?sqrt@@YAMM@Z              10001860 f i backtacking.obj
 0001:00000880       ?_Fnv1a_append_bytes@std@@YAIIQBEI@Z 10001880 f i backtacking.obj
 0001:000008c0       ?max@?$numeric_limits@H@std@@SAHXZ 100018c0 f i backtacking.obj
 0001:000008d0       ?compare@?$char_traits@D@std@@SAHQBD0I@Z 100018d0 f i backtacking.obj
 0001:00000900       ?length@?$char_traits@D@std@@SAIQBD@Z 10001900 f i backtacking.obj
 0001:00000940       ?copy@?$char_traits@D@std@@SAPADQADQBDI@Z 10001940 f i backtacking.obj
 0001:00000960       ?move@?$char_traits@D@std@@SAPADQADQBDI@Z 10001960 f i backtacking.obj
 0001:00000980       ?assign@?$char_traits@D@std@@SAXAADABD@Z 10001980 f i backtacking.obj
 0001:00000990       ?_Orphan_all@_Container_base12@std@@QAEXXZ 10001990 f i backtacking.obj
 0001:00000990       ??1_Iterator_base12@std@@QAE@XZ 10001990 f i Aimbot.obj
 0001:00000990       ??1_Bxty@?$_String_val@U?$_Simple_types@D@std@@@std@@QAE@XZ 10001990 f i backtacking.obj
 0001:00000990       ??1?$singleton@Vchams@@@@IAE@XZ 10001990 f i Hooks.obj
 0001:00000990       ??1_Ref_count_base@std@@UAE@XZ 10001990 f i NetvarManager.obj
 0001:00000990       ?_Orphan_all@_Container_base0@std@@QAEXXZ 10001990 f i backtacking.obj
 0001:000009a0       ?_Verify_offset@?$_Vector_const_iterator@V?$_Vector_val@U?$_Simple_types@VCMessage@@@std@@@std@@@std@@QBEXH@Z 100019a0 f i Event Logs.obj
 0001:000009a0       ?_Adopt@_Iterator_base0@std@@QAEXPBX@Z 100019a0 f i backtacking.obj
 0001:000009a0       ?_Verify_offset@?$_Vector_const_iterator@V?$_Vector_val@U?$_Simple_types@Vtrace_info@@@std@@@std@@@std@@QBEXH@Z 100019a0 f i Hooks.obj
 0001:000009a0       ?_Compat@?$_Deque_const_iterator@V?$_Deque_val@U?$_Deque_simple_types@UPlayerRecords@@@std@@@std@@@std@@QBEXABV12@@Z 100019a0 f i LagComp.obj
 0001:000009a0       ?_Verify_offset@?$_String_const_iterator@V?$_String_val@U?$_Simple_types@D@std@@@std@@@std@@QBEXH@Z 100019a0 f i ESP.obj
 0001:000009a0       ?_Verify_offset@?$_Deque_const_iterator@V?$_Deque_val@U?$_Deque_simple_types@UPlayerRecords@@@std@@@std@@@std@@QBEXH@Z 100019a0 f i LagComp.obj
 0001:000009a0       ?Resolve@Resolver@@QAEXW4ClientFrameStage_t@@@Z 100019a0 f i Resolver.obj
 0001:000009a0       ?_Compat@?$_String_const_iterator@V?$_String_val@U?$_Simple_types@D@std@@@std@@@std@@QBEXABV12@@Z 100019a0 f i Hooks.obj
 0001:000009a0       ?_Compat@?$_Vector_const_iterator@V?$_Vector_val@U?$_Simple_types@PAVDot@@@std@@@std@@@std@@QBEXABV12@@Z 100019a0 f i dots.obj
 0001:000009b0       ?_Getcont@_Iterator_base0@std@@QBEPBU_Container_base0@2@XZ 100019b0 f i backtacking.obj
 0001:000009b0       ?GetTraceType@C_TraceFilter@@UBE?AW4TraceType_t@@XZ 100019b0 f i Autowall.obj
 0001:000009c0       ??0?$_List_val@U?$_List_simple_types@U?$pair@$$CBV?$basic_string@DU?$char_traits@D@std@@V?$allocator@D@2@@std@@V?$shared_ptr@UNode@NetvarTree@@@2@@std@@@std@@@std@@QAE@XZ 100019c0 f i NetvarManager.obj
 0001:000009c0       ??0_Iterator_base12@std@@QAE@XZ 100019c0 f i Aimbot.obj
 0001:000009c0       ??0_Container_proxy@std@@QAE@XZ 100019c0 f i backtacking.obj
 0001:000009c0       ??0?$_Ptr_base@UNode@NetvarTree@@@std@@IAE@XZ 100019c0 f i backtacking.obj
 0001:000009f0       ??0_Container_base12@std@@QAE@XZ 100019f0 f i backtacking.obj
 0001:000009f0       ??0?$_List_unchecked_const_iterator@V?$_List_val@U?$_List_simple_types@U?$pair@$$CBV?$basic_string@DU?$char_traits@D@std@@V?$allocator@D@2@@std@@V?$shared_ptr@UNode@NetvarTree@@@2@@std@@@std@@@std@@U_Iterator_base0@2@@std@@QAE@XZ 100019f0 f i backtacking.obj
 0001:00000a10       ??$addressof@V?$_Deque_val@U?$_Deque_simple_types@UPlayerRecords@@@std@@@std@@@std@@YAPAV?$_Deque_val@U?$_Deque_simple_types@UPlayerRecords@@@std@@@0@AAV10@@Z 10001a10 f i Aimbot.obj
 0001:00000a10       ??$forward@_N@std@@YA$$QA_NAA_N@Z 10001a10 f i backtacking.obj
 0001:00000a10       ??$forward@M@std@@YA$$QAMAAM@Z 10001a10 f i NetvarManager.obj
 0001:00000a10       ??$_Get_unwrapped@V?$_List_unchecked_iterator@V?$_List_val@U?$_List_simple_types@U?$pair@$$CBV?$basic_string@DU?$char_traits@D@std@@V?$allocator@D@2@@std@@V?$shared_ptr@UNode@NetvarTree@@@2@@std@@@std@@@std@@@std@@@std@@YAPAV?$_List_unchecked_iterator@V?$_List_val@U?$_List_simple_types@U?$pair@$$CBV?$basic_string@DU?$char_traits@D@std@@V?$allocator@D@2@@std@@V?$shared_ptr@UNode@NetvarTree@@@2@@std@@@std@@@std@@@0@QAV10@@Z 10001a10 f i backtacking.obj
 0001:00000a10       ??$_Get_unwrapped@H@std@@YAPAHQAH@Z 10001a10 f i Aimbot.obj
 0001:00000a10       ??$forward@$$QAV?$basic_string@DU?$char_traits@D@std@@V?$allocator@D@2@@std@@@std@@YA$$QAV?$basic_string@DU?$char_traits@D@std@@V?$allocator@D@2@@0@AAV10@@Z 10001a10 f i backtacking.obj
 0001:00000a10       ??$addressof@V?$_Vector_val@U?$_Simple_types@VCMessage@@@std@@@std@@@std@@YAPAV?$_Vector_val@U?$_Simple_types@VCMessage@@@std@@@0@AAV10@@Z 10001a10 f i Event Logs.obj
 0001:00000a10       ??$forward@V?$allocator@D@std@@@std@@YA$$QAV?$allocator@D@0@AAV10@@Z 10001a10 f i backtacking.obj
 0001:00000a10       ??$forward@ABQAD@std@@YAABQADABQAD@Z 10001a10 f i backtacking.obj
 0001:00000a10       ??$forward@ABV?$_List_unchecked_iterator@V?$_List_val@U?$_List_simple_types@U?$pair@$$CBV?$basic_string@DU?$char_traits@D@std@@V?$allocator@D@2@@std@@V?$shared_ptr@UNode@NetvarTree@@@2@@std@@@std@@@std@@@std@@@std@@YAABV?$_List_unchecked_iterator@V?$_List_val@U?$_List_simple_types@U?$pair@$$CBV?$basic_string@DU?$char_traits@D@std@@V?$allocator@D@2@@std@@V?$shared_ptr@UNode@NetvarTree@@@2@@std@@@std@@@std@@@0@ABV10@@Z 10001a10 f i backtacking.obj
 0001:00000a10       ??$_Unfancy@V?$basic_string@DU?$char_traits@D@std@@V?$allocator@D@2@@std@@@std@@YAPAV?$basic_string@DU?$char_traits@D@std@@V?$allocator@D@2@@0@PAV10@@Z 10001a10 f i Menu.obj
 0001:00000a10       ??$_Get_unwrapped@D@std@@YAPADQAD@Z 10001a10 f i chams.obj
 0001:00000a10       ??$forward@AAPAVCModelRender@@@std@@YAAAPAVCModelRender@@AAPAV1@@Z 10001a10 f i Hooks.obj
 0001:00000a10       ??$forward@AAPAVIPanel@@@std@@YAAAPAVIPanel@@AAPAV1@@Z 10001a10 f i Hooks.obj
 0001:00000a10       ??$forward@AAPAVNetvarTree@@@std@@YAAAPAVNetvarTree@@AAPAV1@@Z 10001a10 f i Hooks.obj
 0001:00000a10       ??$addressof@V?$basic_string@DU?$char_traits@D@std@@V?$allocator@D@2@@std@@@std@@YAPAV?$basic_string@DU?$char_traits@D@std@@V?$allocator@D@2@@0@AAV10@@Z 10001a10 f i Event Logs.obj
 0001:00000a10       ??$forward@ABV?$allocator@PBD@std@@@std@@YAABV?$allocator@PBD@0@ABV10@@Z 10001a10 f i Hooks.obj
 0001:00000a10       ??$forward@Vtrace_info@@@std@@YA$$QAVtrace_info@@AAV1@@Z 10001a10 f i Hooks.obj
 0001:00000a10       ??$move@AAPAV?$ConfigValue@H@@@std@@YA$$QAPAV?$ConfigValue@H@@AAPAV1@@Z 10001a10 f i cfgsaving.obj
 0001:00000a10       ??$forward@PAV?$ConfigValue@H@@@std@@YA$$QAPAV?$ConfigValue@H@@AAPAV1@@Z 10001a10 f i cfgsaving.obj
 0001:00000a10       ??$_Unfancy@PAV?$ConfigValue@M@@@std@@YAPAPAV?$ConfigValue@M@@PAPAV1@@Z 10001a10 f i cfgsaving.obj
 0001:00000a10       ??$forward@AAPAVVMTHook@@@std@@YAAAPAVVMTHook@@AAPAV1@@Z 10001a10 f i Hooks.obj
 0001:00000a10       ??$forward@ABV?$allocator@V?$basic_string@DU?$char_traits@D@std@@V?$allocator@D@2@@std@@@std@@@std@@YAABV?$allocator@V?$basic_string@DU?$char_traits@D@std@@V?$allocator@D@2@@std@@@0@ABV10@@Z 10001a10 f i Menu.obj
 0001:00000a10       ??$move@AAPAVDot@@@std@@YA$$QAPAVDot@@AAPAV1@@Z 10001a10 f i dots.obj
 0001:00000a10       ??$_Get_size_of_n@$00@std@@YAII@Z 10001a10 f i backtacking.obj
 0001:00000a10       ??$forward@VCMessage@@@std@@YA$$QAVCMessage@@AAV1@@Z 10001a10 f i Event Logs.obj
 0001:00000a10       ??$forward@Ulc_record@@@std@@YA$$QAUlc_record@@AAU1@@Z 10001a10 f i backtacking.obj
 0001:00000a10       ??$move@AAH@std@@YA$$QAHAAH@Z 10001a10 f i Aimbot.obj
 0001:00000a10       ??$addressof@V?$_Vector_val@U?$_Simple_types@PAVDot@@@std@@@std@@@std@@YAPAV?$_Vector_val@U?$_Simple_types@PAVDot@@@std@@@0@AAV10@@Z 10001a10 f i dots.obj
 0001:00000a10       ??$forward@PAVDot@@@std@@YA$$QAPAVDot@@AAPAV1@@Z 10001a10 f i dots.obj
 0001:00000a10       ??$forward@AAPAU?$_List_node@U?$pair@$$CBV?$basic_string@DU?$char_traits@D@std@@V?$allocator@D@2@@std@@V?$shared_ptr@UNode@NetvarTree@@@2@@std@@PAX@std@@@std@@YAAAPAU?$_List_node@U?$pair@$$CBV?$basic_string@DU?$char_traits@D@std@@V?$allocator@D@2@@std@@V?$shared_ptr@UNode@NetvarTree@@@2@@std@@PAX@0@AAPAU10@@Z 10001a10 f i backtacking.obj
 0001:00000a10       ??$_Kfn@$$CBV?$basic_string@DU?$char_traits@D@std@@V?$allocator@D@2@@std@@V?$shared_ptr@UNode@NetvarTree@@@2@@?$_Umap_traits@V?$basic_string@DU?$char_traits@D@std@@V?$allocator@D@2@@std@@V?$shared_ptr@UNode@NetvarTree@@@2@V?$_Uhash_compare@V?$basic_string@DU?$char_traits@D@std@@V?$allocator@D@2@@std@@U?$hash@V?$basic_string@DU?$char_traits@D@std@@V?$allocator@D@2@@std@@@2@U?$equal_to@V?$basic_string@DU?$char_traits@D@std@@V?$allocator@D@2@@std@@@2@@2@V?$allocator@U?$pair@$$CBV?$basic_string@DU?$char_traits@D@std@@V?$allocator@D@2@@std@@V?$shared_ptr@UNode@NetvarTree@@@2@@std@@@2@$0A@@std@@SAABV?$basic_string@DU?$char_traits@D@std@@V?$allocator@D@2@@1@ABU?$pair@$$CBV?$basic_string@DU?$char_traits@D@std@@V?$allocator@D@2@@std@@V?$shared_ptr@UNode@NetvarTree@@@2@@1@@Z 10001a10 f i backtacking.obj
 0001:00000a10       ??$forward@AAPAVIClientMode@@@std@@YAAAPAVIClientMode@@AAPAV1@@Z 10001a10 f i Hooks.obj
 0001:00000a10       ??$addressof@V?$unique_ptr@VVMTHook@@U?$default_delete@VVMTHook@@@std@@@std@@@std@@YAPAV?$unique_ptr@VVMTHook@@U?$default_delete@VVMTHook@@@std@@@0@AAV10@@Z 10001a10 f i Hooks.obj
 0001:00000a10       ??$_Unfancy@PAV?$ConfigValue@H@@@std@@YAPAPAV?$ConfigValue@H@@PAPAV1@@Z 10001a10 f i cfgsaving.obj
 0001:00000a10       ??$_Const_cast@QAVDot@@@std@@YAPAPAVDot@@PBQAV1@@Z 10001a10 f i dots.obj
 0001:00000a10       ??$move@AAVtrace_info@@@std@@YA$$QAVtrace_info@@AAV1@@Z 10001a10 f i Hooks.obj
 0001:00000a10       ??$addressof@V?$_List_val@U?$_List_simple_types@U?$pair@$$CBV?$basic_string@DU?$char_traits@D@std@@V?$allocator@D@2@@std@@V?$shared_ptr@UNode@NetvarTree@@@2@@std@@@std@@@std@@@std@@YAPAV?$_List_val@U?$_List_simple_types@U?$pair@$$CBV?$basic_string@DU?$char_traits@D@std@@V?$allocator@D@2@@std@@V?$shared_ptr@UNode@NetvarTree@@@2@@std@@@std@@@0@AAV10@@Z 10001a10 f i backtacking.obj
 0001:00000a10       ??$_Unfancy@Vtrace_info@@@std@@YAPAVtrace_info@@PAV1@@Z 10001a10 f i Hooks.obj
 0001:00000a10       ??$move@AAV?$shared_ptr@UNode@NetvarTree@@@std@@@std@@YA$$QAV?$shared_ptr@UNode@NetvarTree@@@0@AAV10@@Z 10001a10 f i NetvarManager.obj
 0001:00000a10       ??$forward@AAPAVISurface@@@std@@YAAAPAVISurface@@AAPAV1@@Z 10001a10 f i Hooks.obj
 0001:00000a10       ??$_Get_unwrapped@V?$basic_string@DU?$char_traits@D@std@@V?$allocator@D@2@@std@@@std@@YAPAV?$basic_string@DU?$char_traits@D@std@@V?$allocator@D@2@@0@QAV10@@Z 10001a10 f i ESP.obj
 0001:00000a10       ??$_Get_unwrapped@PAUlc_record@@@std@@YAPAPAUlc_record@@QAPAU1@@Z 10001a10 f i backtacking.obj
 0001:00000a10       ??$_Get_unwrapped@PAV?$ConfigValue@H@@@std@@YAPAPAV?$ConfigValue@H@@QAPAV1@@Z 10001a10 f i cfgsaving.obj
 0001:00000a10       ??$move@AAV?$tuple@$$QAV?$basic_string@DU?$char_traits@D@std@@V?$allocator@D@2@@std@@@std@@@std@@YA$$QAV?$tuple@$$QAV?$basic_string@DU?$char_traits@D@std@@V?$allocator@D@2@@std@@@0@AAV10@@Z 10001a10 f i backtacking.obj
 0001:00000a10       ??$move@AAUlc_record@@@std@@YA$$QAUlc_record@@AAU1@@Z 10001a10 f i backtacking.obj
 0001:00000a10       ??$_Unfancy@V?$_List_unchecked_iterator@V?$_List_val@U?$_List_simple_types@U?$pair@$$CBV?$basic_string@DU?$char_traits@D@std@@V?$allocator@D@2@@std@@V?$shared_ptr@UNode@NetvarTree@@@2@@std@@@std@@@std@@@std@@@std@@YAPAV?$_List_unchecked_iterator@V?$_List_val@U?$_List_simple_types@U?$pair@$$CBV?$basic_string@DU?$char_traits@D@std@@V?$allocator@D@2@@std@@V?$shared_ptr@UNode@NetvarTree@@@2@@std@@@std@@@std@@@0@PAV10@@Z 10001a10 f i backtacking.obj
 0001:00000a10       ??$forward@ABV?$allocator@V?$_List_unchecked_iterator@V?$_List_val@U?$_List_simple_types@U?$pair@$$CBV?$basic_string@DU?$char_traits@D@std@@V?$allocator@D@2@@std@@V?$shared_ptr@UNode@NetvarTree@@@2@@std@@@std@@@std@@@std@@@std@@@std@@YAABV?$allocator@V?$_List_unchecked_iterator@V?$_List_val@U?$_List_simple_types@U?$pair@$$CBV?$basic_string@DU?$char_traits@D@std@@V?$allocator@D@2@@std@@V?$shared_ptr@UNode@NetvarTree@@@2@@std@@@std@@@std@@@std@@@0@ABV10@@Z 10001a10 f i NetvarManager.obj
 0001:00000a10       ??$_Get_unwrapped@QBD@std@@YAPBQBDQBQBD@Z 10001a10 f i Hooks.obj
 0001:00000a10       ?select_on_container_copy_construction@?$_Default_allocator_traits@V?$allocator@D@std@@@std@@SA?AV?$allocator@D@2@ABV32@@Z 10001a10 f i Event Logs.obj
 0001:00000a10       ??$move@AAV?$_List_unchecked_iterator@V?$_List_val@U?$_List_simple_types@U?$pair@$$CBV?$basic_string@DU?$char_traits@D@std@@V?$allocator@D@2@@std@@V?$shared_ptr@UNode@NetvarTree@@@2@@std@@@std@@@std@@@std@@@std@@YA$$QAV?$_List_unchecked_iterator@V?$_List_val@U?$_List_simple_types@U?$pair@$$CBV?$basic_string@DU?$char_traits@D@std@@V?$allocator@D@2@@std@@V?$shared_ptr@UNode@NetvarTree@@@2@@std@@@std@@@std@@@0@AAV10@@Z 10001a10 f i backtacking.obj
 0001:00000a10       ??$_Get_unwrapped_n@PAV?$ConfigValue@M@@H$0A@@std@@YAPAPAV?$ConfigValue@M@@QAPAV1@H@Z 10001a10 f i cfgsaving.obj
 0001:00000a10       ??$addressof@V?$unique_ptr@VNetvarTree@@U?$default_delete@VNetvarTree@@@std@@@std@@@std@@YAPAV?$unique_ptr@VNetvarTree@@U?$default_delete@VNetvarTree@@@std@@@0@AAV10@@Z 10001a10 f i Hooks.obj
 0001:00000a10       ??$_Get_unwrapped_n@Vtrace_info@@H$0A@@std@@YAPAVtrace_info@@QAV1@H@Z 10001a10 f i Hooks.obj
 0001:00000a10       ??$_Get_unwrapped@PAV?$ConfigValue@_N@@@std@@YAPAPAV?$ConfigValue@_N@@QAPAV1@@Z 10001a10 f i cfgsaving.obj
 0001:00000a10       ??$_Get_unwrapped_n@PAUlc_record@@H$0A@@std@@YAPAPAUlc_record@@QAPAU1@H@Z 10001a10 f i backtacking.obj
 0001:00000a10       ??$forward@PAV?$ConfigValue@M@@@std@@YA$$QAPAV?$ConfigValue@M@@AAPAV1@@Z 10001a10 f i cfgsaving.obj
 0001:00000a10       ??$_Get_unwrapped_n@HH$0A@@std@@YAPAHQAHH@Z 10001a10 f i Aimbot.obj
 0001:00000a10       ??$addressof@$$CBV?$_List_val@U?$_List_simple_types@U?$pair@$$CBV?$basic_string@DU?$char_traits@D@std@@V?$allocator@D@2@@std@@V?$shared_ptr@UNode@NetvarTree@@@2@@std@@@std@@@std@@@std@@YAPBV?$_List_val@U?$_List_simple_types@U?$pair@$$CBV?$basic_string@DU?$char_traits@D@std@@V?$allocator@D@2@@std@@V?$shared_ptr@UNode@NetvarTree@@@2@@std@@@std@@@0@ABV10@@Z 10001a10 f i backtacking.obj
 0001:00000a10       ??$_Get_unwrapped_n@PAVDot@@H$0A@@std@@YAPAPAVDot@@QAPAV1@H@Z 10001a10 f i dots.obj
 0001:00000a10       ??$move@AAV?$basic_string@DU?$char_traits@D@std@@V?$allocator@D@2@@std@@@std@@YA$$QAV?$basic_string@DU?$char_traits@D@std@@V?$allocator@D@2@@0@AAV10@@Z 10001a10 f i backtacking.obj
 0001:00000a10       ??$forward@PBD@std@@YA$$QAPBDAAPBD@Z 10001a10 f i NetvarManager.obj
 0001:00000a10       ??$move@AAU?$default_delete@$$BY0A@I@std@@@std@@YA$$QAU?$default_delete@$$BY0A@I@0@AAU10@@Z 10001a10 f i Hooks.obj
 0001:00000a10       ??$_Unfancy@VCMessage@@@std@@YAPAVCMessage@@PAV1@@Z 10001a10 f i Event Logs.obj
 0001:00000a10       ??$_Unfancy@D@std@@YAPADPAD@Z 10001a10 f i backtacking.obj
 0001:00000a10       ??$forward@ABV?$basic_string@DU?$char_traits@D@std@@V?$allocator@D@2@@std@@@std@@YAABV?$basic_string@DU?$char_traits@D@std@@V?$allocator@D@2@@0@ABV10@@Z 10001a10 f i Menu.obj
 0001:00000a10       ??$forward@V?$tuple@$$QAV?$basic_string@DU?$char_traits@D@std@@V?$allocator@D@2@@std@@@std@@@std@@YA$$QAV?$tuple@$$QAV?$basic_string@DU?$char_traits@D@std@@V?$allocator@D@2@@std@@@0@AAV10@@Z 10001a10 f i backtacking.obj
 0001:00000a10       ??$forward@AAPAVShadowVTManager@@@std@@YAAAPAVShadowVTManager@@AAPAV1@@Z 10001a10 f i Hooks.obj
 0001:00000a10       ??$_Unfancy@U_Container_proxy@std@@@std@@YAPAU_Container_proxy@0@PAU10@@Z 10001a10 f i backtacking.obj
 0001:00000a10       ??$forward@AAU?$pair@$$CBV?$basic_string@DU?$char_traits@D@std@@V?$allocator@D@2@@std@@V?$shared_ptr@UNode@NetvarTree@@@2@@std@@@std@@YAAAU?$pair@$$CBV?$basic_string@DU?$char_traits@D@std@@V?$allocator@D@2@@std@@V?$shared_ptr@UNode@NetvarTree@@@2@@0@AAU10@@Z 10001a10 f i backtacking.obj
 0001:00000a10       ??$_Get_unwrapped@Vtrace_info@@@std@@YAPAVtrace_info@@QAV1@@Z 10001a10 f i Hooks.obj
 0001:00000a10       ??$forward@V?$tuple@$$V@std@@@std@@YA$$QAV?$tuple@$$V@0@AAV10@@Z 10001a10 f i backtacking.obj
 0001:00000a10       ??$forward@U?$default_delete@VVMTHook@@@std@@@std@@YA$$QAU?$default_delete@VVMTHook@@@0@AAU10@@Z 10001a10 f i Hooks.obj
 0001:00000a10       ??$forward@ABUPlayerRecords@@@std@@YAABUPlayerRecords@@ABU1@@Z 10001a10 f i LagComp.obj
 0001:00000a10       ??$forward@U_Container_proxy@std@@@std@@YA$$QAU_Container_proxy@0@AAU10@@Z 10001a10 f i backtacking.obj
 0001:00000a10       ??$forward@AAPAVIVRenderView@@@std@@YAAAPAVIVRenderView@@AAPAV1@@Z 10001a10 f i Hooks.obj
 0001:00000a10       ??$forward@ABUpiecewise_construct_t@std@@@std@@YAABUpiecewise_construct_t@0@ABU10@@Z 10001a10 f i backtacking.obj
 0001:00000a10       ??$_Unfancy@Ulc_record@@@std@@YAPAUlc_record@@PAU1@@Z 10001a10 f i backtacking.obj
 0001:00000a10       ??$_Get_unwrapped_n@V?$_List_unchecked_iterator@V?$_List_val@U?$_List_simple_types@U?$pair@$$CBV?$basic_string@DU?$char_traits@D@std@@V?$allocator@D@2@@std@@V?$shared_ptr@UNode@NetvarTree@@@2@@std@@@std@@@std@@@std@@H$0A@@std@@YAPAV?$_List_unchecked_iterator@V?$_List_val@U?$_List_simple_types@U?$pair@$$CBV?$basic_string@DU?$char_traits@D@std@@V?$allocator@D@2@@std@@V?$shared_ptr@UNode@NetvarTree@@@2@@std@@@std@@@std@@@0@QAV10@H@Z 10001a10 f i backtacking.obj
 0001:00000a10       ??$_Get_unwrapped@VCMessage@@@std@@YAPAVCMessage@@QAV1@@Z 10001a10 f i Event Logs.obj
 0001:00000a10       ??$_Get_unwrapped@PAV?$ConfigValue@M@@@std@@YAPAPAV?$ConfigValue@M@@QAPAV1@@Z 10001a10 f i cfgsaving.obj
 0001:00000a10       ??$_Get_unwrapped_n@PAUPlayerRecords@@H$0A@@std@@YAPAPAUPlayerRecords@@QAPAU1@H@Z 10001a10 f i LagComp.obj
 0001:00000a10       ??$forward@ABV?$allocator@D@std@@@std@@YAABV?$allocator@D@0@ABV10@@Z 10001a10 f i chams.obj
 0001:00000a10       ??$forward@V?$_List_iterator@V?$_List_val@U?$_List_simple_types@U?$pair@$$CBV?$basic_string@DU?$char_traits@D@std@@V?$allocator@D@2@@std@@V?$shared_ptr@UNode@NetvarTree@@@2@@std@@@std@@@std@@@std@@@std@@YA$$QAV?$_List_iterator@V?$_List_val@U?$_List_simple_types@U?$pair@$$CBV?$basic_string@DU?$char_traits@D@std@@V?$allocator@D@2@@std@@V?$shared_ptr@UNode@NetvarTree@@@2@@std@@@std@@@std@@@0@AAV10@@Z 10001a10 f i backtacking.obj
 0001:00000a10       ??$forward@PAV?$ConfigValue@_N@@@std@@YA$$QAPAV?$ConfigValue@_N@@AAPAV1@@Z 10001a10 f i cfgsaving.obj
 0001:00000a10       ??$addressof@U?$pair@$$CBV?$basic_string@DU?$char_traits@D@std@@V?$allocator@D@2@@std@@V?$shared_ptr@UNode@NetvarTree@@@2@@std@@@std@@YAPAU?$pair@$$CBV?$basic_string@DU?$char_traits@D@std@@V?$allocator@D@2@@std@@V?$shared_ptr@UNode@NetvarTree@@@2@@0@AAU10@@Z 10001a10 f i backtacking.obj
 0001:00000a10       ??$_Get_unwrapped@$$CBV?$basic_string@DU?$char_traits@D@std@@V?$allocator@D@2@@std@@@std@@YAPBV?$basic_string@DU?$char_traits@D@std@@V?$allocator@D@2@@0@QBV10@@Z 10001a10 f i Menu.obj
 0001:00000a10       ??$_Get_unwrapped_n@PAV?$ConfigValue@_N@@H$0A@@std@@YAPAPAV?$ConfigValue@_N@@QAPAV1@H@Z 10001a10 f i cfgsaving.obj
 0001:00000a10       ??$forward@AAPAI@std@@YAAAPAIAAPAI@Z 10001a10 f i Hooks.obj
 0001:00000a10       ??$addressof@$$CBV?$_Deque_val@U?$_Deque_simple_types@UPlayerRecords@@@std@@@std@@@std@@YAPBV?$_Deque_val@U?$_Deque_simple_types@UPlayerRecords@@@std@@@0@ABV10@@Z 10001a10 f i LagComp.obj
 0001:00000a10       ??$addressof@PAU?$_List_node@U?$pair@$$CBV?$basic_string@DU?$char_traits@D@std@@V?$allocator@D@2@@std@@V?$shared_ptr@UNode@NetvarTree@@@2@@std@@PAX@std@@@std@@YAPAPAU?$_List_node@U?$pair@$$CBV?$basic_string@DU?$char_traits@D@std@@V?$allocator@D@2@@std@@V?$shared_ptr@UNode@NetvarTree@@@2@@std@@PAX@0@AAPAU10@@Z 10001a10 f i backtacking.obj
 0001:00000a10       ??$_Get_unwrapped_n@VCMessage@@H$0A@@std@@YAPAVCMessage@@QAV1@H@Z 10001a10 f i Event Logs.obj
 0001:00000a10       ??$_Unfancy@UPlayerRecords@@@std@@YAPAUPlayerRecords@@PAU1@@Z 10001a10 f i LagComp.obj
 0001:00000a10       ??$forward@AAV?$_List_iterator@V?$_List_val@U?$_List_simple_types@U?$pair@$$CBV?$basic_string@DU?$char_traits@D@std@@V?$allocator@D@2@@std@@V?$shared_ptr@UNode@NetvarTree@@@2@@std@@@std@@@std@@@std@@@std@@YAAAV?$_List_iterator@V?$_List_val@U?$_List_simple_types@U?$pair@$$CBV?$basic_string@DU?$char_traits@D@std@@V?$allocator@D@2@@std@@V?$shared_ptr@UNode@NetvarTree@@@2@@std@@@std@@@std@@@0@AAV10@@Z 10001a10 f i backtacking.obj
 0001:00000a10       ??$_Convert_size@I@std@@YAII@Z 10001a10 f i backtacking.obj
 0001:00000a10       ??$_Refancy@PAD$0A@@std@@YAPADPAD@Z 10001a10 f i Hooks.obj
 0001:00000a10       ??$addressof@$$CBV?$basic_string@DU?$char_traits@D@std@@V?$allocator@D@2@@std@@@std@@YAPBV?$basic_string@DU?$char_traits@D@std@@V?$allocator@D@2@@0@ABV10@@Z 10001a10 f i Event Logs.obj
 0001:00000a10       ??$_Get_unwrapped_n@V?$basic_string@DU?$char_traits@D@std@@V?$allocator@D@2@@std@@H$0A@@std@@YAPAV?$basic_string@DU?$char_traits@D@std@@V?$allocator@D@2@@0@QAV10@H@Z 10001a10 f i Menu.obj
 0001:00000a10       ??$_Get_unwrapped@PAVDot@@@std@@YAPAPAVDot@@QAPAV1@@Z 10001a10 f i dots.obj
 0001:00000a10       ??$forward@AAU?$hash@V?$basic_string@DU?$char_traits@D@std@@V?$allocator@D@2@@std@@@std@@@std@@YAAAU?$hash@V?$basic_string@DU?$char_traits@D@std@@V?$allocator@D@2@@std@@@0@AAU10@@Z 10001a10 f i NetvarManager.obj
 0001:00000a10       ??$forward@U_One_then_variadic_args_t@std@@@std@@YA$$QAU_One_then_variadic_args_t@0@AAU10@@Z 10001a10 f i NetvarManager.obj
 0001:00000a10       ??$_Unfancy@PAV?$ConfigValue@_N@@@std@@YAPAPAV?$ConfigValue@_N@@PAPAV1@@Z 10001a10 f i cfgsaving.obj
 0001:00000a10       ??$addressof@V?$unique_ptr@$$BY0A@IU?$default_delete@$$BY0A@I@std@@@std@@@std@@YAPAV?$unique_ptr@$$BY0A@IU?$default_delete@$$BY0A@I@std@@@0@AAV10@@Z 10001a10 f i Hooks.obj
 0001:00000a10       ??$_Const_cast@$$CBD@std@@YAPADPBD@Z 10001a10 f i ESP.obj
 0001:00000a10       ??$move@AAUPlayerRecords@@@std@@YA$$QAUPlayerRecords@@AAU1@@Z 10001a10 f i LagComp.obj
 0001:00000a10       ??$forward@U?$default_delete@VNetvarTree@@@std@@@std@@YA$$QAU?$default_delete@VNetvarTree@@@0@AAU10@@Z 10001a10 f i Hooks.obj
 0001:00000a10       ??$_Get_unwrapped@PAUPlayerRecords@@@std@@YAPAPAUPlayerRecords@@QAPAU1@@Z 10001a10 f i LagComp.obj
 0001:00000a10       ??$forward@AAPAVIBaseClientDLL@@@std@@YAAAPAVIBaseClientDLL@@AAPAV1@@Z 10001a10 f i Hooks.obj
 0001:00000a10       ??$_Get_unwrapped_n@PBDH$0A@@std@@YAPAPBDQAPBDH@Z 10001a10 f i Hooks.obj
 0001:00000a10       ??$move@AAV?$allocator@D@std@@@std@@YA$$QAV?$allocator@D@0@AAV10@@Z 10001a10 f i backtacking.obj
 0001:00000a10       ??$forward@H@std@@YA$$QAHAAH@Z 10001a10 f i Aimbot.obj
 0001:00000a10       ??$forward@ABV?$shared_ptr@UNode@NetvarTree@@@std@@@std@@YAABV?$shared_ptr@UNode@NetvarTree@@@0@ABV10@@Z 10001a10 f i NetvarManager.obj
 0001:00000a10       ??$addressof@PAUPlayerRecords@@@std@@YAPAPAUPlayerRecords@@AAPAU1@@Z 10001a10 f i LagComp.obj
 0001:00000a10       ??$move@AAPAV?$ConfigValue@M@@@std@@YA$$QAPAV?$ConfigValue@M@@AAPAV1@@Z 10001a10 f i cfgsaving.obj
 0001:00000a10       ??$addressof@PAUlc_record@@@std@@YAPAPAUlc_record@@AAPAU1@@Z 10001a10 f i backtacking.obj
 0001:00000a10       ??$forward@ABV?$allocator@U?$pair@$$CBV?$basic_string@DU?$char_traits@D@std@@V?$allocator@D@2@@std@@V?$shared_ptr@UNode@NetvarTree@@@2@@std@@@std@@@std@@YAABV?$allocator@U?$pair@$$CBV?$basic_string@DU?$char_traits@D@std@@V?$allocator@D@2@@std@@V?$shared_ptr@UNode@NetvarTree@@@2@@std@@@0@ABV10@@Z 10001a10 f i NetvarManager.obj
 0001:00000a10       ??$_Get_unwrapped_n@PAV?$ConfigValue@H@@H$0A@@std@@YAPAPAV?$ConfigValue@H@@QAPAV1@H@Z 10001a10 f i cfgsaving.obj
 0001:00000a10       ??$addressof@V?$_String_val@U?$_Simple_types@D@std@@@std@@@std@@YAPAV?$_String_val@U?$_Simple_types@D@std@@@0@AAV10@@Z 10001a10 f i backtacking.obj
 0001:00000a10       ??$move@AAPAV?$ConfigValue@_N@@@std@@YA$$QAPAV?$ConfigValue@_N@@AAPAV1@@Z 10001a10 f i cfgsaving.obj
 0001:00000a10       ??$forward@V?$_List_unchecked_iterator@V?$_List_val@U?$_List_simple_types@U?$pair@$$CBV?$basic_string@DU?$char_traits@D@std@@V?$allocator@D@2@@std@@V?$shared_ptr@UNode@NetvarTree@@@2@@std@@@std@@@std@@@std@@@std@@YA$$QAV?$_List_unchecked_iterator@V?$_List_val@U?$_List_simple_types@U?$pair@$$CBV?$basic_string@DU?$char_traits@D@std@@V?$allocator@D@2@@std@@V?$shared_ptr@UNode@NetvarTree@@@2@@std@@@std@@@std@@@0@AAV10@@Z 10001a10 f i backtacking.obj
 0001:00000a10       ??$move@AAVCMessage@@@std@@YA$$QAVCMessage@@AAV1@@Z 10001a10 f i Event Logs.obj
 0001:00000a10       ??$addressof@V?$_Vector_val@U?$_Simple_types@Vtrace_info@@@std@@@std@@@std@@YAPAV?$_Vector_val@U?$_Simple_types@Vtrace_info@@@std@@@0@AAV10@@Z 10001a10 f i Hooks.obj
 0001:00000a10       ??$_Unfancy@H@std@@YAPAHPAH@Z 10001a10 f i Aimbot.obj
 0001:00000a10       ??$forward@AAU?$equal_to@V?$basic_string@DU?$char_traits@D@std@@V?$allocator@D@2@@std@@@std@@@std@@YAAAU?$equal_to@V?$basic_string@DU?$char_traits@D@std@@V?$allocator@D@2@@std@@@0@AAU10@@Z 10001a10 f i NetvarManager.obj
 0001:00000a10       ??$addressof@PAD@std@@YAPAPADAAPAD@Z 10001a10 f i backtacking.obj
 0001:00000a10       ??$addressof@V?$_Deque_val@U?$_Deque_simple_types@Ulc_record@@@std@@@std@@@std@@YAPAV?$_Deque_val@U?$_Deque_simple_types@Ulc_record@@@std@@@0@AAV10@@Z 10001a10 f i backtacking.obj
 0001:00000a10       ??$forward@V?$basic_string@DU?$char_traits@D@std@@V?$allocator@D@2@@std@@@std@@YA$$QAV?$basic_string@DU?$char_traits@D@std@@V?$allocator@D@2@@0@AAV10@@Z 10001a10 f i backtacking.obj
 0001:00000a10       ??$_Unfancy@PAVDot@@@std@@YAPAPAVDot@@PAPAV1@@Z 10001a10 f i dots.obj
 0001:00000a20       ?_Allocate@_Default_allocate_traits@std@@SAPAXI@Z 10001a20 f i backtacking.obj
 0001:00000a40       ?_Adjust_manually_vector_aligned@std@@YAXAAPAXAAI@Z 10001a40 f i backtacking.obj
 0001:00000ab0       ?_Decref@_Ref_count_base@std@@QAEXXZ 10001ab0 f i backtacking.obj
 0001:00000ae0       ?_Decwref@_Ref_count_base@std@@QAEXXZ 10001ae0 f i backtacking.obj
 0001:00000b10       ?_Get_second@?$_Compressed_pair@V?$allocator@V?$_List_unchecked_iterator@V?$_List_val@U?$_List_simple_types@U?$pair@$$CBV?$basic_string@DU?$char_traits@D@std@@V?$allocator@D@2@@std@@V?$shared_ptr@UNode@NetvarTree@@@2@@std@@@std@@@std@@@std@@@std@@V?$_Vector_val@U?$_Simple_types@V?$_List_unchecked_iterator@V?$_List_val@U?$_List_simple_types@U?$pair@$$CBV?$basic_string@DU?$char_traits@D@std@@V?$allocator@D@2@@std@@V?$shared_ptr@UNode@NetvarTree@@@2@@std@@@std@@@std@@@std@@@std@@@2@$00@std@@QAEAAV?$_Vector_val@U?$_Simple_types@V?$_List_unchecked_iterator@V?$_List_val@U?$_List_simple_types@U?$pair@$$CBV?$basic_string@DU?$char_traits@D@std@@V?$allocator@D@2@@std@@V?$shared_ptr@UNode@NetvarTree@@@2@@std@@@std@@@std@@@std@@@std@@@2@XZ 10001b10 f i backtacking.obj
 0001:00000b10       ??0_Bxty@?$_String_val@U?$_Simple_types@D@std@@@std@@QAE@XZ 10001b10 f i backtacking.obj
 0001:00000b10       ?_Get_second@?$_Compressed_pair@U?$default_delete@VNetvarTree@@@std@@PAVNetvarTree@@$00@std@@QAEAAPAVNetvarTree@@XZ 10001b10 f i Hooks.obj
 0001:00000b10       ?_Get_first@?$_Compressed_pair@V?$allocator@PAV?$ConfigValue@M@@@std@@V?$_Vector_val@U?$_Simple_types@PAV?$ConfigValue@M@@@std@@@2@$00@std@@QBEABV?$allocator@PAV?$ConfigValue@M@@@2@XZ 10001b10 f i cfgsaving.obj
 0001:00000b10       ?_Get_second@?$_Compressed_pair@U?$default_delete@$$BY0A@I@std@@PAI$00@std@@QBEABQAIXZ 10001b10 f i Hooks.obj
 0001:00000b10       ?_Get_second@?$_Compressed_pair@V?$allocator@UPlayerRecords@@@std@@V?$_Deque_val@U?$_Deque_simple_types@UPlayerRecords@@@std@@@2@$00@std@@QBEABV?$_Deque_val@U?$_Deque_simple_types@UPlayerRecords@@@std@@@2@XZ 10001b10 f i Aimbot.obj
 0001:00000b10       ??0?$allocator@Vtrace_info@@@std@@QAE@XZ 10001b10 f i Hooks.obj
 0001:00000b10       ?_Get_second@?$_Compressed_pair@V?$allocator@PAV?$ConfigValue@_N@@@std@@V?$_Vector_val@U?$_Simple_types@PAV?$ConfigValue@_N@@@std@@@2@$00@std@@QAEAAV?$_Vector_val@U?$_Simple_types@PAV?$ConfigValue@_N@@@std@@@2@XZ 10001b10 f i cfgsaving.obj
 0001:00000b10       ?_Get_second@?$_Compressed_pair@V?$allocator@PAV?$ConfigValue@H@@@std@@V?$_Vector_val@U?$_Simple_types@PAV?$ConfigValue@H@@@std@@@2@$00@std@@QBEABV?$_Vector_val@U?$_Simple_types@PAV?$ConfigValue@H@@@std@@@2@XZ 10001b10 f i cfgsaving.obj
 0001:00000b10       ?_Get_second@?$_Compressed_pair@U?$equal_to@V?$basic_string@DU?$char_traits@D@std@@V?$allocator@D@2@@std@@@std@@M$00@std@@QBEABMXZ 10001b10 f i backtacking.obj
 0001:00000b10       ?_Get_second@?$_Compressed_pair@V?$allocator@Ulc_record@@@std@@V?$_Deque_val@U?$_Deque_simple_types@Ulc_record@@@std@@@2@$00@std@@QAEAAV?$_Deque_val@U?$_Deque_simple_types@Ulc_record@@@std@@@2@XZ 10001b10 f i backtacking.obj
 0001:00000b10       ?_Get_second@?$_Compressed_pair@U?$equal_to@V?$basic_string@DU?$char_traits@D@std@@V?$allocator@D@2@@std@@@std@@M$00@std@@QAEAAMXZ 10001b10 f i NetvarManager.obj
 0001:00000b10       ?_Get_second@?$_Compressed_pair@V?$allocator@V?$basic_string@DU?$char_traits@D@std@@V?$allocator@D@2@@std@@@std@@V?$_Vector_val@U?$_Simple_types@V?$basic_string@DU?$char_traits@D@std@@V?$allocator@D@2@@std@@@std@@@2@$00@std@@QAEAAV?$_Vector_val@U?$_Simple_types@V?$basic_string@DU?$char_traits@D@std@@V?$allocator@D@2@@std@@@std@@@2@XZ 10001b10 f i Menu.obj
 0001:00000b10       ?_Get_second@?$_Compressed_pair@V?$allocator@U?$_List_node@U?$pair@$$CBV?$basic_string@DU?$char_traits@D@std@@V?$allocator@D@2@@std@@V?$shared_ptr@UNode@NetvarTree@@@2@@std@@PAX@std@@@std@@V?$_List_val@U?$_List_simple_types@U?$pair@$$CBV?$basic_string@DU?$char_traits@D@std@@V?$allocator@D@2@@std@@V?$shared_ptr@UNode@NetvarTree@@@2@@std@@@std@@@2@$00@std@@QAEAAV?$_List_val@U?$_List_simple_types@U?$pair@$$CBV?$basic_string@DU?$char_traits@D@std@@V?$allocator@D@2@@std@@V?$shared_ptr@UNode@NetvarTree@@@2@@std@@@std@@@2@XZ 10001b10 f i backtacking.obj
 0001:00000b10       ?_Get_second@?$_Compressed_pair@U?$hash@V?$basic_string@DU?$char_traits@D@std@@V?$allocator@D@2@@std@@@std@@V?$_Compressed_pair@U?$equal_to@V?$basic_string@DU?$char_traits@D@std@@V?$allocator@D@2@@std@@@std@@M$00@2@$00@std@@QBEABV?$_Compressed_pair@U?$equal_to@V?$basic_string@DU?$char_traits@D@std@@V?$allocator@D@2@@std@@@std@@M$00@2@XZ 10001b10 f i backtacking.obj
 0001:00000b10       ?_Get_first@?$_Compressed_pair@V?$allocator@UPlayerRecords@@@std@@V?$_Deque_val@U?$_Deque_simple_types@UPlayerRecords@@@std@@@2@$00@std@@QAEAAV?$allocator@UPlayerRecords@@@2@XZ 10001b10 f i LagComp.obj
 0001:00000b10       ?_Get_first@?$_Compressed_pair@V?$allocator@PAVDot@@@std@@V?$_Vector_val@U?$_Simple_types@PAVDot@@@std@@@2@$00@std@@QBEABV?$allocator@PAVDot@@@2@XZ 10001b10 f i dots.obj
 0001:00000b10       ?_Get_first@?$_Compressed_pair@V?$allocator@Ulc_record@@@std@@V?$_Deque_val@U?$_Deque_simple_types@Ulc_record@@@std@@@2@$00@std@@QAEAAV?$allocator@Ulc_record@@@2@XZ 10001b10 f i backtacking.obj
 0001:00000b10       ??0Vector@@QAE@XZ          10001b10 f i backtacking.obj
 0001:00000b10       ?_Get_second@?$_Compressed_pair@U?$default_delete@VNetvarTree@@@std@@PAVNetvarTree@@$00@std@@QBEABQAVNetvarTree@@XZ 10001b10 f i backtacking.obj
 0001:00000b10       ?_Get_first@?$_Compressed_pair@V?$allocator@PAV?$ConfigValue@_N@@@std@@V?$_Vector_val@U?$_Simple_types@PAV?$ConfigValue@_N@@@std@@@2@$00@std@@QAEAAV?$allocator@PAV?$ConfigValue@_N@@@2@XZ 10001b10 f i cfgsaving.obj
 0001:00000b10       ??0?$allocator@PAV?$ConfigValue@M@@@std@@QAE@XZ 10001b10 f i cfgsaving.obj
 0001:00000b10       ??0?$singleton@Vchams@@@@IAE@XZ 10001b10 f i Hooks.obj
 0001:00000b10       ?_Get_first@?$_Compressed_pair@U?$default_delete@VNetvarTree@@@std@@PAVNetvarTree@@$00@std@@QAEAAU?$default_delete@VNetvarTree@@@2@XZ 10001b10 f i Hooks.obj
 0001:00000b10       ??0?$allocator@D@std@@QAE@XZ 10001b10 f i backtacking.obj
 0001:00000b10       ?_Get_first@?$_Compressed_pair@U?$default_delete@$$BY0A@I@std@@PAI$00@std@@QAEAAU?$default_delete@$$BY0A@I@2@XZ 10001b10 f i Hooks.obj
 0001:00000b10       ?_Get_first@?$_Compressed_pair@V?$allocator@Ulc_record@@@std@@V?$_Deque_val@U?$_Deque_simple_types@Ulc_record@@@std@@@2@$00@std@@QBEABV?$allocator@Ulc_record@@@2@XZ 10001b10 f i backtacking.obj
 0001:00000b10       ?_Get_second@?$_Compressed_pair@V?$allocator@Vtrace_info@@@std@@V?$_Vector_val@U?$_Simple_types@Vtrace_info@@@std@@@2@$00@std@@QBEABV?$_Vector_val@U?$_Simple_types@Vtrace_info@@@std@@@2@XZ 10001b10 f i Hooks.obj
 0001:00000b10       ?_Get_first@?$_Compressed_pair@V?$allocator@UPlayerRecords@@@std@@V?$_Deque_val@U?$_Deque_simple_types@UPlayerRecords@@@std@@@2@$00@std@@QBEABV?$allocator@UPlayerRecords@@@2@XZ 10001b10 f i LagComp.obj
 0001:00000b10       ?_Get_first@?$_Compressed_pair@V?$allocator@VCMessage@@@std@@V?$_Vector_val@U?$_Simple_types@VCMessage@@@std@@@2@$00@std@@QAEAAV?$allocator@VCMessage@@@2@XZ 10001b10 f i Event Logs.obj
 0001:00000b10       ?_Get_first@?$_Compressed_pair@V?$allocator@H@std@@V?$_Vector_val@U?$_Simple_types@H@std@@@2@$00@std@@QAEAAV?$allocator@H@2@XZ 10001b10 f i Aimbot.obj
 0001:00000b10       ?_Get_first@?$_Compressed_pair@V?$allocator@PBD@std@@V?$_Vector_val@U?$_Simple_types@PBD@std@@@2@$00@std@@QAEAAV?$allocator@PBD@2@XZ 10001b10 f i Hooks.obj
 0001:00000b10       ??0?$allocator@H@std@@QAE@XZ 10001b10 f i Aimbot.obj
 0001:00000b10       ?_Get_first@?$_Compressed_pair@V?$allocator@V?$_List_unchecked_iterator@V?$_List_val@U?$_List_simple_types@U?$pair@$$CBV?$basic_string@DU?$char_traits@D@std@@V?$allocator@D@2@@std@@V?$shared_ptr@UNode@NetvarTree@@@2@@std@@@std@@@std@@@std@@@std@@V?$_Vector_val@U?$_Simple_types@V?$_List_unchecked_iterator@V?$_List_val@U?$_List_simple_types@U?$pair@$$CBV?$basic_string@DU?$char_traits@D@std@@V?$allocator@D@2@@std@@V?$shared_ptr@UNode@NetvarTree@@@2@@std@@@std@@@std@@@std@@@std@@@2@$00@std@@QBEABV?$allocator@V?$_List_unchecked_iterator@V?$_List_val@U?$_List_simple_types@U?$pair@$$CBV?$basic_string@DU?$char_traits@D@std@@V?$allocator@D@2@@std@@V?$shared_ptr@UNode@NetvarTree@@@2@@std@@@std@@@std@@@std@@@2@XZ 10001b10 f i backtacking.obj
 0001:00000b10       ?_Get_second@?$_Compressed_pair@V?$allocator@V?$basic_string@DU?$char_traits@D@std@@V?$allocator@D@2@@std@@@std@@V?$_Vector_val@U?$_Simple_types@V?$basic_string@DU?$char_traits@D@std@@V?$allocator@D@2@@std@@@std@@@2@$00@std@@QBEABV?$_Vector_val@U?$_Simple_types@V?$basic_string@DU?$char_traits@D@std@@V?$allocator@D@2@@std@@@std@@@2@XZ 10001b10 f i Menu.obj
 0001:00000b10       ?_Get_first@?$_Compressed_pair@V?$allocator@PAV?$ConfigValue@M@@@std@@V?$_Vector_val@U?$_Simple_types@PAV?$ConfigValue@M@@@std@@@2@$00@std@@QAEAAV?$allocator@PAV?$ConfigValue@M@@@2@XZ 10001b10 f i cfgsaving.obj
 0001:00000b10       ?_Get_second@?$_Compressed_pair@V?$allocator@PAV?$ConfigValue@_N@@@std@@V?$_Vector_val@U?$_Simple_types@PAV?$ConfigValue@_N@@@std@@@2@$00@std@@QBEABV?$_Vector_val@U?$_Simple_types@PAV?$ConfigValue@_N@@@std@@@2@XZ 10001b10 f i cfgsaving.obj
 0001:00000b10       ?_Get_second@?$_Compressed_pair@V?$allocator@VCMessage@@@std@@V?$_Vector_val@U?$_Simple_types@VCMessage@@@std@@@2@$00@std@@QAEAAV?$_Vector_val@U?$_Simple_types@VCMessage@@@std@@@2@XZ 10001b10 f i Event Logs.obj
 0001:00000b10       ??0?$allocator@V?$basic_string@DU?$char_traits@D@std@@V?$allocator@D@2@@std@@@std@@QAE@XZ 10001b10 f i Menu.obj
 0001:00000b10       ??0?$allocator@U?$pair@$$CBV?$basic_string@DU?$char_traits@D@std@@V?$allocator@D@2@@std@@V?$shared_ptr@UNode@NetvarTree@@@2@@std@@@std@@QAE@XZ 10001b10 f i NetvarManager.obj
 0001:00000b10       ?_Get_second@?$_Compressed_pair@V?$allocator@PAV?$ConfigValue@H@@@std@@V?$_Vector_val@U?$_Simple_types@PAV?$ConfigValue@H@@@std@@@2@$00@std@@QAEAAV?$_Vector_val@U?$_Simple_types@PAV?$ConfigValue@H@@@std@@@2@XZ 10001b10 f i cfgsaving.obj
 0001:00000b10       ?_Get_first@?$_Compressed_pair@V?$allocator@PAVDot@@@std@@V?$_Vector_val@U?$_Simple_types@PAVDot@@@std@@@2@$00@std@@QAEAAV?$allocator@PAVDot@@@2@XZ 10001b10 f i dots.obj
 0001:00000b10       ?_Get_second@?$_Compressed_pair@V?$allocator@VCMessage@@@std@@V?$_Vector_val@U?$_Simple_types@VCMessage@@@std@@@2@$00@std@@QBEABV?$_Vector_val@U?$_Simple_types@VCMessage@@@std@@@2@XZ 10001b10 f i Event Logs.obj
 0001:00000b10       ?_Get_first@?$_Compressed_pair@V?$allocator@VCMessage@@@std@@V?$_Vector_val@U?$_Simple_types@VCMessage@@@std@@@2@$00@std@@QBEABV?$allocator@VCMessage@@@2@XZ 10001b10 f i Event Logs.obj
 0001:00000b10       ?_Get_second@?$_Compressed_pair@U?$default_delete@VShadowVTManager@@@std@@PAVShadowVTManager@@$00@std@@QBEABQAVShadowVTManager@@XZ 10001b10 f i Hooks.obj
 0001:00000b10       ?_Get_second@?$_Compressed_pair@V?$allocator@PBD@std@@V?$_Vector_val@U?$_Simple_types@PBD@std@@@2@$00@std@@QAEAAV?$_Vector_val@U?$_Simple_types@PBD@std@@@2@XZ 10001b10 f i Hooks.obj
 0001:00000b10       ?_Get_second@?$_Compressed_pair@U?$default_delete@VVMTHook@@@std@@PAVVMTHook@@$00@std@@QAEAAPAVVMTHook@@XZ 10001b10 f i Hooks.obj
 0001:00000b10       ?_Get_first@?$_Compressed_pair@U?$default_delete@VVMTHook@@@std@@PAVVMTHook@@$00@std@@QAEAAU?$default_delete@VVMTHook@@@2@XZ 10001b10 f i Hooks.obj
 0001:00000b10       ??0?$allocator@PAVDot@@@std@@QAE@XZ 10001b10 f i dots.obj
 0001:00000b10       ??0?$allocator@PBD@std@@QAE@XZ 10001b10 f i Hooks.obj
 0001:00000b10       ?_Get_first@?$_Compressed_pair@V?$allocator@V?$basic_string@DU?$char_traits@D@std@@V?$allocator@D@2@@std@@@std@@V?$_Vector_val@U?$_Simple_types@V?$basic_string@DU?$char_traits@D@std@@V?$allocator@D@2@@std@@@std@@@2@$00@std@@QAEAAV?$allocator@V?$basic_string@DU?$char_traits@D@std@@V?$allocator@D@2@@std@@@2@XZ 10001b10 f i Menu.obj
 0001:00000b10       ?_Get_second@?$_Compressed_pair@V?$allocator@H@std@@V?$_Vector_val@U?$_Simple_types@H@std@@@2@$00@std@@QAEAAV?$_Vector_val@U?$_Simple_types@H@std@@@2@XZ 10001b10 f i Aimbot.obj
 0001:00000b10       ?_Get_first@?$_Compressed_pair@V?$allocator@PAV?$ConfigValue@_N@@@std@@V?$_Vector_val@U?$_Simple_types@PAV?$ConfigValue@_N@@@std@@@2@$00@std@@QBEABV?$allocator@PAV?$ConfigValue@_N@@@2@XZ 10001b10 f i cfgsaving.obj
 0001:00000b10       ?_Get_second@?$_Compressed_pair@V?$allocator@V?$_List_unchecked_iterator@V?$_List_val@U?$_List_simple_types@U?$pair@$$CBV?$basic_string@DU?$char_traits@D@std@@V?$allocator@D@2@@std@@V?$shared_ptr@UNode@NetvarTree@@@2@@std@@@std@@@std@@@std@@@std@@V?$_Vector_val@U?$_Simple_types@V?$_List_unchecked_iterator@V?$_List_val@U?$_List_simple_types@U?$pair@$$CBV?$basic_string@DU?$char_traits@D@std@@V?$allocator@D@2@@std@@V?$shared_ptr@UNode@NetvarTree@@@2@@std@@@std@@@std@@@std@@@std@@@2@$00@std@@QBEABV?$_Vector_val@U?$_Simple_types@V?$_List_unchecked_iterator@V?$_List_val@U?$_List_simple_types@U?$pair@$$CBV?$basic_string@DU?$char_traits@D@std@@V?$allocator@D@2@@std@@V?$shared_ptr@UNode@NetvarTree@@@2@@std@@@std@@@std@@@std@@@std@@@2@XZ 10001b10 f i backtacking.obj
 0001:00000b10       ?_Get_first@?$_Compressed_pair@V?$allocator@H@std@@V?$_Vector_val@U?$_Simple_types@H@std@@@2@$00@std@@QBEABV?$allocator@H@2@XZ 10001b10 f i Aimbot.obj
 0001:00000b10       ??0matrix3x4_t@@QAE@XZ     10001b10 f i Legitbot.obj
 0001:00000b10       ?_Get_second@?$_Compressed_pair@V?$allocator@PAVDot@@@std@@V?$_Vector_val@U?$_Simple_types@PAVDot@@@std@@@2@$00@std@@QBEABV?$_Vector_val@U?$_Simple_types@PAVDot@@@std@@@2@XZ 10001b10 f i dots.obj
 0001:00000b10       ?_Get_first@?$_Compressed_pair@U?$hash@V?$basic_string@DU?$char_traits@D@std@@V?$allocator@D@2@@std@@@std@@V?$_Compressed_pair@U?$equal_to@V?$basic_string@DU?$char_traits@D@std@@V?$allocator@D@2@@std@@@std@@M$00@2@$00@std@@QBEABU?$hash@V?$basic_string@DU?$char_traits@D@std@@V?$allocator@D@2@@std@@@2@XZ 10001b10 f i backtacking.obj
 0001:00000b10       ?_Get_first@?$_Compressed_pair@U?$equal_to@V?$basic_string@DU?$char_traits@D@std@@V?$allocator@D@2@@std@@@std@@M$00@std@@QBEABU?$equal_to@V?$basic_string@DU?$char_traits@D@std@@V?$allocator@D@2@@std@@@2@XZ 10001b10 f i backtacking.obj
 0001:00000b10       ?_Get_first@?$_Compressed_pair@V?$allocator@U?$_List_node@U?$pair@$$CBV?$basic_string@DU?$char_traits@D@std@@V?$allocator@D@2@@std@@V?$shared_ptr@UNode@NetvarTree@@@2@@std@@PAX@std@@@std@@V?$_List_val@U?$_List_simple_types@U?$pair@$$CBV?$basic_string@DU?$char_traits@D@std@@V?$allocator@D@2@@std@@V?$shared_ptr@UNode@NetvarTree@@@2@@std@@@std@@@2@$00@std@@QBEABV?$allocator@U?$_List_node@U?$pair@$$CBV?$basic_string@DU?$char_traits@D@std@@V?$allocator@D@2@@std@@V?$shared_ptr@UNode@NetvarTree@@@2@@std@@PAX@std@@@2@XZ 10001b10 f i backtacking.obj
 0001:00000b10       ?_Unchecked_begin@?$array@VVector2D@@$02@std@@QAEPAVVector2D@@XZ 10001b10 f i ESP.obj
 0001:00000b10       ?_Get_first@?$_Compressed_pair@V?$allocator@Vtrace_info@@@std@@V?$_Vector_val@U?$_Simple_types@Vtrace_info@@@std@@@2@$00@std@@QAEAAV?$allocator@Vtrace_info@@@2@XZ 10001b10 f i Hooks.obj
 0001:00000b10       ?_Get_first@?$_Compressed_pair@V?$allocator@D@std@@V?$_String_val@U?$_Simple_types@D@std@@@2@$00@std@@QBEABV?$allocator@D@2@XZ 10001b10 f i backtacking.obj
 0001:00000b10       ?_Get_first@?$_Compressed_pair@U?$default_delete@VShadowVTManager@@@std@@PAVShadowVTManager@@$00@std@@QAEAAU?$default_delete@VShadowVTManager@@@2@XZ 10001b10 f i Hooks.obj
 0001:00000b10       ?_Get_first@?$_Compressed_pair@V?$allocator@Vtrace_info@@@std@@V?$_Vector_val@U?$_Simple_types@Vtrace_info@@@std@@@2@$00@std@@QBEABV?$allocator@Vtrace_info@@@2@XZ 10001b10 f i Hooks.obj
 0001:00000b10       ??0?$tuple@$$V@std@@QAE@XZ 10001b10 f i backtacking.obj
 0001:00000b10       ?_Get_second@?$_Compressed_pair@V?$allocator@D@std@@V?$_String_val@U?$_Simple_types@D@std@@@2@$00@std@@QAEAAV?$_String_val@U?$_Simple_types@D@std@@@2@XZ 10001b10 f i backtacking.obj
 0001:00000b10       ?_Get_second@?$_Compressed_pair@V?$allocator@PAV?$ConfigValue@M@@@std@@V?$_Vector_val@U?$_Simple_types@PAV?$ConfigValue@M@@@std@@@2@$00@std@@QAEAAV?$_Vector_val@U?$_Simple_types@PAV?$ConfigValue@M@@@std@@@2@XZ 10001b10 f i cfgsaving.obj
 0001:00000b10       ??0?$allocator@VCMessage@@@std@@QAE@XZ 10001b10 f i Event Logs.obj
 0001:00000b10       ??0?$allocator@UPlayerRecords@@@std@@QAE@XZ 10001b10 f i LagComp.obj
 0001:00000b10       ??0?$allocator@Ulc_record@@@std@@QAE@XZ 10001b10 f i backtacking.obj
 0001:00000b10       ??0?$allocator@PAV?$ConfigValue@H@@@std@@QAE@XZ 10001b10 f i cfgsaving.obj
 0001:00000b10       ?_Get_second@?$_Compressed_pair@U?$hash@V?$basic_string@DU?$char_traits@D@std@@V?$allocator@D@2@@std@@@std@@V?$_Compressed_pair@U?$equal_to@V?$basic_string@DU?$char_traits@D@std@@V?$allocator@D@2@@std@@@std@@M$00@2@$00@std@@QAEAAV?$_Compressed_pair@U?$equal_to@V?$basic_string@DU?$char_traits@D@std@@V?$allocator@D@2@@std@@@std@@M$00@2@XZ 10001b10 f i NetvarManager.obj
 0001:00000b10       ?_Get_first@?$_Compressed_pair@V?$allocator@PAV?$ConfigValue@H@@@std@@V?$_Vector_val@U?$_Simple_types@PAV?$ConfigValue@H@@@std@@@2@$00@std@@QBEABV?$allocator@PAV?$ConfigValue@H@@@2@XZ 10001b10 f i cfgsaving.obj
 0001:00000b10       ?_Get_first@?$_Compressed_pair@V?$allocator@U?$_List_node@U?$pair@$$CBV?$basic_string@DU?$char_traits@D@std@@V?$allocator@D@2@@std@@V?$shared_ptr@UNode@NetvarTree@@@2@@std@@PAX@std@@@std@@V?$_List_val@U?$_List_simple_types@U?$pair@$$CBV?$basic_string@DU?$char_traits@D@std@@V?$allocator@D@2@@std@@V?$shared_ptr@UNode@NetvarTree@@@2@@std@@@std@@@2@$00@std@@QAEAAV?$allocator@U?$_List_node@U?$pair@$$CBV?$basic_string@DU?$char_traits@D@std@@V?$allocator@D@2@@std@@V?$shared_ptr@UNode@NetvarTree@@@2@@std@@PAX@std@@@2@XZ 10001b10 f i backtacking.obj
 0001:00000b10       ?_Get_second@?$_Compressed_pair@V?$allocator@Ulc_record@@@std@@V?$_Deque_val@U?$_Deque_simple_types@Ulc_record@@@std@@@2@$00@std@@QBEABV?$_Deque_val@U?$_Deque_simple_types@Ulc_record@@@std@@@2@XZ 10001b10 f i backtacking.obj
 0001:00000b10       ?_Get_second@?$_Compressed_pair@V?$allocator@Vtrace_info@@@std@@V?$_Vector_val@U?$_Simple_types@Vtrace_info@@@std@@@2@$00@std@@QAEAAV?$_Vector_val@U?$_Simple_types@Vtrace_info@@@std@@@2@XZ 10001b10 f i Hooks.obj
 0001:00000b10       ?_Get_second@?$_Compressed_pair@V?$allocator@D@std@@V?$_String_val@U?$_Simple_types@D@std@@@2@$00@std@@QBEABV?$_String_val@U?$_Simple_types@D@std@@@2@XZ 10001b10 f i backtacking.obj
 0001:00000b10       ??0?$allocator@PAV?$ConfigValue@_N@@@std@@QAE@XZ 10001b10 f i cfgsaving.obj
 0001:00000b10       ??0Vector2D@@QAE@XZ        10001b10 f i dots.obj
 0001:00000b10       ?_Get_first@?$_Compressed_pair@V?$allocator@V?$_List_unchecked_iterator@V?$_List_val@U?$_List_simple_types@U?$pair@$$CBV?$basic_string@DU?$char_traits@D@std@@V?$allocator@D@2@@std@@V?$shared_ptr@UNode@NetvarTree@@@2@@std@@@std@@@std@@@std@@@std@@V?$_Vector_val@U?$_Simple_types@V?$_List_unchecked_iterator@V?$_List_val@U?$_List_simple_types@U?$pair@$$CBV?$basic_string@DU?$char_traits@D@std@@V?$allocator@D@2@@std@@V?$shared_ptr@UNode@NetvarTree@@@2@@std@@@std@@@std@@@std@@@std@@@2@$00@std@@QAEAAV?$allocator@V?$_List_unchecked_iterator@V?$_List_val@U?$_List_simple_types@U?$pair@$$CBV?$basic_string@DU?$char_traits@D@std@@V?$allocator@D@2@@std@@V?$shared_ptr@UNode@NetvarTree@@@2@@std@@@std@@@std@@@std@@@2@XZ 10001b10 f i backtacking.obj
 0001:00000b10       ?_Get_second@?$_Compressed_pair@V?$allocator@U?$_List_node@U?$pair@$$CBV?$basic_string@DU?$char_traits@D@std@@V?$allocator@D@2@@std@@V?$shared_ptr@UNode@NetvarTree@@@2@@std@@PAX@std@@@std@@V?$_List_val@U?$_List_simple_types@U?$pair@$$CBV?$basic_string@DU?$char_traits@D@std@@V?$allocator@D@2@@std@@V?$shared_ptr@UNode@NetvarTree@@@2@@std@@@std@@@2@$00@std@@QBEABV?$_List_val@U?$_List_simple_types@U?$pair@$$CBV?$basic_string@DU?$char_traits@D@std@@V?$allocator@D@2@@std@@V?$shared_ptr@UNode@NetvarTree@@@2@@std@@@std@@@2@XZ 10001b10 f i backtacking.obj
 0001:00000b10       ?_Get_second@?$_Compressed_pair@V?$allocator@PAVDot@@@std@@V?$_Vector_val@U?$_Simple_types@PAVDot@@@std@@@2@$00@std@@QAEAAV?$_Vector_val@U?$_Simple_types@PAVDot@@@std@@@2@XZ 10001b10 f i dots.obj
 0001:00000b10       ?_Get_first@?$_Compressed_pair@V?$allocator@V?$basic_string@DU?$char_traits@D@std@@V?$allocator@D@2@@std@@@std@@V?$_Vector_val@U?$_Simple_types@V?$basic_string@DU?$char_traits@D@std@@V?$allocator@D@2@@std@@@std@@@2@$00@std@@QBEABV?$allocator@V?$basic_string@DU?$char_traits@D@std@@V?$allocator@D@2@@std@@@2@XZ 10001b10 f i Menu.obj
 0001:00000b10       ?_Get_second@?$_Compressed_pair@V?$allocator@PAV?$ConfigValue@M@@@std@@V?$_Vector_val@U?$_Simple_types@PAV?$ConfigValue@M@@@std@@@2@$00@std@@QBEABV?$_Vector_val@U?$_Simple_types@PAV?$ConfigValue@M@@@std@@@2@XZ 10001b10 f i cfgsaving.obj
 0001:00000b10       ?_Get_first@?$_Compressed_pair@V?$allocator@D@std@@V?$_String_val@U?$_Simple_types@D@std@@@2@$00@std@@QAEAAV?$allocator@D@2@XZ 10001b10 f i backtacking.obj
 0001:00000b10       ?_Get_second@?$_Compressed_pair@V?$allocator@H@std@@V?$_Vector_val@U?$_Simple_types@H@std@@@2@$00@std@@QBEABV?$_Vector_val@U?$_Simple_types@H@std@@@2@XZ 10001b10 f i Aimbot.obj
 0001:00000b10       ?_Get_second@?$_Compressed_pair@V?$allocator@PBD@std@@V?$_Vector_val@U?$_Simple_types@PBD@std@@@2@$00@std@@QBEABV?$_Vector_val@U?$_Simple_types@PBD@std@@@2@XZ 10001b10 f i Hooks.obj
 0001:00000b10       ?_Get_second@?$_Compressed_pair@U?$default_delete@VVMTHook@@@std@@PAVVMTHook@@$00@std@@QBEABQAVVMTHook@@XZ 10001b10 f i Hooks.obj
 0001:00000b10       ?_Get_second@?$_Compressed_pair@U?$default_delete@$$BY0A@I@std@@PAI$00@std@@QAEAAPAIXZ 10001b10 f i Hooks.obj
 0001:00000b10       ?_Get_first@?$_Compressed_pair@V?$allocator@PBD@std@@V?$_Vector_val@U?$_Simple_types@PBD@std@@@2@$00@std@@QBEABV?$allocator@PBD@2@XZ 10001b10 f i Hooks.obj
 0001:00000b10       ?_Get_first@?$_Compressed_pair@V?$allocator@PAV?$ConfigValue@H@@@std@@V?$_Vector_val@U?$_Simple_types@PAV?$ConfigValue@H@@@std@@@2@$00@std@@QAEAAV?$allocator@PAV?$ConfigValue@H@@@2@XZ 10001b10 f i cfgsaving.obj
 0001:00000b10       ?_Get_second@?$_Compressed_pair@V?$allocator@UPlayerRecords@@@std@@V?$_Deque_val@U?$_Deque_simple_types@UPlayerRecords@@@std@@@2@$00@std@@QAEAAV?$_Deque_val@U?$_Deque_simple_types@UPlayerRecords@@@std@@@2@XZ 10001b10 f i Aimbot.obj
 0001:00000b10       ?data@?$array@UVertex_t@@$02@std@@QAEPAUVertex_t@@XZ 10001b10 f i ESP.obj
 0001:00000b20       ??$?0Ulc_record@@@?$allocator@PAUlc_record@@@std@@QAE@ABV?$allocator@Ulc_record@@@1@@Z 10001b20 f i backtacking.obj
 0001:00000b20       ??4ITraceFilter@@QAEAAV0@$$QAV0@@Z 10001b20 f i Autowall.obj
 0001:00000b20       ??$?0U?$pair@$$CBV?$basic_string@DU?$char_traits@D@std@@V?$allocator@D@2@@std@@V?$shared_ptr@UNode@NetvarTree@@@2@@std@@@?$allocator@V?$_List_unchecked_iterator@V?$_List_val@U?$_List_simple_types@U?$pair@$$CBV?$basic_string@DU?$char_traits@D@std@@V?$allocator@D@2@@std@@V?$shared_ptr@UNode@NetvarTree@@@2@@std@@@std@@@std@@@std@@@std@@QAE@ABV?$allocator@U?$pair@$$CBV?$basic_string@DU?$char_traits@D@std@@V?$allocator@D@2@@std@@V?$shared_ptr@UNode@NetvarTree@@@2@@std@@@1@@Z 10001b20 f i NetvarManager.obj
 0001:00000b20       ??$?0U_Exact_args_t@std@@$0A@@?$tuple@$$V@std@@QAE@U_Exact_args_t@1@@Z 10001b20 f i backtacking.obj
 0001:00000b20       ??$?0U?$pair@$$CBV?$basic_string@DU?$char_traits@D@std@@V?$allocator@D@2@@std@@V?$shared_ptr@UNode@NetvarTree@@@2@@std@@@?$allocator@U?$_List_node@U?$pair@$$CBV?$basic_string@DU?$char_traits@D@std@@V?$allocator@D@2@@std@@V?$shared_ptr@UNode@NetvarTree@@@2@@std@@PAX@std@@@std@@QAE@ABV?$allocator@U?$pair@$$CBV?$basic_string@DU?$char_traits@D@std@@V?$allocator@D@2@@std@@V?$shared_ptr@UNode@NetvarTree@@@2@@std@@@1@@Z 10001b20 f i NetvarManager.obj
 0001:00000b20       ??$?0UPlayerRecords@@@?$allocator@PAUPlayerRecords@@@std@@QAE@ABV?$allocator@UPlayerRecords@@@1@@Z 10001b20 f i LagComp.obj
 0001:00000b20       ??0?$tuple@$$V@std@@QAE@ABV01@@Z 10001b20 f i backtacking.obj
 0001:00000b20       ??$?0Ulc_record@@@?$allocator@U_Container_proxy@std@@@std@@QAE@ABV?$allocator@Ulc_record@@@1@@Z 10001b20 f i backtacking.obj
 0001:00000b20       ??$?0U?$integral_constant@_N$00@std@@@_Unused_parameter@std@@QAE@$$QAU?$integral_constant@_N$00@1@@Z 10001b20 f i backtacking.obj
 0001:00000b20       ??$?0UPlayerRecords@@@?$allocator@U_Container_proxy@std@@@std@@QAE@ABV?$allocator@UPlayerRecords@@@1@@Z 10001b20 f i LagComp.obj
 0001:00000b30       ??0Vector@@QAE@MMM@Z       10001b30 f i backtacking.obj
 0001:00000b70       ??4Vector@@QAEAAV0@ABV0@@Z 10001b70 f i backtacking.obj
 0001:00000bb0       ?Length@Vector@@QBEMXZ     10001bb0 f i backtacking.obj
 0001:00000c20       ??HVector@@QBE?AV0@ABV0@@Z 10001c20 f i backtacking.obj
 0001:00000c90       ??GVector@@QBE?AV0@ABV0@@Z 10001c90 f i backtacking.obj
 0001:00000d00       ??DVector@@QBE?AV0@M@Z     10001d00 f i backtacking.obj
 0001:00000d70       ?Dot@Vector@@QBEMABV1@@Z   10001d70 f i backtacking.obj
 0001:00000dd0       ??0Vector2D@@QAE@MM@Z      10001dd0 f i backtacking.obj
 0001:00000e00       ?GetOffsetRecursive@NetvarTree@@CAHAAV?$unordered_map@V?$basic_string@DU?$char_traits@D@std@@V?$allocator@D@2@@std@@V?$shared_ptr@UNode@NetvarTree@@@2@U?$hash@V?$basic_string@DU?$char_traits@D@std@@V?$allocator@D@2@@std@@@2@U?$equal_to@V?$basic_string@DU?$char_traits@D@std@@V?$allocator@D@2@@std@@@2@V?$allocator@U?$pair@$$CBV?$basic_string@DU?$char_traits@D@std@@V?$allocator@D@2@@std@@V?$shared_ptr@UNode@NetvarTree@@@2@@std@@@2@@std@@HPBD@Z 10001e00 f i backtacking.obj
 0001:00000e70       ?GetAbsOrigin@C_BaseEntity@@QAE?AVVector@@XZ 10001e70 f i backtacking.obj
 0001:00000ec0       ?GetTeam@C_BaseEntity@@QAEHXZ 10001ec0 f i backtacking.obj
 0001:00000f80       ?GetSimulationTime@C_BaseEntity@@QAEMXZ 10001f80 f i backtacking.obj
 0001:00001030       ?GetHealth@C_BaseEntity@@QAEHXZ 10002030 f i backtacking.obj
 0001:000010e0       ??_H@YGXPAXIIP6EPAX0@Z@Z   100020e0 f i backtacking.obj
 0001:00001120       ??0lc_record@@QAE@PAVC_BaseEntity@@@Z 10002120 f i backtacking.obj
 0001:00001190       ??0backtrack_tick@@QAE@XZ  10002190 f i backtacking.obj
 0001:000011c0       ?angle_vector@LagComp@@AAE?AVVector@@V2@@Z 100021c0 f i backtacking.obj
 0001:000012b0       ?distance_point_to_line@LagComp@@AAEMVVector@@00@Z 100022b0 f i backtacking.obj
 0001:00001370       ?handle@LagComp@@QAEXXZ    10002370 f   backtacking.obj
 0001:000018b0       ??4backtrack_tick@@QAEAAU0@$$QAU0@@Z 100028b0 f i backtacking.obj
 0001:000018f0       ??0?$array@V?$deque@Ulc_record@@V?$allocator@Ulc_record@@@std@@@std@@$0EA@@std@@QAE@XZ 100028f0 f i backtacking.obj
 0001:00001920       ??1?$array@V?$deque@Ulc_record@@V?$allocator@Ulc_record@@@std@@@std@@$0EA@@std@@QAE@XZ 10002920 f i backtacking.obj
 0001:00001960       ??A?$array@V?$deque@Ulc_record@@V?$allocator@Ulc_record@@@std@@@std@@$0EA@@std@@QAEAAV?$deque@Ulc_record@@V?$allocator@Ulc_record@@@std@@@1@I@Z 10002960 f i backtacking.obj
 0001:00001980       ?pop_back@?$deque@Ulc_record@@V?$allocator@Ulc_record@@@std@@@std@@QAEXXZ 10002980 f i backtacking.obj
 0001:00001a30       ?size@?$deque@Ulc_record@@V?$allocator@Ulc_record@@@std@@@std@@QBEIXZ 10002a30 f i backtacking.obj
 0001:00001a30       ?size@?$deque@UPlayerRecords@@V?$allocator@UPlayerRecords@@@std@@@std@@QBEIXZ 10002a30 f i Aimbot.obj
 0001:00001a50       ??1?$deque@Ulc_record@@V?$allocator@Ulc_record@@@std@@@std@@QAE@XZ 10002a50 f i backtacking.obj
 0001:00001a90       ?push_front@?$deque@Ulc_record@@V?$allocator@Ulc_record@@@std@@@std@@QAEX$$QAUlc_record@@@Z 10002a90 f i backtacking.obj
 0001:00001c20       ??0?$deque@Ulc_record@@V?$allocator@Ulc_record@@@std@@@std@@QAE@XZ 10002c20 f i backtacking.obj
 0001:00001c20       ??0?$deque@UPlayerRecords@@V?$allocator@UPlayerRecords@@@std@@@std@@QAE@XZ 10002c20 f i LagComp.obj
 0001:00001c40       ??C?$unique_ptr@VVMTHook@@U?$default_delete@VVMTHook@@@std@@@std@@QBEPAVVMTHook@@XZ 10002c40 f i Hooks.obj
 0001:00001c40       ?get@?$unique_ptr@$$BY0A@IU?$default_delete@$$BY0A@I@std@@@std@@QBEPAIXZ 10002c40 f i Hooks.obj
 0001:00001c40       ?get@?$unique_ptr@VVMTHook@@U?$default_delete@VVMTHook@@@std@@@std@@QBEPAVVMTHook@@XZ 10002c40 f i Hooks.obj
 0001:00001c40       ?get@?$unique_ptr@VNetvarTree@@U?$default_delete@VNetvarTree@@@std@@@std@@QBEPAVNetvarTree@@XZ 10002c40 f i Hooks.obj
 0001:00001c40       ?get@?$unique_ptr@VShadowVTManager@@U?$default_delete@VShadowVTManager@@@std@@@std@@QBEPAVShadowVTManager@@XZ 10002c40 f i Hooks.obj
 0001:00001c40       ??C?$unique_ptr@VNetvarTree@@U?$default_delete@VNetvarTree@@@std@@@std@@QBEPAVNetvarTree@@XZ 10002c40 f i backtacking.obj
 0001:00001c60       ??A?$unordered_map@V?$basic_string@DU?$char_traits@D@std@@V?$allocator@D@2@@std@@V?$shared_ptr@UNode@NetvarTree@@@2@U?$hash@V?$basic_string@DU?$char_traits@D@std@@V?$allocator@D@2@@std@@@2@U?$equal_to@V?$basic_string@DU?$char_traits@D@std@@V?$allocator@D@2@@std@@@2@V?$allocator@U?$pair@$$CBV?$basic_string@DU?$char_traits@D@std@@V?$allocator@D@2@@std@@V?$shared_ptr@UNode@NetvarTree@@@2@@std@@@2@@std@@QAEAAV?$shared_ptr@UNode@NetvarTree@@@1@$$QAV?$basic_string@DU?$char_traits@D@std@@V?$allocator@D@2@@1@@Z 10002c60 f i backtacking.obj
 0001:00001ca0       ?c_str@?$basic_string@DU?$char_traits@D@std@@V?$allocator@D@2@@std@@QBEPBDXZ 10002ca0 f i backtacking.obj
 0001:00001ce0       ??1?$basic_string@DU?$char_traits@D@std@@V?$allocator@D@2@@std@@QAE@XZ 10002ce0 f i backtacking.obj
 0001:00001d20       ??0?$basic_string@DU?$char_traits@D@std@@V?$allocator@D@2@@std@@QAE@$$QAV01@@Z 10002d20 f i backtacking.obj
 0001:00001da0       ??0?$basic_string@DU?$char_traits@D@std@@V?$allocator@D@2@@std@@QAE@QBD@Z 10002da0 f i backtacking.obj
 0001:00001e00       ??1?$_String_alloc@U?$_String_base_types@DV?$allocator@D@std@@@std@@@std@@QAE@XZ 10002e00 f i backtacking.obj
 0001:00001e20       ??1?$_Compressed_pair@V?$allocator@D@std@@V?$_String_val@U?$_Simple_types@D@std@@@2@$00@std@@QAE@XZ 10002e20 f i backtacking.obj
 0001:00001e20       ??1?$_Deque_iterator@V?$_Deque_val@U?$_Deque_simple_types@UPlayerRecords@@@std@@@std@@@std@@QAE@XZ 10002e20 f i Aimbot.obj
 0001:00001e40       ??1?$_String_val@U?$_Simple_types@D@std@@@std@@QAE@XZ 10002e40 f i backtacking.obj
 0001:00001e40       ??1?$_Deque_const_iterator@V?$_Deque_val@U?$_Deque_simple_types@UPlayerRecords@@@std@@@std@@@std@@QAE@XZ 10002e40 f i Aimbot.obj
 0001:00001e40       ??1chams@@QAE@XZ           10002e40 f i Hooks.obj
 0001:00001e40       ??1?$_Ref_count_obj@UNode@NetvarTree@@@std@@UAE@XZ 10002e40 f i NetvarManager.obj
 0001:00001e60       ?_Mysize@?$_Deque_alloc@U?$_Deque_base_types@UPlayerRecords@@V?$allocator@UPlayerRecords@@@std@@@std@@@std@@QBEABIXZ 10002e60 f i Aimbot.obj
 0001:00001e60       ?_Mysize@?$_Deque_alloc@U?$_Deque_base_types@Ulc_record@@V?$allocator@Ulc_record@@@std@@@std@@@std@@QAEAAIXZ 10002e60 f i backtacking.obj
 0001:00001e60       ?_Mysize@?$_Deque_alloc@U?$_Deque_base_types@UPlayerRecords@@V?$allocator@UPlayerRecords@@@std@@@std@@@std@@QAEAAIXZ 10002e60 f i Aimbot.obj
 0001:00001e60       ?_Mysize@?$_Deque_alloc@U?$_Deque_base_types@Ulc_record@@V?$allocator@Ulc_record@@@std@@@std@@@std@@QBEABIXZ 10002e60 f i backtacking.obj
 0001:00001e80       ?_Myoff@?$_Deque_alloc@U?$_Deque_base_types@Ulc_record@@V?$allocator@Ulc_record@@@std@@@std@@@std@@QAEAAIXZ 10002e80 f i backtacking.obj
 0001:00001e80       ?_Myoff@?$_Deque_alloc@U?$_Deque_base_types@UPlayerRecords@@V?$allocator@UPlayerRecords@@@std@@@std@@@std@@QAEAAIXZ 10002e80 f i Aimbot.obj
 0001:00001ea0       ?_Myend@?$_Vector_alloc@U?$_Vec_base_types@PBDV?$allocator@PBD@std@@@std@@@std@@QBEABQAPBDXZ 10002ea0 f i Hooks.obj
 0001:00001ea0       ?_Myend@?$_Vector_alloc@U?$_Vec_base_types@PAV?$ConfigValue@_N@@V?$allocator@PAV?$ConfigValue@_N@@@std@@@std@@@std@@QAEAAPAPAV?$ConfigValue@_N@@XZ 10002ea0 f i cfgsaving.obj
 0001:00001ea0       ?_Myend@?$_Vector_alloc@U?$_Vec_base_types@VCMessage@@V?$allocator@VCMessage@@@std@@@std@@@std@@QAEAAPAVCMessage@@XZ 10002ea0 f i Event Logs.obj
 0001:00001ea0       ?_Myend@?$_Vector_alloc@U?$_Vec_base_types@HV?$allocator@H@std@@@std@@@std@@QAEAAPAHXZ 10002ea0 f i Aimbot.obj
 0001:00001ea0       ?_Myend@?$_Vector_alloc@U?$_Vec_base_types@V?$basic_string@DU?$char_traits@D@std@@V?$allocator@D@2@@std@@V?$allocator@V?$basic_string@DU?$char_traits@D@std@@V?$allocator@D@2@@std@@@2@@std@@@std@@QBEABQAV?$basic_string@DU?$char_traits@D@std@@V?$allocator@D@2@@2@XZ 10002ea0 f i Menu.obj
 0001:00001ea0       ?_Myend@?$_Vector_alloc@U?$_Vec_base_types@Vtrace_info@@V?$allocator@Vtrace_info@@@std@@@std@@@std@@QBEABQAVtrace_info@@XZ 10002ea0 f i Hooks.obj
 0001:00001ea0       ?_Myend@?$_Vector_alloc@U?$_Vec_base_types@PAV?$ConfigValue@M@@V?$allocator@PAV?$ConfigValue@M@@@std@@@std@@@std@@QAEAAPAPAV?$ConfigValue@M@@XZ 10002ea0 f i cfgsaving.obj
 0001:00001ea0       ?_Myend@?$_Vector_alloc@U?$_Vec_base_types@V?$_List_unchecked_iterator@V?$_List_val@U?$_List_simple_types@U?$pair@$$CBV?$basic_string@DU?$char_traits@D@std@@V?$allocator@D@2@@std@@V?$shared_ptr@UNode@NetvarTree@@@2@@std@@@std@@@std@@@std@@V?$allocator@V?$_List_unchecked_iterator@V?$_List_val@U?$_List_simple_types@U?$pair@$$CBV?$basic_string@DU?$char_traits@D@std@@V?$allocator@D@2@@std@@V?$shared_ptr@UNode@NetvarTree@@@2@@std@@@std@@@std@@@std@@@2@@std@@@std@@QAEAAPAV?$_List_unchecked_iterator@V?$_List_val@U?$_List_simple_types@U?$pair@$$CBV?$basic_string@DU?$char_traits@D@std@@V?$allocator@D@2@@std@@V?$shared_ptr@UNode@NetvarTree@@@2@@std@@@std@@@std@@@2@XZ 10002ea0 f i backtacking.obj
 0001:00001ea0       ?_Myend@?$_Vector_alloc@U?$_Vec_base_types@HV?$allocator@H@std@@@std@@@std@@QBEABQAHXZ 10002ea0 f i Aimbot.obj
 0001:00001ea0       ?_Myend@?$_Vector_alloc@U?$_Vec_base_types@V?$_List_unchecked_iterator@V?$_List_val@U?$_List_simple_types@U?$pair@$$CBV?$basic_string@DU?$char_traits@D@std@@V?$allocator@D@2@@std@@V?$shared_ptr@UNode@NetvarTree@@@2@@std@@@std@@@std@@@std@@V?$allocator@V?$_List_unchecked_iterator@V?$_List_val@U?$_List_simple_types@U?$pair@$$CBV?$basic_string@DU?$char_traits@D@std@@V?$allocator@D@2@@std@@V?$shared_ptr@UNode@NetvarTree@@@2@@std@@@std@@@std@@@std@@@2@@std@@@std@@QBEABQAV?$_List_unchecked_iterator@V?$_List_val@U?$_List_simple_types@U?$pair@$$CBV?$basic_string@DU?$char_traits@D@std@@V?$allocator@D@2@@std@@V?$shared_ptr@UNode@NetvarTree@@@2@@std@@@std@@@std@@@2@XZ 10002ea0 f i backtacking.obj
 0001:00001ea0       ?_Myend@?$_Vector_alloc@U?$_Vec_base_types@VCMessage@@V?$allocator@VCMessage@@@std@@@std@@@std@@QBEABQAVCMessage@@XZ 10002ea0 f i Event Logs.obj
 0001:00001ea0       ?_Myend@?$_Vector_alloc@U?$_Vec_base_types@Vtrace_info@@V?$allocator@Vtrace_info@@@std@@@std@@@std@@QAEAAPAVtrace_info@@XZ 10002ea0 f i Hooks.obj
 0001:00001ea0       ?_Myend@?$_Vector_alloc@U?$_Vec_base_types@PAVDot@@V?$allocator@PAVDot@@@std@@@std@@@std@@QBEABQAPAVDot@@XZ 10002ea0 f i dots.obj
 0001:00001ea0       ?_Myend@?$_Vector_alloc@U?$_Vec_base_types@PAV?$ConfigValue@H@@V?$allocator@PAV?$ConfigValue@H@@@std@@@std@@@std@@QBEABQAPAV?$ConfigValue@H@@XZ 10002ea0 f i cfgsaving.obj
 0001:00001ea0       ?_Myend@?$_Vector_alloc@U?$_Vec_base_types@PAV?$ConfigValue@_N@@V?$allocator@PAV?$ConfigValue@_N@@@std@@@std@@@std@@QBEABQAPAV?$ConfigValue@_N@@XZ 10002ea0 f i cfgsaving.obj
 0001:00001ea0       ?_Mapsize@?$_Deque_alloc@U?$_Deque_base_types@UPlayerRecords@@V?$allocator@UPlayerRecords@@@std@@@std@@@std@@QAEAAIXZ 10002ea0 f i LagComp.obj
 0001:00001ea0       ?_Mapsize@?$_Deque_alloc@U?$_Deque_base_types@Ulc_record@@V?$allocator@Ulc_record@@@std@@@std@@@std@@QAEAAIXZ 10002ea0 f i backtacking.obj
 0001:00001ea0       ?_Myend@?$_Vector_alloc@U?$_Vec_base_types@V?$basic_string@DU?$char_traits@D@std@@V?$allocator@D@2@@std@@V?$allocator@V?$basic_string@DU?$char_traits@D@std@@V?$allocator@D@2@@std@@@2@@std@@@std@@QAEAAPAV?$basic_string@DU?$char_traits@D@std@@V?$allocator@D@2@@2@XZ 10002ea0 f i Menu.obj
 0001:00001ea0       ?_Myend@?$_Vector_alloc@U?$_Vec_base_types@PAV?$ConfigValue@H@@V?$allocator@PAV?$ConfigValue@H@@@std@@@std@@@std@@QAEAAPAPAV?$ConfigValue@H@@XZ 10002ea0 f i cfgsaving.obj
 0001:00001ea0       ?_Myend@?$_Vector_alloc@U?$_Vec_base_types@PAV?$ConfigValue@M@@V?$allocator@PAV?$ConfigValue@M@@@std@@@std@@@std@@QBEABQAPAV?$ConfigValue@M@@XZ 10002ea0 f i cfgsaving.obj
 0001:00001ea0       ?_Myend@?$_Vector_alloc@U?$_Vec_base_types@PBDV?$allocator@PBD@std@@@std@@@std@@QAEAAPAPBDXZ 10002ea0 f i Hooks.obj
 0001:00001ea0       ?_Myend@?$_Vector_alloc@U?$_Vec_base_types@PAVDot@@V?$allocator@PAVDot@@@std@@@std@@@std@@QAEAAPAPAVDot@@XZ 10002ea0 f i dots.obj
 0001:00001ec0       ?_Mylast@?$_Vector_alloc@U?$_Vec_base_types@PAV?$ConfigValue@H@@V?$allocator@PAV?$ConfigValue@H@@@std@@@std@@@std@@QAEAAPAPAV?$ConfigValue@H@@XZ 10002ec0 f i cfgsaving.obj
 0001:00001ec0       ?_Map@?$_Deque_alloc@U?$_Deque_base_types@Ulc_record@@V?$allocator@Ulc_record@@@std@@@std@@@std@@QAEAAPAPAUlc_record@@XZ 10002ec0 f i backtacking.obj
 0001:00001ec0       ?_Mylast@?$_Vector_alloc@U?$_Vec_base_types@V?$_List_unchecked_iterator@V?$_List_val@U?$_List_simple_types@U?$pair@$$CBV?$basic_string@DU?$char_traits@D@std@@V?$allocator@D@2@@std@@V?$shared_ptr@UNode@NetvarTree@@@2@@std@@@std@@@std@@@std@@V?$allocator@V?$_List_unchecked_iterator@V?$_List_val@U?$_List_simple_types@U?$pair@$$CBV?$basic_string@DU?$char_traits@D@std@@V?$allocator@D@2@@std@@V?$shared_ptr@UNode@NetvarTree@@@2@@std@@@std@@@std@@@std@@@2@@std@@@std@@QAEAAPAV?$_List_unchecked_iterator@V?$_List_val@U?$_List_simple_types@U?$pair@$$CBV?$basic_string@DU?$char_traits@D@std@@V?$allocator@D@2@@std@@V?$shared_ptr@UNode@NetvarTree@@@2@@std@@@std@@@std@@@2@XZ 10002ec0 f i backtacking.obj
 0001:00001ec0       ?_Mylast@?$_Vector_alloc@U?$_Vec_base_types@PBDV?$allocator@PBD@std@@@std@@@std@@QAEAAPAPBDXZ 10002ec0 f i Hooks.obj
 0001:00001ec0       ?_Mylast@?$_Vector_alloc@U?$_Vec_base_types@V?$basic_string@DU?$char_traits@D@std@@V?$allocator@D@2@@std@@V?$allocator@V?$basic_string@DU?$char_traits@D@std@@V?$allocator@D@2@@std@@@2@@std@@@std@@QBEABQAV?$basic_string@DU?$char_traits@D@std@@V?$allocator@D@2@@2@XZ 10002ec0 f i Menu.obj
 0001:00001ec0       ?_Mylast@?$_Vector_alloc@U?$_Vec_base_types@PAV?$ConfigValue@_N@@V?$allocator@PAV?$ConfigValue@_N@@@std@@@std@@@std@@QAEAAPAPAV?$ConfigValue@_N@@XZ 10002ec0 f i cfgsaving.obj
 0001:00001ec0       ?_Mysize@?$_List_alloc@U?$_List_base_types@U?$pair@$$CBV?$basic_string@DU?$char_traits@D@std@@V?$allocator@D@2@@std@@V?$shared_ptr@UNode@NetvarTree@@@2@@std@@V?$allocator@U?$pair@$$CBV?$basic_string@DU?$char_traits@D@std@@V?$allocator@D@2@@std@@V?$shared_ptr@UNode@NetvarTree@@@2@@std@@@2@@std@@@std@@QAEAAIXZ 10002ec0 f i backtacking.obj
 0001:00001ec0       ?_Mylast@?$_Vector_alloc@U?$_Vec_base_types@PAV?$ConfigValue@M@@V?$allocator@PAV?$ConfigValue@M@@@std@@@std@@@std@@QAEAAPAPAV?$ConfigValue@M@@XZ 10002ec0 f i cfgsaving.obj
 0001:00001ec0       ?_Mylast@?$_Vector_alloc@U?$_Vec_base_types@PAV?$ConfigValue@_N@@V?$allocator@PAV?$ConfigValue@_N@@@std@@@std@@@std@@QBEABQAPAV?$ConfigValue@_N@@XZ 10002ec0 f i cfgsaving.obj
 0001:00001ec0       ?_Mysize@?$_List_alloc@U?$_List_base_types@U?$pair@$$CBV?$basic_string@DU?$char_traits@D@std@@V?$allocator@D@2@@std@@V?$shared_ptr@UNode@NetvarTree@@@2@@std@@V?$allocator@U?$pair@$$CBV?$basic_string@DU?$char_traits@D@std@@V?$allocator@D@2@@std@@V?$shared_ptr@UNode@NetvarTree@@@2@@std@@@2@@std@@@std@@QBEABIXZ 10002ec0 f i backtacking.obj
 0001:00001ec0       ?_Mylast@?$_Vector_alloc@U?$_Vec_base_types@HV?$allocator@H@std@@@std@@@std@@QBEABQAHXZ 10002ec0 f i Aimbot.obj
 0001:00001ec0       ?_Mylast@?$_Vector_alloc@U?$_Vec_base_types@PAVDot@@V?$allocator@PAVDot@@@std@@@std@@@std@@QBEABQAPAVDot@@XZ 10002ec0 f i dots.obj
 0001:00001ec0       ?_Mylast@?$_Vector_alloc@U?$_Vec_base_types@V?$_List_unchecked_iterator@V?$_List_val@U?$_List_simple_types@U?$pair@$$CBV?$basic_string@DU?$char_traits@D@std@@V?$allocator@D@2@@std@@V?$shared_ptr@UNode@NetvarTree@@@2@@std@@@std@@@std@@@std@@V?$allocator@V?$_List_unchecked_iterator@V?$_List_val@U?$_List_simple_types@U?$pair@$$CBV?$basic_string@DU?$char_traits@D@std@@V?$allocator@D@2@@std@@V?$shared_ptr@UNode@NetvarTree@@@2@@std@@@std@@@std@@@std@@@2@@std@@@std@@QBEABQAV?$_List_unchecked_iterator@V?$_List_val@U?$_List_simple_types@U?$pair@$$CBV?$basic_string@DU?$char_traits@D@std@@V?$allocator@D@2@@std@@V?$shared_ptr@UNode@NetvarTree@@@2@@std@@@std@@@std@@@2@XZ 10002ec0 f i backtacking.obj
 0001:00001ec0       ?_Mylast@?$_Vector_alloc@U?$_Vec_base_types@Vtrace_info@@V?$allocator@Vtrace_info@@@std@@@std@@@std@@QAEAAPAVtrace_info@@XZ 10002ec0 f i Hooks.obj
 0001:00001ec0       ?_Mylast@?$_Vector_alloc@U?$_Vec_base_types@PAVDot@@V?$allocator@PAVDot@@@std@@@std@@@std@@QAEAAPAPAVDot@@XZ 10002ec0 f i dots.obj
 0001:00001ec0       ?_Mylast@?$_Vector_alloc@U?$_Vec_base_types@V?$basic_string@DU?$char_traits@D@std@@V?$allocator@D@2@@std@@V?$allocator@V?$basic_string@DU?$char_traits@D@std@@V?$allocator@D@2@@std@@@2@@std@@@std@@QAEAAPAV?$basic_string@DU?$char_traits@D@std@@V?$allocator@D@2@@2@XZ 10002ec0 f i Menu.obj
 0001:00001ec0       ?_Mylast@?$_Vector_alloc@U?$_Vec_base_types@VCMessage@@V?$allocator@VCMessage@@@std@@@std@@@std@@QAEAAPAVCMessage@@XZ 10002ec0 f i Event Logs.obj
 0001:00001ec0       ?_Mylast@?$_Vector_alloc@U?$_Vec_base_types@HV?$allocator@H@std@@@std@@@std@@QAEAAPAHXZ 10002ec0 f i Aimbot.obj
 0001:00001ec0       ?_Mylast@?$_Vector_alloc@U?$_Vec_base_types@VCMessage@@V?$allocator@VCMessage@@@std@@@std@@@std@@QBEABQAVCMessage@@XZ 10002ec0 f i Event Logs.obj
 0001:00001ec0       ?_Mylast@?$_Vector_alloc@U?$_Vec_base_types@PAV?$ConfigValue@H@@V?$allocator@PAV?$ConfigValue@H@@@std@@@std@@@std@@QBEABQAPAV?$ConfigValue@H@@XZ 10002ec0 f i cfgsaving.obj
 0001:00001ec0       ?_Map@?$_Deque_alloc@U?$_Deque_base_types@UPlayerRecords@@V?$allocator@UPlayerRecords@@@std@@@std@@@std@@QAEAAPAPAUPlayerRecords@@XZ 10002ec0 f i LagComp.obj
 0001:00001ec0       ?_Mylast@?$_Vector_alloc@U?$_Vec_base_types@Vtrace_info@@V?$allocator@Vtrace_info@@@std@@@std@@@std@@QBEABQAVtrace_info@@XZ 10002ec0 f i Hooks.obj
 0001:00001ec0       ?_Mylast@?$_Vector_alloc@U?$_Vec_base_types@PAV?$ConfigValue@M@@V?$allocator@PAV?$ConfigValue@M@@@std@@@std@@@std@@QBEABQAPAV?$ConfigValue@M@@XZ 10002ec0 f i cfgsaving.obj
 0001:00001ee0       ?_Myptr@?$_Unique_ptr_base@VShadowVTManager@@U?$default_delete@VShadowVTManager@@@std@@@std@@QBEABQAVShadowVTManager@@XZ 10002ee0 f i Hooks.obj
 0001:00001ee0       ?_Getal@?$_String_alloc@U?$_String_base_types@DV?$allocator@D@std@@@std@@@std@@QAEAAV?$allocator@D@2@XZ 10002ee0 f i backtacking.obj
 0001:00001ee0       ?_Myptr@?$_Unique_ptr_base@VVMTHook@@U?$default_delete@VVMTHook@@@std@@@std@@QBEABQAVVMTHook@@XZ 10002ee0 f i Hooks.obj
 0001:00001ee0       ?_Getal@?$_Vector_alloc@U?$_Vec_base_types@VCMessage@@V?$allocator@VCMessage@@@std@@@std@@@std@@QAEAAV?$allocator@VCMessage@@@2@XZ 10002ee0 f i Event Logs.obj
 0001:00001ee0       ?_Getal@?$_Vector_alloc@U?$_Vec_base_types@PAV?$ConfigValue@M@@V?$allocator@PAV?$ConfigValue@M@@@std@@@std@@@std@@QBEABV?$allocator@PAV?$ConfigValue@M@@@2@XZ 10002ee0 f i cfgsaving.obj
 0001:00001ee0       ?_Get_data@?$_Vector_alloc@U?$_Vec_base_types@PAV?$ConfigValue@M@@V?$allocator@PAV?$ConfigValue@M@@@std@@@std@@@std@@QBEABV?$_Vector_val@U?$_Simple_types@PAV?$ConfigValue@M@@@std@@@2@XZ 10002ee0 f i cfgsaving.obj
 0001:00001ee0       ?_Getal@?$_Vector_alloc@U?$_Vec_base_types@PBDV?$allocator@PBD@std@@@std@@@std@@QBEABV?$allocator@PBD@2@XZ 10002ee0 f i Hooks.obj
 0001:00001ee0       ?_Myptr@?$_Unique_ptr_base@VNetvarTree@@U?$default_delete@VNetvarTree@@@std@@@std@@QBEABQAVNetvarTree@@XZ 10002ee0 f i backtacking.obj
 0001:00001ee0       ?_Myptr@?$_Unique_ptr_base@VNetvarTree@@U?$default_delete@VNetvarTree@@@std@@@std@@QAEAAPAVNetvarTree@@XZ 10002ee0 f i Hooks.obj
 0001:00001ee0       ?_Get_data@?$_Vector_alloc@U?$_Vec_base_types@V?$_List_unchecked_iterator@V?$_List_val@U?$_List_simple_types@U?$pair@$$CBV?$basic_string@DU?$char_traits@D@std@@V?$allocator@D@2@@std@@V?$shared_ptr@UNode@NetvarTree@@@2@@std@@@std@@@std@@@std@@V?$allocator@V?$_List_unchecked_iterator@V?$_List_val@U?$_List_simple_types@U?$pair@$$CBV?$basic_string@DU?$char_traits@D@std@@V?$allocator@D@2@@std@@V?$shared_ptr@UNode@NetvarTree@@@2@@std@@@std@@@std@@@std@@@2@@std@@@std@@QBEABV?$_Vector_val@U?$_Simple_types@V?$_List_unchecked_iterator@V?$_List_val@U?$_List_simple_types@U?$pair@$$CBV?$basic_string@DU?$char_traits@D@std@@V?$allocator@D@2@@std@@V?$shared_ptr@UNode@NetvarTree@@@2@@std@@@std@@@std@@@std@@@std@@@2@XZ 10002ee0 f i backtacking.obj
 0001:00001ee0       ?get_deleter@?$_Unique_ptr_base@VShadowVTManager@@U?$default_delete@VShadowVTManager@@@std@@@std@@QAEAAU?$default_delete@VShadowVTManager@@@2@XZ 10002ee0 f i Hooks.obj
 0001:00001ee0       ?_Get_data@?$_Vector_alloc@U?$_Vec_base_types@PAV?$ConfigValue@H@@V?$allocator@PAV?$ConfigValue@H@@@std@@@std@@@std@@QAEAAV?$_Vector_val@U?$_Simple_types@PAV?$ConfigValue@H@@@std@@@2@XZ 10002ee0 f i cfgsaving.obj
 0001:00001ee0       ?_Getal@?$_Vector_alloc@U?$_Vec_base_types@VCMessage@@V?$allocator@VCMessage@@@std@@@std@@@std@@QBEABV?$allocator@VCMessage@@@2@XZ 10002ee0 f i Event Logs.obj
 0001:00001ee0       ?_Get_data@?$_Vector_alloc@U?$_Vec_base_types@Vtrace_info@@V?$allocator@Vtrace_info@@@std@@@std@@@std@@QBEABV?$_Vector_val@U?$_Simple_types@Vtrace_info@@@std@@@2@XZ 10002ee0 f i Hooks.obj
 0001:00001ee0       ?_Get_data@?$_Deque_alloc@U?$_Deque_base_types@Ulc_record@@V?$allocator@Ulc_record@@@std@@@std@@@std@@QAEAAV?$_Deque_val@U?$_Deque_simple_types@Ulc_record@@@std@@@2@XZ 10002ee0 f i backtacking.obj
 0001:00001ee0       ?_Get_data@?$_Vector_alloc@U?$_Vec_base_types@V?$basic_string@DU?$char_traits@D@std@@V?$allocator@D@2@@std@@V?$allocator@V?$basic_string@DU?$char_traits@D@std@@V?$allocator@D@2@@std@@@2@@std@@@std@@QAEAAV?$_Vector_val@U?$_Simple_types@V?$basic_string@DU?$char_traits@D@std@@V?$allocator@D@2@@std@@@std@@@2@XZ 10002ee0 f i Menu.obj
 0001:00001ee0       ?_Get_data@?$_Deque_alloc@U?$_Deque_base_types@UPlayerRecords@@V?$allocator@UPlayerRecords@@@std@@@std@@@std@@QAEAAV?$_Deque_val@U?$_Deque_simple_types@UPlayerRecords@@@std@@@2@XZ 10002ee0 f i Aimbot.obj
 0001:00001ee0       ?_Get_data@?$_Deque_alloc@U?$_Deque_base_types@Ulc_record@@V?$allocator@Ulc_record@@@std@@@std@@@std@@QBEABV?$_Deque_val@U?$_Deque_simple_types@Ulc_record@@@std@@@2@XZ 10002ee0 f i backtacking.obj
 0001:00001ee0       ?_Myptr@?$_Unique_ptr_base@VVMTHook@@U?$default_delete@VVMTHook@@@std@@@std@@QAEAAPAVVMTHook@@XZ 10002ee0 f i Hooks.obj
 0001:00001ee0       ?_Getal@?$_Vector_alloc@U?$_Vec_base_types@V?$_List_unchecked_iterator@V?$_List_val@U?$_List_simple_types@U?$pair@$$CBV?$basic_string@DU?$char_traits@D@std@@V?$allocator@D@2@@std@@V?$shared_ptr@UNode@NetvarTree@@@2@@std@@@std@@@std@@@std@@V?$allocator@V?$_List_unchecked_iterator@V?$_List_val@U?$_List_simple_types@U?$pair@$$CBV?$basic_string@DU?$char_traits@D@std@@V?$allocator@D@2@@std@@V?$shared_ptr@UNode@NetvarTree@@@2@@std@@@std@@@std@@@std@@@2@@std@@@std@@QAEAAV?$allocator@V?$_List_unchecked_iterator@V?$_List_val@U?$_List_simple_types@U?$pair@$$CBV?$basic_string@DU?$char_traits@D@std@@V?$allocator@D@2@@std@@V?$shared_ptr@UNode@NetvarTree@@@2@@std@@@std@@@std@@@std@@@2@XZ 10002ee0 f i backtacking.obj
 0001:00001ee0       ?_Getal@?$_List_alloc@U?$_List_base_types@U?$pair@$$CBV?$basic_string@DU?$char_traits@D@std@@V?$allocator@D@2@@std@@V?$shared_ptr@UNode@NetvarTree@@@2@@std@@V?$allocator@U?$pair@$$CBV?$basic_string@DU?$char_traits@D@std@@V?$allocator@D@2@@std@@V?$shared_ptr@UNode@NetvarTree@@@2@@std@@@2@@std@@@std@@QAEAAV?$allocator@U?$_List_node@U?$pair@$$CBV?$basic_string@DU?$char_traits@D@std@@V?$allocator@D@2@@std@@V?$shared_ptr@UNode@NetvarTree@@@2@@std@@PAX@std@@@2@XZ 10002ee0 f i backtacking.obj
 0001:00001ee0       ?_Get_data@?$_Vector_alloc@U?$_Vec_base_types@PAVDot@@V?$allocator@PAVDot@@@std@@@std@@@std@@QAEAAV?$_Vector_val@U?$_Simple_types@PAVDot@@@std@@@2@XZ 10002ee0 f i dots.obj
 0001:00001ee0       ?_Get_data@?$_Vector_alloc@U?$_Vec_base_types@PAV?$ConfigValue@_N@@V?$allocator@PAV?$ConfigValue@_N@@@std@@@std@@@std@@QAEAAV?$_Vector_val@U?$_Simple_types@PAV?$ConfigValue@_N@@@std@@@2@XZ 10002ee0 f i cfgsaving.obj
 0001:00001ee0       ?_Getal@?$_Vector_alloc@U?$_Vec_base_types@V?$basic_string@DU?$char_traits@D@std@@V?$allocator@D@2@@std@@V?$allocator@V?$basic_string@DU?$char_traits@D@std@@V?$allocator@D@2@@std@@@2@@std@@@std@@QAEAAV?$allocator@V?$basic_string@DU?$char_traits@D@std@@V?$allocator@D@2@@std@@@2@XZ 10002ee0 f i Menu.obj
 0001:00001ee0       ?get_deleter@?$_Unique_ptr_base@VNetvarTree@@U?$default_delete@VNetvarTree@@@std@@@std@@QAEAAU?$default_delete@VNetvarTree@@@2@XZ 10002ee0 f i Hooks.obj
 0001:00001ee0       ?get_deleter@?$_Unique_ptr_base@VVMTHook@@U?$default_delete@VVMTHook@@@std@@@std@@QAEAAU?$default_delete@VVMTHook@@@2@XZ 10002ee0 f i Hooks.obj
 0001:00001ee0       ?_Getal@?$_Vector_alloc@U?$_Vec_base_types@PAV?$ConfigValue@H@@V?$allocator@PAV?$ConfigValue@H@@@std@@@std@@@std@@QBEABV?$allocator@PAV?$ConfigValue@H@@@2@XZ 10002ee0 f i cfgsaving.obj
 0001:00001ee0       ?_Getal@?$_Vector_alloc@U?$_Vec_base_types@HV?$allocator@H@std@@@std@@@std@@QAEAAV?$allocator@H@2@XZ 10002ee0 f i Aimbot.obj
 0001:00001ee0       ?_Getal@?$_Vector_alloc@U?$_Vec_base_types@HV?$allocator@H@std@@@std@@@std@@QBEABV?$allocator@H@2@XZ 10002ee0 f i Aimbot.obj
 0001:00001ee0       ?_Get_data@?$_Vector_alloc@U?$_Vec_base_types@VCMessage@@V?$allocator@VCMessage@@@std@@@std@@@std@@QBEABV?$_Vector_val@U?$_Simple_types@VCMessage@@@std@@@2@XZ 10002ee0 f i Event Logs.obj
 0001:00001ee0       ?_Getal@?$_Vector_alloc@U?$_Vec_base_types@V?$_List_unchecked_iterator@V?$_List_val@U?$_List_simple_types@U?$pair@$$CBV?$basic_string@DU?$char_traits@D@std@@V?$allocator@D@2@@std@@V?$shared_ptr@UNode@NetvarTree@@@2@@std@@@std@@@std@@@std@@V?$allocator@V?$_List_unchecked_iterator@V?$_List_val@U?$_List_simple_types@U?$pair@$$CBV?$basic_string@DU?$char_traits@D@std@@V?$allocator@D@2@@std@@V?$shared_ptr@UNode@NetvarTree@@@2@@std@@@std@@@std@@@std@@@2@@std@@@std@@QBEABV?$allocator@V?$_List_unchecked_iterator@V?$_List_val@U?$_List_simple_types@U?$pair@$$CBV?$basic_string@DU?$char_traits@D@std@@V?$allocator@D@2@@std@@V?$shared_ptr@UNode@NetvarTree@@@2@@std@@@std@@@std@@@std@@@2@XZ 10002ee0 f i backtacking.obj
 0001:00001ee0       ?_Get_data@?$_Vector_alloc@U?$_Vec_base_types@HV?$allocator@H@std@@@std@@@std@@QBEABV?$_Vector_val@U?$_Simple_types@H@std@@@2@XZ 10002ee0 f i Aimbot.obj
 0001:00001ee0       ?_Get_data@?$_Vector_alloc@U?$_Vec_base_types@PAV?$ConfigValue@M@@V?$allocator@PAV?$ConfigValue@M@@@std@@@std@@@std@@QAEAAV?$_Vector_val@U?$_Simple_types@PAV?$ConfigValue@M@@@std@@@2@XZ 10002ee0 f i cfgsaving.obj
 0001:00001ee0       ?_Getal@?$_Vector_alloc@U?$_Vec_base_types@Vtrace_info@@V?$allocator@Vtrace_info@@@std@@@std@@@std@@QAEAAV?$allocator@Vtrace_info@@@2@XZ 10002ee0 f i Hooks.obj
 0001:00001ee0       ?_Getal@?$_Vector_alloc@U?$_Vec_base_types@PAVDot@@V?$allocator@PAVDot@@@std@@@std@@@std@@QAEAAV?$allocator@PAVDot@@@2@XZ 10002ee0 f i dots.obj
 0001:00001ee0       ?_Get_data@?$_String_alloc@U?$_String_base_types@DV?$allocator@D@std@@@std@@@std@@QBEABV?$_String_val@U?$_Simple_types@D@std@@@2@XZ 10002ee0 f i backtacking.obj
 0001:00001ee0       ?_Get_data@?$_List_alloc@U?$_List_base_types@U?$pair@$$CBV?$basic_string@DU?$char_traits@D@std@@V?$allocator@D@2@@std@@V?$shared_ptr@UNode@NetvarTree@@@2@@std@@V?$allocator@U?$pair@$$CBV?$basic_string@DU?$char_traits@D@std@@V?$allocator@D@2@@std@@V?$shared_ptr@UNode@NetvarTree@@@2@@std@@@2@@std@@@std@@QBEABV?$_List_val@U?$_List_simple_types@U?$pair@$$CBV?$basic_string@DU?$char_traits@D@std@@V?$allocator@D@2@@std@@V?$shared_ptr@UNode@NetvarTree@@@2@@std@@@std@@@2@XZ 10002ee0 f i backtacking.obj
 0001:00001ee0       ?_Get_data@?$_Vector_alloc@U?$_Vec_base_types@PAV?$ConfigValue@_N@@V?$allocator@PAV?$ConfigValue@_N@@@std@@@std@@@std@@QBEABV?$_Vector_val@U?$_Simple_types@PAV?$ConfigValue@_N@@@std@@@2@XZ 10002ee0 f i cfgsaving.obj
 0001:00001ee0       ?_Getal@?$_Vector_alloc@U?$_Vec_base_types@PAV?$ConfigValue@_N@@V?$allocator@PAV?$ConfigValue@_N@@@std@@@std@@@std@@QBEABV?$allocator@PAV?$ConfigValue@_N@@@2@XZ 10002ee0 f i cfgsaving.obj
 0001:00001ee0       ?_Getal@?$_Deque_alloc@U?$_Deque_base_types@UPlayerRecords@@V?$allocator@UPlayerRecords@@@std@@@std@@@std@@QBEABV?$allocator@UPlayerRecords@@@2@XZ 10002ee0 f i LagComp.obj
 0001:00001ee0       ?get_deleter@?$_Unique_ptr_base@IU?$default_delete@$$BY0A@I@std@@@std@@QAEAAU?$default_delete@$$BY0A@I@2@XZ 10002ee0 f i Hooks.obj
 0001:00001ee0       ?_Get_data@?$_String_alloc@U?$_String_base_types@DV?$allocator@D@std@@@std@@@std@@QAEAAV?$_String_val@U?$_Simple_types@D@std@@@2@XZ 10002ee0 f i backtacking.obj
 0001:00001ee0       ?_Getal@?$_Vector_alloc@U?$_Vec_base_types@PAV?$ConfigValue@_N@@V?$allocator@PAV?$ConfigValue@_N@@@std@@@std@@@std@@QAEAAV?$allocator@PAV?$ConfigValue@_N@@@2@XZ 10002ee0 f i cfgsaving.obj
 0001:00001ee0       ?_Get_data@?$_Deque_alloc@U?$_Deque_base_types@UPlayerRecords@@V?$allocator@UPlayerRecords@@@std@@@std@@@std@@QBEABV?$_Deque_val@U?$_Deque_simple_types@UPlayerRecords@@@std@@@2@XZ 10002ee0 f i Aimbot.obj
 0001:00001ee0       ?_Getal@?$_Vector_alloc@U?$_Vec_base_types@PAVDot@@V?$allocator@PAVDot@@@std@@@std@@@std@@QBEABV?$allocator@PAVDot@@@2@XZ 10002ee0 f i dots.obj
 0001:00001ee0       ?_Getal@?$_Vector_alloc@U?$_Vec_base_types@PAV?$ConfigValue@H@@V?$allocator@PAV?$ConfigValue@H@@@std@@@std@@@std@@QAEAAV?$allocator@PAV?$ConfigValue@H@@@2@XZ 10002ee0 f i cfgsaving.obj
 0001:00001ee0       ?_Getal@?$_Deque_alloc@U?$_Deque_base_types@Ulc_record@@V?$allocator@Ulc_record@@@std@@@std@@@std@@QAEAAV?$allocator@Ulc_record@@@2@XZ 10002ee0 f i backtacking.obj
 0001:00001ee0       ?_Get_data@?$_Vector_alloc@U?$_Vec_base_types@HV?$allocator@H@std@@@std@@@std@@QAEAAV?$_Vector_val@U?$_Simple_types@H@std@@@2@XZ 10002ee0 f i Aimbot.obj
 0001:00001ee0       ?_Get_data@?$_Vector_alloc@U?$_Vec_base_types@Vtrace_info@@V?$allocator@Vtrace_info@@@std@@@std@@@std@@QAEAAV?$_Vector_val@U?$_Simple_types@Vtrace_info@@@std@@@2@XZ 10002ee0 f i Hooks.obj
 0001:00001ee0       ?_Get_data@?$_Vector_alloc@U?$_Vec_base_types@VCMessage@@V?$allocator@VCMessage@@@std@@@std@@@std@@QAEAAV?$_Vector_val@U?$_Simple_types@VCMessage@@@std@@@2@XZ 10002ee0 f i Event Logs.obj
 0001:00001ee0       ?_Get_data@?$_Vector_alloc@U?$_Vec_base_types@PBDV?$allocator@PBD@std@@@std@@@std@@QAEAAV?$_Vector_val@U?$_Simple_types@PBD@std@@@2@XZ 10002ee0 f i Hooks.obj
 0001:00001ee0       ?_Myptr@?$_Unique_ptr_base@IU?$default_delete@$$BY0A@I@std@@@std@@QBEABQAIXZ 10002ee0 f i Hooks.obj
 0001:00001ee0       ?_Getal@?$_Vector_alloc@U?$_Vec_base_types@Vtrace_info@@V?$allocator@Vtrace_info@@@std@@@std@@@std@@QBEABV?$allocator@Vtrace_info@@@2@XZ 10002ee0 f i Hooks.obj
 0001:00001ee0       ?_Get_data@?$_Vector_alloc@U?$_Vec_base_types@PAVDot@@V?$allocator@PAVDot@@@std@@@std@@@std@@QBEABV?$_Vector_val@U?$_Simple_types@PAVDot@@@std@@@2@XZ 10002ee0 f i dots.obj
 0001:00001ee0       ?_Getal@?$_String_alloc@U?$_String_base_types@DV?$allocator@D@std@@@std@@@std@@QBEABV?$allocator@D@2@XZ 10002ee0 f i backtacking.obj
 0001:00001ee0       ?_Myptr@?$_Unique_ptr_base@IU?$default_delete@$$BY0A@I@std@@@std@@QAEAAPAIXZ 10002ee0 f i Hooks.obj
 0001:00001ee0       ?_Getal@?$_List_alloc@U?$_List_base_types@U?$pair@$$CBV?$basic_string@DU?$char_traits@D@std@@V?$allocator@D@2@@std@@V?$shared_ptr@UNode@NetvarTree@@@2@@std@@V?$allocator@U?$pair@$$CBV?$basic_string@DU?$char_traits@D@std@@V?$allocator@D@2@@std@@V?$shared_ptr@UNode@NetvarTree@@@2@@std@@@2@@std@@@std@@QBEABV?$allocator@U?$_List_node@U?$pair@$$CBV?$basic_string@DU?$char_traits@D@std@@V?$allocator@D@2@@std@@V?$shared_ptr@UNode@NetvarTree@@@2@@std@@PAX@std@@@2@XZ 10002ee0 f i backtacking.obj
 0001:00001ee0       ?_Get_data@?$_Vector_alloc@U?$_Vec_base_types@V?$_List_unchecked_iterator@V?$_List_val@U?$_List_simple_types@U?$pair@$$CBV?$basic_string@DU?$char_traits@D@std@@V?$allocator@D@2@@std@@V?$shared_ptr@UNode@NetvarTree@@@2@@std@@@std@@@std@@@std@@V?$allocator@V?$_List_unchecked_iterator@V?$_List_val@U?$_List_simple_types@U?$pair@$$CBV?$basic_string@DU?$char_traits@D@std@@V?$allocator@D@2@@std@@V?$shared_ptr@UNode@NetvarTree@@@2@@std@@@std@@@std@@@std@@@2@@std@@@std@@QAEAAV?$_Vector_val@U?$_Simple_types@V?$_List_unchecked_iterator@V?$_List_val@U?$_List_simple_types@U?$pair@$$CBV?$basic_string@DU?$char_traits@D@std@@V?$allocator@D@2@@std@@V?$shared_ptr@UNode@NetvarTree@@@2@@std@@@std@@@std@@@std@@@std@@@2@XZ 10002ee0 f i backtacking.obj
 0001:00001ee0       ?_Get_data@?$_Vector_alloc@U?$_Vec_base_types@PAV?$ConfigValue@H@@V?$allocator@PAV?$ConfigValue@H@@@std@@@std@@@std@@QBEABV?$_Vector_val@U?$_Simple_types@PAV?$ConfigValue@H@@@std@@@2@XZ 10002ee0 f i cfgsaving.obj
 0001:00001ee0       ?_Getal@?$_Deque_alloc@U?$_Deque_base_types@UPlayerRecords@@V?$allocator@UPlayerRecords@@@std@@@std@@@std@@QAEAAV?$allocator@UPlayerRecords@@@2@XZ 10002ee0 f i LagComp.obj
 0001:00001ee0       ?_Get_data@?$_Vector_alloc@U?$_Vec_base_types@V?$basic_string@DU?$char_traits@D@std@@V?$allocator@D@2@@std@@V?$allocator@V?$basic_string@DU?$char_traits@D@std@@V?$allocator@D@2@@std@@@2@@std@@@std@@QBEABV?$_Vector_val@U?$_Simple_types@V?$basic_string@DU?$char_traits@D@std@@V?$allocator@D@2@@std@@@std@@@2@XZ 10002ee0 f i Menu.obj
 0001:00001ee0       ?_Get_data@?$_Vector_alloc@U?$_Vec_base_types@PBDV?$allocator@PBD@std@@@std@@@std@@QBEABV?$_Vector_val@U?$_Simple_types@PBD@std@@@2@XZ 10002ee0 f i Hooks.obj
 0001:00001ee0       ?_Get_data@?$_List_alloc@U?$_List_base_types@U?$pair@$$CBV?$basic_string@DU?$char_traits@D@std@@V?$allocator@D@2@@std@@V?$shared_ptr@UNode@NetvarTree@@@2@@std@@V?$allocator@U?$pair@$$CBV?$basic_string@DU?$char_traits@D@std@@V?$allocator@D@2@@std@@V?$shared_ptr@UNode@NetvarTree@@@2@@std@@@2@@std@@@std@@QAEAAV?$_List_val@U?$_List_simple_types@U?$pair@$$CBV?$basic_string@DU?$char_traits@D@std@@V?$allocator@D@2@@std@@V?$shared_ptr@UNode@NetvarTree@@@2@@std@@@std@@@2@XZ 10002ee0 f i backtacking.obj
 0001:00001ee0       ?_Getal@?$_Deque_alloc@U?$_Deque_base_types@Ulc_record@@V?$allocator@Ulc_record@@@std@@@std@@@std@@QBEABV?$allocator@Ulc_record@@@2@XZ 10002ee0 f i backtacking.obj
 0001:00001ee0       ?_Getal@?$_Vector_alloc@U?$_Vec_base_types@V?$basic_string@DU?$char_traits@D@std@@V?$allocator@D@2@@std@@V?$allocator@V?$basic_string@DU?$char_traits@D@std@@V?$allocator@D@2@@std@@@2@@std@@@std@@QBEABV?$allocator@V?$basic_string@DU?$char_traits@D@std@@V?$allocator@D@2@@std@@@2@XZ 10002ee0 f i Menu.obj
 0001:00001ee0       ?_Gethash@?$_Uhash_compare@V?$basic_string@DU?$char_traits@D@std@@V?$allocator@D@2@@std@@U?$hash@V?$basic_string@DU?$char_traits@D@std@@V?$allocator@D@2@@std@@@2@U?$equal_to@V?$basic_string@DU?$char_traits@D@std@@V?$allocator@D@2@@std@@@2@@std@@QBEABU?$hash@V?$basic_string@DU?$char_traits@D@std@@V?$allocator@D@2@@std@@@2@XZ 10002ee0 f i backtacking.obj
 0001:00001ee0       ?_Getal@?$_Vector_alloc@U?$_Vec_base_types@PBDV?$allocator@PBD@std@@@std@@@std@@QAEAAV?$allocator@PBD@2@XZ 10002ee0 f i Hooks.obj
 0001:00001ee0       ?_Getal@?$_Vector_alloc@U?$_Vec_base_types@PAV?$ConfigValue@M@@V?$allocator@PAV?$ConfigValue@M@@@std@@@std@@@std@@QAEAAV?$allocator@PAV?$ConfigValue@M@@@2@XZ 10002ee0 f i cfgsaving.obj
 0001:00001f00       ?_Orphan_all@?$_Vector_alloc@U?$_Vec_base_types@VCMessage@@V?$allocator@VCMessage@@@std@@@std@@@std@@QAEXXZ 10002f00 f i Event Logs.obj
 0001:00001f00       ?_Orphan_all@?$_Deque_alloc@U?$_Deque_base_types@Ulc_record@@V?$allocator@Ulc_record@@@std@@@std@@@std@@QAEXXZ 10002f00 f i backtacking.obj
 0001:00001f00       ?_Orphan_all@?$_Vector_alloc@U?$_Vec_base_types@Vtrace_info@@V?$allocator@Vtrace_info@@@std@@@std@@@std@@QAEXXZ 10002f00 f i Hooks.obj
 0001:00001f00       ?_Orphan_all@?$_Deque_alloc@U?$_Deque_base_types@UPlayerRecords@@V?$allocator@UPlayerRecords@@@std@@@std@@@std@@QAEXXZ 10002f00 f i LagComp.obj
 0001:00001f00       ?_Orphan_all@?$_Vector_alloc@U?$_Vec_base_types@V?$basic_string@DU?$char_traits@D@std@@V?$allocator@D@2@@std@@V?$allocator@V?$basic_string@DU?$char_traits@D@std@@V?$allocator@D@2@@std@@@2@@std@@@std@@QAEXXZ 10002f00 f i Menu.obj
 0001:00001f00       ?_Orphan_all@?$_Vector_alloc@U?$_Vec_base_types@PAV?$ConfigValue@M@@V?$allocator@PAV?$ConfigValue@M@@@std@@@std@@@std@@QAEXXZ 10002f00 f i cfgsaving.obj
 0001:00001f00       ?_Orphan_all@?$_Vector_alloc@U?$_Vec_base_types@PBDV?$allocator@PBD@std@@@std@@@std@@QAEXXZ 10002f00 f i Hooks.obj
 0001:00001f00       ?_Orphan_all@?$_Vector_alloc@U?$_Vec_base_types@V?$_List_unchecked_iterator@V?$_List_val@U?$_List_simple_types@U?$pair@$$CBV?$basic_string@DU?$char_traits@D@std@@V?$allocator@D@2@@std@@V?$shared_ptr@UNode@NetvarTree@@@2@@std@@@std@@@std@@@std@@V?$allocator@V?$_List_unchecked_iterator@V?$_List_val@U?$_List_simple_types@U?$pair@$$CBV?$basic_string@DU?$char_traits@D@std@@V?$allocator@D@2@@std@@V?$shared_ptr@UNode@NetvarTree@@@2@@std@@@std@@@std@@@std@@@2@@std@@@std@@QAEXXZ 10002f00 f i backtacking.obj
 0001:00001f00       ?_Orphan_all@?$_String_alloc@U?$_String_base_types@DV?$allocator@D@std@@@std@@@std@@QAEXXZ 10002f00 f i backtacking.obj
 0001:00001f00       ?_Orphan_all@?$_Vector_alloc@U?$_Vec_base_types@PAVDot@@V?$allocator@PAVDot@@@std@@@std@@@std@@QAEXXZ 10002f00 f i dots.obj
 0001:00001f00       ?_Orphan_all@?$_Vector_alloc@U?$_Vec_base_types@PAV?$ConfigValue@H@@V?$allocator@PAV?$ConfigValue@H@@@std@@@std@@@std@@QAEXXZ 10002f00 f i cfgsaving.obj
 0001:00001f00       ?_Orphan_all@?$_Vector_alloc@U?$_Vec_base_types@HV?$allocator@H@std@@@std@@@std@@QAEXXZ 10002f00 f i Aimbot.obj
 0001:00001f00       ?_Orphan_all@?$_Vector_alloc@U?$_Vec_base_types@PAV?$ConfigValue@_N@@V?$allocator@PAV?$ConfigValue@_N@@@std@@@std@@@std@@QAEXXZ 10002f00 f i cfgsaving.obj
 0001:00001f20       ??1?$_Deque_alloc@U?$_Deque_base_types@Ulc_record@@V?$allocator@Ulc_record@@@std@@@std@@@std@@QAE@XZ 10002f20 f i backtacking.obj
 0001:00001f20       ??1?$_Deque_alloc@U?$_Deque_base_types@UPlayerRecords@@V?$allocator@UPlayerRecords@@@std@@@std@@@std@@QAE@XZ 10002f20 f i LagComp.obj
 0001:00001f60       ??0?$_Deque_alloc@U?$_Deque_base_types@UPlayerRecords@@V?$allocator@UPlayerRecords@@@std@@@std@@@std@@QAE@XZ 10002f60 f i LagComp.obj
 0001:00001f60       ??0?$_Deque_alloc@U?$_Deque_base_types@Ulc_record@@V?$allocator@Ulc_record@@@std@@@std@@@std@@QAE@XZ 10002f60 f i backtacking.obj
 0001:00001f90       ?_Getblock@?$_Deque_alloc@U?$_Deque_base_types@UPlayerRecords@@V?$allocator@UPlayerRecords@@@std@@@std@@@std@@QBEII@Z 10002f90 f i LagComp.obj
 0001:00001f90       ?_Getblock@?$_Deque_alloc@U?$_Deque_base_types@Ulc_record@@V?$allocator@Ulc_record@@@std@@@std@@@std@@QBEII@Z 10002f90 f i backtacking.obj
 0001:00001fc0       ?_Tidy@?$deque@Ulc_record@@V?$allocator@Ulc_record@@@std@@@std@@IAEXXZ 10002fc0 f i backtacking.obj
 0001:000020d0       ?_Growmap@?$deque@Ulc_record@@V?$allocator@Ulc_record@@@std@@@std@@IAEXI@Z 100030d0 f i backtacking.obj
 0001:00002380       ?allocate@?$allocator@Vtrace_info@@@std@@QAEPAVtrace_info@@I@Z 10003380 f i Hooks.obj
 0001:00002380       ?allocate@?$allocator@Ulc_record@@@std@@QAEPAUlc_record@@I@Z 10003380 f i backtacking.obj
 0001:000023b0       ??$_Max_value@I@std@@YAABIABI0@Z 100033b0 f i backtacking.obj
 0001:000023e0       ??C?$_List_iterator@V?$_List_val@U?$_List_simple_types@U?$pair@$$CBV?$basic_string@DU?$char_traits@D@std@@V?$allocator@D@2@@std@@V?$shared_ptr@UNode@NetvarTree@@@2@@std@@@std@@@std@@@std@@QBEPAU?$pair@$$CBV?$basic_string@DU?$char_traits@D@std@@V?$allocator@D@2@@std@@V?$shared_ptr@UNode@NetvarTree@@@2@@1@XZ 100033e0 f i backtacking.obj
 0001:00002400       ?_Large_string_engaged@?$_String_val@U?$_Simple_types@D@std@@@std@@QBE_NXZ 10003400 f i backtacking.obj
 0001:00002430       ?_Myptr@?$_String_val@U?$_Simple_types@D@std@@@std@@QAEPADXZ 10003430 f i backtacking.obj
 0001:00002430       ?_Myptr@?$_String_val@U?$_Simple_types@D@std@@@std@@QBEPBDXZ 10003430 f i backtacking.obj
 0001:00002470       ??0?$_String_alloc@U?$_String_base_types@DV?$allocator@D@std@@@std@@@std@@QAE@XZ 10003470 f i backtacking.obj
 0001:000024a0       ?_Tidy_deallocate@?$basic_string@DU?$char_traits@D@std@@V?$allocator@D@2@@std@@QAEXXZ 100034a0 f i backtacking.obj
 0001:00002550       ?_Tidy_init@?$basic_string@DU?$char_traits@D@std@@V?$allocator@D@2@@std@@QAEXXZ 10003550 f i backtacking.obj
 0001:000025a0       ?max_size@?$basic_string@DU?$char_traits@D@std@@V?$allocator@D@2@@std@@QBEIXZ 100035a0 f i backtacking.obj
 0001:00002600       ?size@?$basic_string@DU?$char_traits@D@std@@V?$allocator@D@2@@std@@QBEIXZ 10003600 f i backtacking.obj
 0001:00002620       ?assign@?$basic_string@DU?$char_traits@D@std@@V?$allocator@D@2@@std@@QAEAAV12@QBD@Z 10003620 f i backtacking.obj
 0001:00002650       ?assign@?$basic_string@DU?$char_traits@D@std@@V?$allocator@D@2@@std@@QAEAAV12@QBDI@Z 10003650 f i backtacking.obj
 0001:000026e0       ??R<lambda_9366063389c5f42a00a5088cf24e69de>@@QBEXQADIQBD@Z 100036e0 f i backtacking.obj
 0001:00002720       ?_Assign_rv_contents_with_alloc_always_equal@?$basic_string@DU?$char_traits@D@std@@V?$allocator@D@2@@std@@QAEX$$QAV12@U?$integral_constant@_N$00@2@@Z 10003720 f i backtacking.obj
 0001:000027b0       ?allocate@?$allocator@D@std@@QAEPADI@Z 100037b0 f i backtacking.obj
 0001:000027e0       ?deallocate@?$allocator@D@std@@QAEXQADI@Z 100037e0 f i backtacking.obj
 0001:00002800       ?pointer_to@?$pointer_traits@PAU?$pair@$$CBV?$basic_string@DU?$char_traits@D@std@@V?$allocator@D@2@@std@@V?$shared_ptr@UNode@NetvarTree@@@2@@std@@@std@@SAPAU?$pair@$$CBV?$basic_string@DU?$char_traits@D@std@@V?$allocator@D@2@@std@@V?$shared_ptr@UNode@NetvarTree@@@2@@2@AAU32@@Z 10003800 f i backtacking.obj
 0001:00002820       ?_Getblock@?$_Deque_val@U?$_Deque_simple_types@Ulc_record@@@std@@@std@@QBEII@Z 10003820 f i backtacking.obj
 0001:00002820       ?_Getblock@?$_Deque_val@U?$_Deque_simple_types@UPlayerRecords@@@std@@@std@@QBEII@Z 10003820 f i Aimbot.obj
 0001:00002840       ?allocate@?$allocator@PAUPlayerRecords@@@std@@QAEPAPAUPlayerRecords@@I@Z 10003840 f i LagComp.obj
 0001:00002840       ?allocate@?$allocator@PAVDot@@@std@@QAEPAPAVDot@@I@Z 10003840 f i dots.obj
 0001:00002840       ?allocate@?$allocator@PAV?$ConfigValue@M@@@std@@QAEPAPAV?$ConfigValue@M@@I@Z 10003840 f i cfgsaving.obj
 0001:00002840       ?allocate@?$allocator@V?$_List_unchecked_iterator@V?$_List_val@U?$_List_simple_types@U?$pair@$$CBV?$basic_string@DU?$char_traits@D@std@@V?$allocator@D@2@@std@@V?$shared_ptr@UNode@NetvarTree@@@2@@std@@@std@@@std@@@std@@@std@@QAEPAV?$_List_unchecked_iterator@V?$_List_val@U?$_List_simple_types@U?$pair@$$CBV?$basic_string@DU?$char_traits@D@std@@V?$allocator@D@2@@std@@V?$shared_ptr@UNode@NetvarTree@@@2@@std@@@std@@@std@@@2@I@Z 10003840 f i backtacking.obj
 0001:00002840       ?allocate@?$allocator@PAV?$ConfigValue@_N@@@std@@QAEPAPAV?$ConfigValue@_N@@I@Z 10003840 f i cfgsaving.obj
 0001:00002840       ?allocate@?$allocator@PBD@std@@QAEPAPBDI@Z 10003840 f i Hooks.obj
 0001:00002840       ?allocate@?$allocator@H@std@@QAEPAHI@Z 10003840 f i Aimbot.obj
 0001:00002840       ?allocate@?$allocator@PAV?$ConfigValue@H@@@std@@QAEPAPAV?$ConfigValue@H@@I@Z 10003840 f i cfgsaving.obj
 0001:00002840       ?allocate@?$allocator@PAUlc_record@@@std@@QAEPAPAUlc_record@@I@Z 10003840 f i backtacking.obj
 0001:00002870       ?deallocate@?$allocator@PBD@std@@QAEXQAPBDI@Z 10003870 f i Hooks.obj
 0001:00002870       ?deallocate@?$allocator@PAV?$ConfigValue@_N@@@std@@QAEXQAPAV?$ConfigValue@_N@@I@Z 10003870 f i cfgsaving.obj
 0001:00002870       ?deallocate@?$allocator@H@std@@QAEXQAHI@Z 10003870 f i Aimbot.obj
 0001:00002870       ?deallocate@?$allocator@PAUlc_record@@@std@@QAEXQAPAUlc_record@@I@Z 10003870 f i backtacking.obj
 0001:00002870       ?deallocate@?$allocator@PAV?$ConfigValue@M@@@std@@QAEXQAPAV?$ConfigValue@M@@I@Z 10003870 f i cfgsaving.obj
 0001:00002870       ?deallocate@?$allocator@PAUPlayerRecords@@@std@@QAEXQAPAUPlayerRecords@@I@Z 10003870 f i LagComp.obj
 0001:00002870       ?deallocate@?$allocator@PAVDot@@@std@@QAEXQAPAVDot@@I@Z 10003870 f i dots.obj
 0001:00002870       ?deallocate@?$allocator@V?$_List_unchecked_iterator@V?$_List_val@U?$_List_simple_types@U?$pair@$$CBV?$basic_string@DU?$char_traits@D@std@@V?$allocator@D@2@@std@@V?$shared_ptr@UNode@NetvarTree@@@2@@std@@@std@@@std@@@std@@@std@@QAEXQAV?$_List_unchecked_iterator@V?$_List_val@U?$_List_simple_types@U?$pair@$$CBV?$basic_string@DU?$char_traits@D@std@@V?$allocator@D@2@@std@@V?$shared_ptr@UNode@NetvarTree@@@2@@std@@@std@@@std@@@2@I@Z 10003870 f i backtacking.obj
 0001:00002870       ?deallocate@?$allocator@PAV?$ConfigValue@H@@@std@@QAEXQAPAV?$ConfigValue@H@@I@Z 10003870 f i cfgsaving.obj
 0001:00002890       ?_Free_proxy@?$_Deque_alloc@U?$_Deque_base_types@UPlayerRecords@@V?$allocator@UPlayerRecords@@@std@@@std@@@std@@QAEXXZ 10003890 f i LagComp.obj
 0001:00002890       ?_Free_proxy@?$_Deque_alloc@U?$_Deque_base_types@Ulc_record@@V?$allocator@Ulc_record@@@std@@@std@@@std@@QAEXXZ 10003890 f i backtacking.obj
 0001:00002900       ?_Alloc_proxy@?$_Deque_alloc@U?$_Deque_base_types@UPlayerRecords@@V?$allocator@UPlayerRecords@@@std@@@std@@@std@@QAEXXZ 10003900 f i LagComp.obj
 0001:00002900       ?_Alloc_proxy@?$_Deque_alloc@U?$_Deque_base_types@Ulc_record@@V?$allocator@Ulc_record@@@std@@@std@@@std@@QAEXXZ 10003900 f i backtacking.obj
 0001:00002990       ?_Xlen@?$deque@Ulc_record@@V?$allocator@Ulc_record@@@std@@@std@@IBEXXZ 10003990 f i backtacking.obj
 0001:00002990       ?_Xlen@?$deque@UPlayerRecords@@V?$allocator@UPlayerRecords@@@std@@@std@@IBEXXZ 10003990 f i LagComp.obj
 0001:000029b0       ?empty@?$deque@UPlayerRecords@@V?$allocator@UPlayerRecords@@@std@@@std@@QBE_NXZ 100039b0 f i LagComp.obj
 0001:000029b0       ?empty@?$deque@Ulc_record@@V?$allocator@Ulc_record@@@std@@@std@@QBE_NXZ 100039b0 f i backtacking.obj
 0001:000029e0       ?max_size@?$deque@Ulc_record@@V?$allocator@Ulc_record@@@std@@@std@@QBEIXZ 100039e0 f i backtacking.obj
 0001:00002a00       ?deallocate@?$allocator@Ulc_record@@@std@@QAEXQAUlc_record@@I@Z 10003a00 f i backtacking.obj
 0001:00002a00       ?deallocate@?$allocator@Vtrace_info@@@std@@QAEXQAVtrace_info@@I@Z 10003a00 f i Hooks.obj
 0001:00002a20       ?_Myfirst@?$_Vector_alloc@U?$_Vec_base_types@PAVDot@@V?$allocator@PAVDot@@@std@@@std@@@std@@QAEAAPAPAVDot@@XZ 10003a20 f i dots.obj
 0001:00002a20       ?_Myfirst@?$_Vector_alloc@U?$_Vec_base_types@PAV?$ConfigValue@M@@V?$allocator@PAV?$ConfigValue@M@@@std@@@std@@@std@@QBEABQAPAV?$ConfigValue@M@@XZ 10003a20 f i cfgsaving.obj
 0001:00002a20       ?_Myfirst@?$_Vector_alloc@U?$_Vec_base_types@HV?$allocator@H@std@@@std@@@std@@QAEAAPAHXZ 10003a20 f i Aimbot.obj
 0001:00002a20       ?_Myfirst@?$_Vector_alloc@U?$_Vec_base_types@V?$_List_unchecked_iterator@V?$_List_val@U?$_List_simple_types@U?$pair@$$CBV?$basic_string@DU?$char_traits@D@std@@V?$allocator@D@2@@std@@V?$shared_ptr@UNode@NetvarTree@@@2@@std@@@std@@@std@@@std@@V?$allocator@V?$_List_unchecked_iterator@V?$_List_val@U?$_List_simple_types@U?$pair@$$CBV?$basic_string@DU?$char_traits@D@std@@V?$allocator@D@2@@std@@V?$shared_ptr@UNode@NetvarTree@@@2@@std@@@std@@@std@@@std@@@2@@std@@@std@@QBEABQAV?$_List_unchecked_iterator@V?$_List_val@U?$_List_simple_types@U?$pair@$$CBV?$basic_string@DU?$char_traits@D@std@@V?$allocator@D@2@@std@@V?$shared_ptr@UNode@NetvarTree@@@2@@std@@@std@@@std@@@2@XZ 10003a20 f i backtacking.obj
 0001:00002a20       ?_Myfirst@?$_Vector_alloc@U?$_Vec_base_types@PAV?$ConfigValue@_N@@V?$allocator@PAV?$ConfigValue@_N@@@std@@@std@@@std@@QAEAAPAPAV?$ConfigValue@_N@@XZ 10003a20 f i cfgsaving.obj
 0001:00002a20       ?_Myfirst@?$_Vector_alloc@U?$_Vec_base_types@PBDV?$allocator@PBD@std@@@std@@@std@@QBEABQAPBDXZ 10003a20 f i Hooks.obj
 0001:00002a20       ?_Myproxy@?$_Deque_alloc@U?$_Deque_base_types@Ulc_record@@V?$allocator@Ulc_record@@@std@@@std@@@std@@QAEAAPAU_Container_proxy@2@XZ 10003a20 f i backtacking.obj
 0001:00002a20       ?_Myfirst@?$_Vector_alloc@U?$_Vec_base_types@PAV?$ConfigValue@M@@V?$allocator@PAV?$ConfigValue@M@@@std@@@std@@@std@@QAEAAPAPAV?$ConfigValue@M@@XZ 10003a20 f i cfgsaving.obj
 0001:00002a20       ?_Myfirst@?$_Vector_alloc@U?$_Vec_base_types@V?$_List_unchecked_iterator@V?$_List_val@U?$_List_simple_types@U?$pair@$$CBV?$basic_string@DU?$char_traits@D@std@@V?$allocator@D@2@@std@@V?$shared_ptr@UNode@NetvarTree@@@2@@std@@@std@@@std@@@std@@V?$allocator@V?$_List_unchecked_iterator@V?$_List_val@U?$_List_simple_types@U?$pair@$$CBV?$basic_string@DU?$char_traits@D@std@@V?$allocator@D@2@@std@@V?$shared_ptr@UNode@NetvarTree@@@2@@std@@@std@@@std@@@std@@@2@@std@@@std@@QAEAAPAV?$_List_unchecked_iterator@V?$_List_val@U?$_List_simple_types@U?$pair@$$CBV?$basic_string@DU?$char_traits@D@std@@V?$allocator@D@2@@std@@V?$shared_ptr@UNode@NetvarTree@@@2@@std@@@std@@@std@@@2@XZ 10003a20 f i backtacking.obj
 0001:00002a20       ?_Myhead@?$_List_alloc@U?$_List_base_types@U?$pair@$$CBV?$basic_string@DU?$char_traits@D@std@@V?$allocator@D@2@@std@@V?$shared_ptr@UNode@NetvarTree@@@2@@std@@V?$allocator@U?$pair@$$CBV?$basic_string@DU?$char_traits@D@std@@V?$allocator@D@2@@std@@V?$shared_ptr@UNode@NetvarTree@@@2@@std@@@2@@std@@@std@@QAEAAPAU?$_List_node@U?$pair@$$CBV?$basic_string@DU?$char_traits@D@std@@V?$allocator@D@2@@std@@V?$shared_ptr@UNode@NetvarTree@@@2@@std@@PAX@2@XZ 10003a20 f i backtacking.obj
 0001:00002a20       ?_Myfirst@?$_Vector_alloc@U?$_Vec_base_types@V?$basic_string@DU?$char_traits@D@std@@V?$allocator@D@2@@std@@V?$allocator@V?$basic_string@DU?$char_traits@D@std@@V?$allocator@D@2@@std@@@2@@std@@@std@@QBEABQAV?$basic_string@DU?$char_traits@D@std@@V?$allocator@D@2@@2@XZ 10003a20 f i Menu.obj
 0001:00002a20       ?_Myfirst@?$_Vector_alloc@U?$_Vec_base_types@VCMessage@@V?$allocator@VCMessage@@@std@@@std@@@std@@QBEABQAVCMessage@@XZ 10003a20 f i Event Logs.obj
 0001:00002a20       ?_Myfirst@?$_Vector_alloc@U?$_Vec_base_types@PAV?$ConfigValue@H@@V?$allocator@PAV?$ConfigValue@H@@@std@@@std@@@std@@QAEAAPAPAV?$ConfigValue@H@@XZ 10003a20 f i cfgsaving.obj
 0001:00002a20       ?_Myfirst@?$_Vector_alloc@U?$_Vec_base_types@Vtrace_info@@V?$allocator@Vtrace_info@@@std@@@std@@@std@@QAEAAPAVtrace_info@@XZ 10003a20 f i Hooks.obj
 0001:00002a20       ?_Myfirst@?$_Vector_alloc@U?$_Vec_base_types@V?$basic_string@DU?$char_traits@D@std@@V?$allocator@D@2@@std@@V?$allocator@V?$basic_string@DU?$char_traits@D@std@@V?$allocator@D@2@@std@@@2@@std@@@std@@QAEAAPAV?$basic_string@DU?$char_traits@D@std@@V?$allocator@D@2@@2@XZ 10003a20 f i Menu.obj
 0001:00002a20       ?_Myfirst@?$_Vector_alloc@U?$_Vec_base_types@VCMessage@@V?$allocator@VCMessage@@@std@@@std@@@std@@QAEAAPAVCMessage@@XZ 10003a20 f i Event Logs.obj
 0001:00002a20       ?_Myfirst@?$_Vector_alloc@U?$_Vec_base_types@HV?$allocator@H@std@@@std@@@std@@QBEABQAHXZ 10003a20 f i Aimbot.obj
 0001:00002a20       ?_Myproxy@?$_Deque_alloc@U?$_Deque_base_types@UPlayerRecords@@V?$allocator@UPlayerRecords@@@std@@@std@@@std@@QAEAAPAU_Container_proxy@2@XZ 10003a20 f i LagComp.obj
 0001:00002a20       ?_Myfirst@?$_Vector_alloc@U?$_Vec_base_types@PAV?$ConfigValue@H@@V?$allocator@PAV?$ConfigValue@H@@@std@@@std@@@std@@QBEABQAPAV?$ConfigValue@H@@XZ 10003a20 f i cfgsaving.obj
 0001:00002a20       ?_Myfirst@?$_Vector_alloc@U?$_Vec_base_types@PBDV?$allocator@PBD@std@@@std@@@std@@QAEAAPAPBDXZ 10003a20 f i Hooks.obj
 0001:00002a20       ?_Myfirst@?$_Vector_alloc@U?$_Vec_base_types@Vtrace_info@@V?$allocator@Vtrace_info@@@std@@@std@@@std@@QBEABQAVtrace_info@@XZ 10003a20 f i Hooks.obj
 0001:00002a20       ?_Myfirst@?$_Vector_alloc@U?$_Vec_base_types@PAVDot@@V?$allocator@PAVDot@@@std@@@std@@@std@@QBEABQAPAVDot@@XZ 10003a20 f i dots.obj
 0001:00002a20       ?_Myfirst@?$_Vector_alloc@U?$_Vec_base_types@PAV?$ConfigValue@_N@@V?$allocator@PAV?$ConfigValue@_N@@@std@@@std@@@std@@QBEABQAPAV?$ConfigValue@_N@@XZ 10003a20 f i cfgsaving.obj
 0001:00002a40       ?_Destroy@?$vector@Vtrace_info@@V?$allocator@Vtrace_info@@@std@@@std@@AAEXPAVtrace_info@@0@Z 10003a40 f i Hooks.obj
 0001:00002a40       ?_Destroy@?$vector@PAV?$ConfigValue@M@@V?$allocator@PAV?$ConfigValue@M@@@std@@@std@@AAEXPAPAV?$ConfigValue@M@@0@Z 10003a40 f i cfgsaving.obj
 0001:00002a40       ?_Destroy@?$vector@PAVDot@@V?$allocator@PAVDot@@@std@@@std@@AAEXPAPAVDot@@0@Z 10003a40 f i dots.obj
 0001:00002a40       ?_Destroy@?$vector@PAV?$ConfigValue@H@@V?$allocator@PAV?$ConfigValue@H@@@std@@@std@@AAEXPAPAV?$ConfigValue@H@@0@Z 10003a40 f i cfgsaving.obj
 0001:00002a40       ?_Destroy@?$vector@PBDV?$allocator@PBD@std@@@std@@AAEXPAPBD0@Z 10003a40 f i Hooks.obj
 0001:00002a40       ?_Destroy@?$vector@V?$_List_unchecked_iterator@V?$_List_val@U?$_List_simple_types@U?$pair@$$CBV?$basic_string@DU?$char_traits@D@std@@V?$allocator@D@2@@std@@V?$shared_ptr@UNode@NetvarTree@@@2@@std@@@std@@@std@@@std@@V?$allocator@V?$_List_unchecked_iterator@V?$_List_val@U?$_List_simple_types@U?$pair@$$CBV?$basic_string@DU?$char_traits@D@std@@V?$allocator@D@2@@std@@V?$shared_ptr@UNode@NetvarTree@@@2@@std@@@std@@@std@@@std@@@2@@std@@AAEXPAV?$_List_unchecked_iterator@V?$_List_val@U?$_List_simple_types@U?$pair@$$CBV?$basic_string@DU?$char_traits@D@std@@V?$allocator@D@2@@std@@V?$shared_ptr@UNode@NetvarTree@@@2@@std@@@std@@@std@@@2@0@Z 10003a40 f i backtacking.obj
 0001:00002a40       ?_Destroy@?$vector@PAV?$ConfigValue@_N@@V?$allocator@PAV?$ConfigValue@_N@@@std@@@std@@AAEXPAPAV?$ConfigValue@_N@@0@Z 10003a40 f i cfgsaving.obj
 0001:00002a40       ?_Destroy@?$vector@HV?$allocator@H@std@@@std@@AAEXPAH0@Z 10003a40 f i Aimbot.obj
 0001:00002a70       ?capacity@?$vector@PAV?$ConfigValue@_N@@V?$allocator@PAV?$ConfigValue@_N@@@std@@@std@@QBEIXZ 10003a70 f i cfgsaving.obj
 0001:00002a70       ?capacity@?$vector@HV?$allocator@H@std@@@std@@QBEIXZ 10003a70 f i Aimbot.obj
 0001:00002a70       ?capacity@?$vector@PBDV?$allocator@PBD@std@@@std@@QBEIXZ 10003a70 f i Hooks.obj
 0001:00002a70       ?capacity@?$vector@PAVDot@@V?$allocator@PAVDot@@@std@@@std@@QBEIXZ 10003a70 f i dots.obj
 0001:00002a70       ?capacity@?$vector@PAV?$ConfigValue@H@@V?$allocator@PAV?$ConfigValue@H@@@std@@@std@@QBEIXZ 10003a70 f i cfgsaving.obj
 0001:00002a70       ?capacity@?$vector@PAV?$ConfigValue@M@@V?$allocator@PAV?$ConfigValue@M@@@std@@@std@@QBEIXZ 10003a70 f i cfgsaving.obj
 0001:00002a70       ?capacity@?$vector@V?$_List_unchecked_iterator@V?$_List_val@U?$_List_simple_types@U?$pair@$$CBV?$basic_string@DU?$char_traits@D@std@@V?$allocator@D@2@@std@@V?$shared_ptr@UNode@NetvarTree@@@2@@std@@@std@@@std@@@std@@V?$allocator@V?$_List_unchecked_iterator@V?$_List_val@U?$_List_simple_types@U?$pair@$$CBV?$basic_string@DU?$char_traits@D@std@@V?$allocator@D@2@@std@@V?$shared_ptr@UNode@NetvarTree@@@2@@std@@@std@@@std@@@std@@@2@@std@@QBEIXZ 10003a70 f i backtacking.obj
 0001:00002aa0       ??D?$_List_iterator@V?$_List_val@U?$_List_simple_types@U?$pair@$$CBV?$basic_string@DU?$char_traits@D@std@@V?$allocator@D@2@@std@@V?$shared_ptr@UNode@NetvarTree@@@2@@std@@@std@@@std@@@std@@QBEAAU?$pair@$$CBV?$basic_string@DU?$char_traits@D@std@@V?$allocator@D@2@@std@@V?$shared_ptr@UNode@NetvarTree@@@2@@1@XZ 10003aa0 f i backtacking.obj
 0001:00002aa0       ??D?$_List_unchecked_iterator@V?$_List_val@U?$_List_simple_types@U?$pair@$$CBV?$basic_string@DU?$char_traits@D@std@@V?$allocator@D@2@@std@@V?$shared_ptr@UNode@NetvarTree@@@2@@std@@@std@@@std@@@std@@QBEAAU?$pair@$$CBV?$basic_string@DU?$char_traits@D@std@@V?$allocator@D@2@@std@@V?$shared_ptr@UNode@NetvarTree@@@2@@1@XZ 10003aa0 f i backtacking.obj
 0001:00002ac0       ?_Init@?$_Hash@V?$_Umap_traits@V?$basic_string@DU?$char_traits@D@std@@V?$allocator@D@2@@std@@V?$shared_ptr@UNode@NetvarTree@@@2@V?$_Uhash_compare@V?$basic_string@DU?$char_traits@D@std@@V?$allocator@D@2@@std@@U?$hash@V?$basic_string@DU?$char_traits@D@std@@V?$allocator@D@2@@std@@@2@U?$equal_to@V?$basic_string@DU?$char_traits@D@std@@V?$allocator@D@2@@std@@@2@@2@V?$allocator@U?$pair@$$CBV?$basic_string@DU?$char_traits@D@std@@V?$allocator@D@2@@std@@V?$shared_ptr@UNode@NetvarTree@@@2@@std@@@2@$0A@@std@@@std@@IAEXI@Z 10003ac0 f i backtacking.obj
 0001:00002b20       ?max_size@?$_Default_allocator_traits@V?$allocator@D@std@@@std@@SAIABV?$allocator@D@2@@Z 10003b20 f i backtacking.obj
 0001:00002b30       ?max_size@?$_Default_allocator_traits@V?$allocator@Vtrace_info@@@std@@@std@@SAIABV?$allocator@Vtrace_info@@@2@@Z 10003b30 f i Hooks.obj
 0001:00002b30       ?max_size@?$_Default_allocator_traits@V?$allocator@Ulc_record@@@std@@@std@@SAIABV?$allocator@Ulc_record@@@2@@Z 10003b30 f i backtacking.obj
 0001:00002b40       ?reserve@?$vector@V?$_List_unchecked_iterator@V?$_List_val@U?$_List_simple_types@U?$pair@$$CBV?$basic_string@DU?$char_traits@D@std@@V?$allocator@D@2@@std@@V?$shared_ptr@UNode@NetvarTree@@@2@@std@@@std@@@std@@@std@@V?$allocator@V?$_List_unchecked_iterator@V?$_List_val@U?$_List_simple_types@U?$pair@$$CBV?$basic_string@DU?$char_traits@D@std@@V?$allocator@D@2@@std@@V?$shared_ptr@UNode@NetvarTree@@@2@@std@@@std@@@std@@@std@@@2@@std@@QAEXI@Z 10003b40 f i backtacking.obj
 0001:00002b80       ?assign@?$vector@V?$_List_unchecked_iterator@V?$_List_val@U?$_List_simple_types@U?$pair@$$CBV?$basic_string@DU?$char_traits@D@std@@V?$allocator@D@2@@std@@V?$shared_ptr@UNode@NetvarTree@@@2@@std@@@std@@@std@@@std@@V?$allocator@V?$_List_unchecked_iterator@V?$_List_val@U?$_List_simple_types@U?$pair@$$CBV?$basic_string@DU?$char_traits@D@std@@V?$allocator@D@2@@std@@V?$shared_ptr@UNode@NetvarTree@@@2@@std@@@std@@@std@@@std@@@2@@std@@QAEXIABV?$_List_unchecked_iterator@V?$_List_val@U?$_List_simple_types@U?$pair@$$CBV?$basic_string@DU?$char_traits@D@std@@V?$allocator@D@2@@std@@V?$shared_ptr@UNode@NetvarTree@@@2@@std@@@std@@@std@@@2@@Z 10003b80 f i backtacking.obj
 0001:00002d30       ??D?$_List_unchecked_const_iterator@V?$_List_val@U?$_List_simple_types@U?$pair@$$CBV?$basic_string@DU?$char_traits@D@std@@V?$allocator@D@2@@std@@V?$shared_ptr@UNode@NetvarTree@@@2@@std@@@std@@@std@@U_Iterator_base0@2@@std@@QBEABU?$pair@$$CBV?$basic_string@DU?$char_traits@D@std@@V?$allocator@D@2@@std@@V?$shared_ptr@UNode@NetvarTree@@@2@@1@XZ 10003d30 f i backtacking.obj
 0001:00002d30       ??D?$_List_const_iterator@V?$_List_val@U?$_List_simple_types@U?$pair@$$CBV?$basic_string@DU?$char_traits@D@std@@V?$allocator@D@2@@std@@V?$shared_ptr@UNode@NetvarTree@@@2@@std@@@std@@@std@@@std@@QBEABU?$pair@$$CBV?$basic_string@DU?$char_traits@D@std@@V?$allocator@D@2@@std@@V?$shared_ptr@UNode@NetvarTree@@@2@@1@XZ 10003d30 f i backtacking.obj
 0001:00002d50       ?_Freenode@?$_List_buy@U?$pair@$$CBV?$basic_string@DU?$char_traits@D@std@@V?$allocator@D@2@@std@@V?$shared_ptr@UNode@NetvarTree@@@2@@std@@V?$allocator@U?$pair@$$CBV?$basic_string@DU?$char_traits@D@std@@V?$allocator@D@2@@std@@V?$shared_ptr@UNode@NetvarTree@@@2@@std@@@2@@std@@QAEXPAU?$_List_node@U?$pair@$$CBV?$basic_string@DU?$char_traits@D@std@@V?$allocator@D@2@@std@@V?$shared_ptr@UNode@NetvarTree@@@2@@std@@PAX@2@@Z 10003d50 f i backtacking.obj
 0001:00002da0       ?_Unchecked_end@?$_Hash@V?$_Umap_traits@V?$basic_string@DU?$char_traits@D@std@@V?$allocator@D@2@@std@@V?$shared_ptr@UNode@NetvarTree@@@2@V?$_Uhash_compare@V?$basic_string@DU?$char_traits@D@std@@V?$allocator@D@2@@std@@U?$hash@V?$basic_string@DU?$char_traits@D@std@@V?$allocator@D@2@@std@@@2@U?$equal_to@V?$basic_string@DU?$char_traits@D@std@@V?$allocator@D@2@@std@@@2@@2@V?$allocator@U?$pair@$$CBV?$basic_string@DU?$char_traits@D@std@@V?$allocator@D@2@@std@@V?$shared_ptr@UNode@NetvarTree@@@2@@std@@@2@$0A@@std@@@std@@QAE?AV?$_List_unchecked_iterator@V?$_List_val@U?$_List_simple_types@U?$pair@$$CBV?$basic_string@DU?$char_traits@D@std@@V?$allocator@D@2@@std@@V?$shared_ptr@UNode@NetvarTree@@@2@@std@@@std@@@std@@@2@XZ 10003da0 f i backtacking.obj
 0001:00002dd0       ?allocate@?$allocator@U_Container_proxy@std@@@std@@QAEPAU_Container_proxy@2@I@Z 10003dd0 f i backtacking.obj
 0001:00002e00       ?_Xlength@?$vector@V?$basic_string@DU?$char_traits@D@std@@V?$allocator@D@2@@std@@V?$allocator@V?$basic_string@DU?$char_traits@D@std@@V?$allocator@D@2@@std@@@2@@std@@CAXXZ 10003e00 f i Menu.obj
 0001:00002e00       ?_Xlength@?$vector@Vtrace_info@@V?$allocator@Vtrace_info@@@std@@@std@@CAXXZ 10003e00 f i Hooks.obj
 0001:00002e00       ?_Xlength@?$vector@HV?$allocator@H@std@@@std@@CAXXZ 10003e00 f i Aimbot.obj
 0001:00002e00       ?_Xlength@?$vector@V?$_List_unchecked_iterator@V?$_List_val@U?$_List_simple_types@U?$pair@$$CBV?$basic_string@DU?$char_traits@D@std@@V?$allocator@D@2@@std@@V?$shared_ptr@UNode@NetvarTree@@@2@@std@@@std@@@std@@@std@@V?$allocator@V?$_List_unchecked_iterator@V?$_List_val@U?$_List_simple_types@U?$pair@$$CBV?$basic_string@DU?$char_traits@D@std@@V?$allocator@D@2@@std@@V?$shared_ptr@UNode@NetvarTree@@@2@@std@@@std@@@std@@@std@@@2@@std@@CAXXZ 10003e00 f i backtacking.obj
 0001:00002e00       ?_Xlength@?$vector@PAV?$ConfigValue@_N@@V?$allocator@PAV?$ConfigValue@_N@@@std@@@std@@CAXXZ 10003e00 f i cfgsaving.obj
 0001:00002e00       ?_Xlength@?$vector@PBDV?$allocator@PBD@std@@@std@@CAXXZ 10003e00 f i Hooks.obj
 0001:00002e00       ?_Xlength@?$vector@PAV?$ConfigValue@H@@V?$allocator@PAV?$ConfigValue@H@@@std@@@std@@CAXXZ 10003e00 f i cfgsaving.obj
 0001:00002e00       ?_Xlength@?$vector@VCMessage@@V?$allocator@VCMessage@@@std@@@std@@CAXXZ 10003e00 f i Event Logs.obj
 0001:00002e00       ?_Xlength@?$vector@PAVDot@@V?$allocator@PAVDot@@@std@@@std@@CAXXZ 10003e00 f i dots.obj
 0001:00002e00       ?_Xlength@?$vector@PAV?$ConfigValue@M@@V?$allocator@PAV?$ConfigValue@M@@@std@@@std@@CAXXZ 10003e00 f i cfgsaving.obj
 0001:00002e10       ?_Buy@?$vector@V?$_List_unchecked_iterator@V?$_List_val@U?$_List_simple_types@U?$pair@$$CBV?$basic_string@DU?$char_traits@D@std@@V?$allocator@D@2@@std@@V?$shared_ptr@UNode@NetvarTree@@@2@@std@@@std@@@std@@@std@@V?$allocator@V?$_List_unchecked_iterator@V?$_List_val@U?$_List_simple_types@U?$pair@$$CBV?$basic_string@DU?$char_traits@D@std@@V?$allocator@D@2@@std@@V?$shared_ptr@UNode@NetvarTree@@@2@@std@@@std@@@std@@@std@@@2@@std@@AAE_NI@Z 10003e10 f i backtacking.obj
 0001:00002e10       ?_Buy@?$vector@PBDV?$allocator@PBD@std@@@std@@AAE_NI@Z 10003e10 f i Hooks.obj
 0001:00002ed0       ?_Calculate_growth@?$vector@PAVDot@@V?$allocator@PAVDot@@@std@@@std@@ABEII@Z 10003ed0 f i dots.obj
 0001:00002ed0       ?_Calculate_growth@?$vector@PAV?$ConfigValue@_N@@V?$allocator@PAV?$ConfigValue@_N@@@std@@@std@@ABEII@Z 10003ed0 f i cfgsaving.obj
 0001:00002ed0       ?_Calculate_growth@?$vector@PAV?$ConfigValue@M@@V?$allocator@PAV?$ConfigValue@M@@@std@@@std@@ABEII@Z 10003ed0 f i cfgsaving.obj
 0001:00002ed0       ?_Calculate_growth@?$vector@HV?$allocator@H@std@@@std@@ABEII@Z 10003ed0 f i Aimbot.obj
 0001:00002ed0       ?_Calculate_growth@?$vector@PAV?$ConfigValue@H@@V?$allocator@PAV?$ConfigValue@H@@@std@@@std@@ABEII@Z 10003ed0 f i cfgsaving.obj
 0001:00002ed0       ?_Calculate_growth@?$vector@V?$_List_unchecked_iterator@V?$_List_val@U?$_List_simple_types@U?$pair@$$CBV?$basic_string@DU?$char_traits@D@std@@V?$allocator@D@2@@std@@V?$shared_ptr@UNode@NetvarTree@@@2@@std@@@std@@@std@@@std@@V?$allocator@V?$_List_unchecked_iterator@V?$_List_val@U?$_List_simple_types@U?$pair@$$CBV?$basic_string@DU?$char_traits@D@std@@V?$allocator@D@2@@std@@V?$shared_ptr@UNode@NetvarTree@@@2@@std@@@std@@@std@@@std@@@2@@std@@ABEII@Z 10003ed0 f i backtacking.obj
 0001:00002f20       ?_Ufill@?$vector@V?$_List_unchecked_iterator@V?$_List_val@U?$_List_simple_types@U?$pair@$$CBV?$basic_string@DU?$char_traits@D@std@@V?$allocator@D@2@@std@@V?$shared_ptr@UNode@NetvarTree@@@2@@std@@@std@@@std@@@std@@V?$allocator@V?$_List_unchecked_iterator@V?$_List_val@U?$_List_simple_types@U?$pair@$$CBV?$basic_string@DU?$char_traits@D@std@@V?$allocator@D@2@@std@@V?$shared_ptr@UNode@NetvarTree@@@2@@std@@@std@@@std@@@std@@@2@@std@@AAEPAV?$_List_unchecked_iterator@V?$_List_val@U?$_List_simple_types@U?$pair@$$CBV?$basic_string@DU?$char_traits@D@std@@V?$allocator@D@2@@std@@V?$shared_ptr@UNode@NetvarTree@@@2@@std@@@std@@@std@@@2@PAV32@IABV32@@Z 10003f20 f i backtacking.obj
 0001:00002f50       ?max_size@?$vector@PAVDot@@V?$allocator@PAVDot@@@std@@@std@@QBEIXZ 10003f50 f i dots.obj
 0001:00002f50       ?max_size@?$vector@PAV?$ConfigValue@_N@@V?$allocator@PAV?$ConfigValue@_N@@@std@@@std@@QBEIXZ 10003f50 f i cfgsaving.obj
 0001:00002f50       ?max_size@?$vector@PBDV?$allocator@PBD@std@@@std@@QBEIXZ 10003f50 f i Hooks.obj
 0001:00002f50       ?max_size@?$vector@HV?$allocator@H@std@@@std@@QBEIXZ 10003f50 f i Aimbot.obj
 0001:00002f50       ?max_size@?$vector@PAV?$ConfigValue@M@@V?$allocator@PAV?$ConfigValue@M@@@std@@@std@@QBEIXZ 10003f50 f i cfgsaving.obj
 0001:00002f50       ?max_size@?$vector@PAV?$ConfigValue@H@@V?$allocator@PAV?$ConfigValue@H@@@std@@@std@@QBEIXZ 10003f50 f i cfgsaving.obj
 0001:00002f50       ?max_size@?$vector@V?$_List_unchecked_iterator@V?$_List_val@U?$_List_simple_types@U?$pair@$$CBV?$basic_string@DU?$char_traits@D@std@@V?$allocator@D@2@@std@@V?$shared_ptr@UNode@NetvarTree@@@2@@std@@@std@@@std@@@std@@V?$allocator@V?$_List_unchecked_iterator@V?$_List_val@U?$_List_simple_types@U?$pair@$$CBV?$basic_string@DU?$char_traits@D@std@@V?$allocator@D@2@@std@@V?$shared_ptr@UNode@NetvarTree@@@2@@std@@@std@@@std@@@std@@@2@@std@@QBEIXZ 10003f50 f i backtacking.obj
 0001:00002f90       ?size@?$vector@V?$_List_unchecked_iterator@V?$_List_val@U?$_List_simple_types@U?$pair@$$CBV?$basic_string@DU?$char_traits@D@std@@V?$allocator@D@2@@std@@V?$shared_ptr@UNode@NetvarTree@@@2@@std@@@std@@@std@@@std@@V?$allocator@V?$_List_unchecked_iterator@V?$_List_val@U?$_List_simple_types@U?$pair@$$CBV?$basic_string@DU?$char_traits@D@std@@V?$allocator@D@2@@std@@V?$shared_ptr@UNode@NetvarTree@@@2@@std@@@std@@@std@@@std@@@2@@std@@QBEIXZ 10003f90 f i backtacking.obj
 0001:00002f90       ?size@?$vector@PAV?$ConfigValue@M@@V?$allocator@PAV?$ConfigValue@M@@@std@@@std@@QBEIXZ 10003f90 f i cfgsaving.obj
 0001:00002f90       ?size@?$vector@PAV?$ConfigValue@_N@@V?$allocator@PAV?$ConfigValue@_N@@@std@@@std@@QBEIXZ 10003f90 f i cfgsaving.obj
 0001:00002f90       ?size@?$vector@PAVDot@@V?$allocator@PAVDot@@@std@@@std@@QBEIXZ 10003f90 f i dots.obj
 0001:00002f90       ?size@?$vector@PAV?$ConfigValue@H@@V?$allocator@PAV?$ConfigValue@H@@@std@@@std@@QBEIXZ 10003f90 f i cfgsaving.obj
 0001:00002f90       ?size@?$vector@HV?$allocator@H@std@@@std@@QBEIXZ 10003f90 f i Aimbot.obj
 0001:00002fc0       ?_Reallocate_exactly@?$vector@V?$_List_unchecked_iterator@V?$_List_val@U?$_List_simple_types@U?$pair@$$CBV?$basic_string@DU?$char_traits@D@std@@V?$allocator@D@2@@std@@V?$shared_ptr@UNode@NetvarTree@@@2@@std@@@std@@@std@@@std@@V?$allocator@V?$_List_unchecked_iterator@V?$_List_val@U?$_List_simple_types@U?$pair@$$CBV?$basic_string@DU?$char_traits@D@std@@V?$allocator@D@2@@std@@V?$shared_ptr@UNode@NetvarTree@@@2@@std@@@std@@@std@@@std@@@2@@std@@AAEXI@Z 10003fc0 f i backtacking.obj
 0001:000030b0       ?_Unchecked_end@?$list@U?$pair@$$CBV?$basic_string@DU?$char_traits@D@std@@V?$allocator@D@2@@std@@V?$shared_ptr@UNode@NetvarTree@@@2@@std@@V?$allocator@U?$pair@$$CBV?$basic_string@DU?$char_traits@D@std@@V?$allocator@D@2@@std@@V?$shared_ptr@UNode@NetvarTree@@@2@@std@@@2@@std@@QAE?AV?$_List_unchecked_iterator@V?$_List_val@U?$_List_simple_types@U?$pair@$$CBV?$basic_string@DU?$char_traits@D@std@@V?$allocator@D@2@@std@@V?$shared_ptr@UNode@NetvarTree@@@2@@std@@@std@@@std@@@2@XZ 100040b0 f i backtacking.obj
 0001:000030e0       ?max_size@?$_Default_allocator_traits@V?$allocator@H@std@@@std@@SAIABV?$allocator@H@2@@Z 100040e0 f i Aimbot.obj
 0001:000030e0       ?max_size@?$_Default_allocator_traits@V?$allocator@PAVDot@@@std@@@std@@SAIABV?$allocator@PAVDot@@@2@@Z 100040e0 f i dots.obj
 0001:000030e0       ?max_size@?$_Default_allocator_traits@V?$allocator@PAV?$ConfigValue@_N@@@std@@@std@@SAIABV?$allocator@PAV?$ConfigValue@_N@@@2@@Z 100040e0 f i cfgsaving.obj
 0001:000030e0       ?max_size@?$_Default_allocator_traits@V?$allocator@PBD@std@@@std@@SAIABV?$allocator@PBD@2@@Z 100040e0 f i Hooks.obj
 0001:000030e0       ?max_size@?$_Default_allocator_traits@V?$allocator@PAV?$ConfigValue@H@@@std@@@std@@SAIABV?$allocator@PAV?$ConfigValue@H@@@2@@Z 100040e0 f i cfgsaving.obj
 0001:000030e0       ?max_size@?$_Default_allocator_traits@V?$allocator@V?$_List_unchecked_iterator@V?$_List_val@U?$_List_simple_types@U?$pair@$$CBV?$basic_string@DU?$char_traits@D@std@@V?$allocator@D@2@@std@@V?$shared_ptr@UNode@NetvarTree@@@2@@std@@@std@@@std@@@std@@@std@@@std@@SAIABV?$allocator@V?$_List_unchecked_iterator@V?$_List_val@U?$_List_simple_types@U?$pair@$$CBV?$basic_string@DU?$char_traits@D@std@@V?$allocator@D@2@@std@@V?$shared_ptr@UNode@NetvarTree@@@2@@std@@@std@@@std@@@std@@@2@@Z 100040e0 f i backtacking.obj
 0001:000030e0       ?max_size@?$_Default_allocator_traits@V?$allocator@PAV?$ConfigValue@M@@@std@@@std@@SAIABV?$allocator@PAV?$ConfigValue@M@@@2@@Z 100040e0 f i cfgsaving.obj
 0001:000030f0       ?_Change_array@?$vector@PAV?$ConfigValue@M@@V?$allocator@PAV?$ConfigValue@M@@@std@@@std@@AAEXQAPAV?$ConfigValue@M@@II@Z 100040f0 f i cfgsaving.obj
 0001:000030f0       ?_Change_array@?$vector@PAV?$ConfigValue@_N@@V?$allocator@PAV?$ConfigValue@_N@@@std@@@std@@AAEXQAPAV?$ConfigValue@_N@@II@Z 100040f0 f i cfgsaving.obj
 0001:000030f0       ?_Change_array@?$vector@PAVDot@@V?$allocator@PAVDot@@@std@@@std@@AAEXQAPAVDot@@II@Z 100040f0 f i dots.obj
 0001:000030f0       ?_Change_array@?$vector@PAV?$ConfigValue@H@@V?$allocator@PAV?$ConfigValue@H@@@std@@@std@@AAEXQAPAV?$ConfigValue@H@@II@Z 100040f0 f i cfgsaving.obj
 0001:000030f0       ?_Change_array@?$vector@HV?$allocator@H@std@@@std@@AAEXQAHII@Z 100040f0 f i Aimbot.obj
 0001:000030f0       ?_Change_array@?$vector@V?$_List_unchecked_iterator@V?$_List_val@U?$_List_simple_types@U?$pair@$$CBV?$basic_string@DU?$char_traits@D@std@@V?$allocator@D@2@@std@@V?$shared_ptr@UNode@NetvarTree@@@2@@std@@@std@@@std@@@std@@V?$allocator@V?$_List_unchecked_iterator@V?$_List_val@U?$_List_simple_types@U?$pair@$$CBV?$basic_string@DU?$char_traits@D@std@@V?$allocator@D@2@@std@@V?$shared_ptr@UNode@NetvarTree@@@2@@std@@@std@@@std@@@std@@@2@@std@@AAEXQAV?$_List_unchecked_iterator@V?$_List_val@U?$_List_simple_types@U?$pair@$$CBV?$basic_string@DU?$char_traits@D@std@@V?$allocator@D@2@@std@@V?$shared_ptr@UNode@NetvarTree@@@2@@std@@@std@@@std@@@2@II@Z 100040f0 f i backtacking.obj
 0001:000031b0       ?_Umove_if_noexcept@?$vector@V?$_List_unchecked_iterator@V?$_List_val@U?$_List_simple_types@U?$pair@$$CBV?$basic_string@DU?$char_traits@D@std@@V?$allocator@D@2@@std@@V?$shared_ptr@UNode@NetvarTree@@@2@@std@@@std@@@std@@@std@@V?$allocator@V?$_List_unchecked_iterator@V?$_List_val@U?$_List_simple_types@U?$pair@$$CBV?$basic_string@DU?$char_traits@D@std@@V?$allocator@D@2@@std@@V?$shared_ptr@UNode@NetvarTree@@@2@@std@@@std@@@std@@@std@@@2@@std@@AAEXPAV?$_List_unchecked_iterator@V?$_List_val@U?$_List_simple_types@U?$pair@$$CBV?$basic_string@DU?$char_traits@D@std@@V?$allocator@D@2@@std@@V?$shared_ptr@UNode@NetvarTree@@@2@@std@@@std@@@std@@@2@00@Z 100041b0 f i backtacking.obj
 0001:000031e0       ??0?$_Vector_iterator@V?$_Vector_val@U?$_Simple_types@VCMessage@@@std@@@std@@@std@@QAE@PAVCMessage@@PBU_Container_base0@1@@Z 100041e0 f i Event Logs.obj
 0001:000031e0       ??0?$_Vector_iterator@V?$_Vector_val@U?$_Simple_types@PAVDot@@@std@@@std@@@std@@QAE@PAPAVDot@@PBU_Container_base0@1@@Z 100041e0 f i dots.obj
 0001:000031e0       ??0?$_String_iterator@V?$_String_val@U?$_Simple_types@D@std@@@std@@@std@@QAE@PADPBU_Container_base0@1@@Z 100041e0 f i Hooks.obj
 0001:000031e0       ??0?$_Vector_iterator@V?$_Vector_val@U?$_Simple_types@Vtrace_info@@@std@@@std@@@std@@QAE@PAVtrace_info@@PBU_Container_base0@1@@Z 100041e0 f i Hooks.obj
 0001:000031e0       ??0?$_List_const_iterator@V?$_List_val@U?$_List_simple_types@U?$pair@$$CBV?$basic_string@DU?$char_traits@D@std@@V?$allocator@D@2@@std@@V?$shared_ptr@UNode@NetvarTree@@@2@@std@@@std@@@std@@@std@@QAE@PAU?$_List_node@U?$pair@$$CBV?$basic_string@DU?$char_traits@D@std@@V?$allocator@D@2@@std@@V?$shared_ptr@UNode@NetvarTree@@@2@@std@@PAX@1@PBV?$_List_val@U?$_List_simple_types@U?$pair@$$CBV?$basic_string@DU?$char_traits@D@std@@V?$allocator@D@2@@std@@V?$shared_ptr@UNode@NetvarTree@@@2@@std@@@std@@@1@@Z 100041e0 f i backtacking.obj
 0001:000031e0       ??0?$_List_unchecked_iterator@V?$_List_val@U?$_List_simple_types@U?$pair@$$CBV?$basic_string@DU?$char_traits@D@std@@V?$allocator@D@2@@std@@V?$shared_ptr@UNode@NetvarTree@@@2@@std@@@std@@@std@@@std@@QAE@PAU?$_List_node@U?$pair@$$CBV?$basic_string@DU?$char_traits@D@std@@V?$allocator@D@2@@std@@V?$shared_ptr@UNode@NetvarTree@@@2@@std@@PAX@1@PBV?$_List_val@U?$_List_simple_types@U?$pair@$$CBV?$basic_string@DU?$char_traits@D@std@@V?$allocator@D@2@@std@@V?$shared_ptr@UNode@NetvarTree@@@2@@std@@@std@@@1@@Z 100041e0 f i backtacking.obj
 0001:00003200       ?_Umove_if_noexcept1@?$vector@V?$_List_unchecked_iterator@V?$_List_val@U?$_List_simple_types@U?$pair@$$CBV?$basic_string@DU?$char_traits@D@std@@V?$allocator@D@2@@std@@V?$shared_ptr@UNode@NetvarTree@@@2@@std@@@std@@@std@@@std@@V?$allocator@V?$_List_unchecked_iterator@V?$_List_val@U?$_List_simple_types@U?$pair@$$CBV?$basic_string@DU?$char_traits@D@std@@V?$allocator@D@2@@std@@V?$shared_ptr@UNode@NetvarTree@@@2@@std@@@std@@@std@@@std@@@2@@std@@AAEXPAV?$_List_unchecked_iterator@V?$_List_val@U?$_List_simple_types@U?$pair@$$CBV?$basic_string@DU?$char_traits@D@std@@V?$allocator@D@2@@std@@V?$shared_ptr@UNode@NetvarTree@@@2@@std@@@std@@@std@@@2@00U?$integral_constant@_N$00@2@@Z 10004200 f i backtacking.obj
 0001:00003230       ??0?$_Vector_const_iterator@V?$_Vector_val@U?$_Simple_types@PAVDot@@@std@@@std@@@std@@QAE@PAPAVDot@@PBU_Container_base0@1@@Z 10004230 f i dots.obj
 0001:00003230       ??0?$_Vector_const_iterator@V?$_Vector_val@U?$_Simple_types@VCMessage@@@std@@@std@@@std@@QAE@PAVCMessage@@PBU_Container_base0@1@@Z 10004230 f i Event Logs.obj
 0001:00003230       ??0?$_Vector_const_iterator@V?$_Vector_val@U?$_Simple_types@Vtrace_info@@@std@@@std@@@std@@QAE@PAVtrace_info@@PBU_Container_base0@1@@Z 10004230 f i Hooks.obj
 0001:00003230       ??0?$_List_unchecked_const_iterator@V?$_List_val@U?$_List_simple_types@U?$pair@$$CBV?$basic_string@DU?$char_traits@D@std@@V?$allocator@D@2@@std@@V?$shared_ptr@UNode@NetvarTree@@@2@@std@@@std@@@std@@U_Iterator_base0@2@@std@@QAE@PAU?$_List_node@U?$pair@$$CBV?$basic_string@DU?$char_traits@D@std@@V?$allocator@D@2@@std@@V?$shared_ptr@UNode@NetvarTree@@@2@@std@@PAX@1@PBV?$_List_val@U?$_List_simple_types@U?$pair@$$CBV?$basic_string@DU?$char_traits@D@std@@V?$allocator@D@2@@std@@V?$shared_ptr@UNode@NetvarTree@@@2@@std@@@std@@@1@@Z 10004230 f i backtacking.obj
 0001:00003230       ??0?$_String_const_iterator@V?$_String_val@U?$_Simple_types@D@std@@@std@@@std@@QAE@PBDPBU_Container_base0@1@@Z 10004230 f i Hooks.obj
 0001:00003260       ??$_Min_value@I@std@@YAABIABI0@Z 10004260 f i backtacking.obj
 0001:00003290       ??$_Hash_array_representation@D@std@@YAIQBDI@Z 10004290 f i backtacking.obj
 0001:000032b0       ??$?CUNode@NetvarTree@@$0A@@?$shared_ptr@UNode@NetvarTree@@@std@@QBEPAUNode@NetvarTree@@XZ 100042b0 f i backtacking.obj
 0001:000032b0       ??D?$_Vector_iterator@V?$_Vector_val@U?$_Simple_types@PAVDot@@@std@@@std@@@std@@QBEAAPAVDot@@XZ 100042b0 f i dots.obj
 0001:000032d0       ??$GetOffset@PBD@NetvarTree@@QAEHPBD0@Z 100042d0 f i backtacking.obj
 0001:00003370       ??$GetValue@H@C_BaseEntity@@AAEHH@Z 10004370 f i backtacking.obj
 0001:00003370       ??$GetValue@W4EntityFlags@@@C_BaseEntity@@AAE?AW4EntityFlags@@H@Z 10004370 f i Aimbot.obj
 0001:00003370       ??$GetValue@I@C_BaseEntity@@AAEIH@Z 10004370 f i Menu.obj
 0001:00003370       ??$GetValue@W4MoveType_t@@@C_BaseEntity@@AAE?AW4MoveType_t@@H@Z 10004370 f i AntiAim.obj
 0001:00003370       ??$GetValue@H@C_BaseCombatWeapon@@AAEHH@Z 10004370 f i ESP.obj
 0001:00003390       ??$GetVFunc@P6EXPAXKPB_WAAH2@Z@Utils@@SAP6EXPAXKPB_WAAH2@Z0I@Z 10004390 f i Event Logs.obj
 0001:00003390       ??$GetVFunc@P6EXPAXKPBDHHHHHHH@Z@Utils@@SAP6EXPAXKPBDHHHHHHH@Z0I@Z 10004390 f i Hooks.obj
 0001:00003390       ??$GetVFunc@P6EAAVVector@@PAX@Z@Utils@@SAP6EAAVVector@@PAX@Z0I@Z 10004390 f i backtacking.obj
 0001:00003390       ??$GetVFunc@P6EXPAXPAVIMaterial@@W4OverrideType_t@@H@Z@Utils@@SAP6EXPAXPAVIMaterial@@W4OverrideType_t@@H@Z0I@Z 10004390 f i Hooks.obj
 0001:00003390       ??$GetVFunc@P6EPAVIMaterial@@PAXG@Z@Utils@@SAP6EPAVIMaterial@@PAXG@Z0I@Z 10004390 f i Hooks.obj
 0001:00003390       ??$GetVFunc@P6EIPAX@Z@Utils@@SAP6EIPAX@Z0I@Z 10004390 f i Hooks.obj
 0001:00003390       ??$GetVFunc@P6EXPAXUColor@@@Z@Utils@@SAP6EXPAXUColor@@@Z0I@Z 10004390 f i dots.obj
 0001:00003390       ??$GetVFunc@P6EPBDPAVIPanel@@I@Z@Utils@@SAP6EPBDPAVIPanel@@I@ZPAXI@Z 10004390 f i Hooks.obj
 0001:00003390       ??$GetVFunc@P6EPAVIMaterial@@PAXPBD1_N1@Z@Utils@@SAP6EPAVIMaterial@@PAXPBD1_N1@Z0I@Z 10004390 f i Hooks.obj
 0001:00003390       ??$GetVFunc@P6EXPAXM@Z@Utils@@SAP6EXPAXM@Z0I@Z 10004390 f i Hooks.obj
 0001:00003390       ??$GetVFunc@P6EXPAXHHHH@Z@Utils@@SAP6EXPAXHHHH@Z0I@Z 10004390 f i Event Logs.obj
 0001:00003390       ??$GetVFunc@P6EXPAX@Z@Utils@@SAP6EXPAX@Z0I@Z 10004390 f i Hooks.obj
 0001:00003390       ??$GetVFunc@P6EXPAXAAVVector@@@Z@Utils@@SAP6EXPAXAAVVector@@@Z0I@Z 10004390 f i Aimbot.obj
 0001:00003390       ??$GetVFunc@P6EMPAX@Z@Utils@@SAP6EMPAX@Z0I@Z 10004390 f i Legitbot.obj
 0001:00003390       ??$GetVFunc@P6EXPAXPB_WHH@Z@Utils@@SAP6EXPAXPB_WHH@Z0I@Z 10004390 f i Event Logs.obj
 0001:00003390       ??$GetVFunc@P6EXPAXHPAUVertex_t@@_N@Z@Utils@@SAP6EXPAXHPAUVertex_t@@_N@Z0I@Z 10004390 f i Hooks.obj
 0001:00003390       ??$GetVFunc@P6EXPAXH@Z@Utils@@SAP6EXPAXH@Z0I@Z 10004390 f i skinchanger.obj
 0001:00003390       ??$GetVFunc@P6EXPAXK@Z@Utils@@SAP6EXPAXK@Z0I@Z 10004390 f i Event Logs.obj
 0001:00003390       ??$GetVFunc@P6EXPAXHH@Z@Utils@@SAP6EXPAXHH@Z0I@Z 10004390 f i Event Logs.obj
 0001:00003390       ??$GetVFunc@P6EPAVIMaterial@@PAXPBDPAVKeyValues@@@Z@Utils@@SAP6EPAVIMaterial@@PAXPBDPAVKeyValues@@@Z0I@Z 10004390 f i chams.obj
 0001:00003390       ??$GetVFunc@P6EGPAXG@Z@Utils@@SAP6EGPAXG@Z0I@Z 10004390 f i Hooks.obj
 0001:00003390       ??$GetVFunc@P6EGPAX@Z@Utils@@SAP6EGPAX@Z0I@Z 10004390 f i Hooks.obj
 0001:000033a0       ??$GetValue@M@C_BaseEntity@@AAEMH@Z 100043a0 f i backtacking.obj
 0001:000033a0       ??$GetValue@M@ccsbomb@@AAEMH@Z 100043a0 f i Hooks.obj
 0001:000033a0       ??$GetValue@M@C_BaseCombatWeapon@@AAEMH@Z 100043a0 f i Aimbot.obj
 0001:000033c0       ??$_Enable_shared_from_this1@UNode@NetvarTree@@U12@@std@@YAXABV?$shared_ptr@UNode@NetvarTree@@@0@PAUNode@NetvarTree@@U?$integral_constant@_N$0A@@0@@Z 100043c0 f i NetvarManager.obj
 0001:000033c0       ??$_Destroy_range1@V?$allocator@PAV?$ConfigValue@_N@@@std@@@std@@YAXPAPAV?$ConfigValue@_N@@0AAV?$allocator@PAV?$ConfigValue@_N@@@0@U?$integral_constant@_N$00@0@@Z 100043c0 f i cfgsaving.obj
 0001:000033c0       ??$destroy@UPlayerRecords@@@?$_Default_allocator_traits@V?$allocator@UPlayerRecords@@@std@@@std@@SAXAAV?$allocator@UPlayerRecords@@@1@QAUPlayerRecords@@@Z 100043c0 f i LagComp.obj
 0001:000033c0       ??$_Pocca@V?$allocator@D@std@@@std@@YAXAAV?$allocator@D@0@ABV10@U?$integral_constant@_N$0A@@0@@Z 100043c0 f i Event Logs.obj
 0001:000033c0       ??$_Adl_verify_range@V?$_Deque_iterator@V?$_Deque_val@U?$_Deque_simple_types@UPlayerRecords@@@std@@@std@@@std@@V12@@std@@YAXABV?$_Deque_iterator@V?$_Deque_val@U?$_Deque_simple_types@UPlayerRecords@@@std@@@std@@@0@0@Z 100043c0 f i LagComp.obj
 0001:000033c0       ??$_Destroy_range1@V?$allocator@PAUPlayerRecords@@@std@@@std@@YAXPAPAUPlayerRecords@@0AAV?$allocator@PAUPlayerRecords@@@0@U?$integral_constant@_N$00@0@@Z 100043c0 f i LagComp.obj
 0001:000033c0       ?Log@Utils@@SAXABV?$basic_string@DU?$char_traits@D@std@@V?$allocator@D@2@@std@@ZZ 100043c0 f i Hooks.obj
 0001:000033c0       ??$destroy@U_Container_proxy@std@@@?$_Default_allocator_traits@V?$allocator@U_Container_proxy@std@@@std@@@std@@SAXAAV?$allocator@U_Container_proxy@std@@@1@QAU_Container_proxy@1@@Z 100043c0 f i backtacking.obj
 0001:000033c0       ??$destroy@PAD@?$_Default_allocator_traits@V?$allocator@D@std@@@std@@SAXAAV?$allocator@D@1@QAPAD@Z 100043c0 f i backtacking.obj
 0001:000033c0       ??$_Destroy_range1@V?$allocator@H@std@@@std@@YAXPAH0AAV?$allocator@H@0@U?$integral_constant@_N$00@0@@Z 100043c0 f i Aimbot.obj
 0001:000033c0       ??$destroy@PAUPlayerRecords@@@?$_Default_allocator_traits@V?$allocator@PAUPlayerRecords@@@std@@@std@@SAXAAV?$allocator@PAUPlayerRecords@@@1@QAPAUPlayerRecords@@@Z 100043c0 f i LagComp.obj
 0001:000033c0       ??$_Destroy_range1@V?$allocator@Vtrace_info@@@std@@@std@@YAXPAVtrace_info@@0AAV?$allocator@Vtrace_info@@@0@U?$integral_constant@_N$00@0@@Z 100043c0 f i Hooks.obj
 0001:000033c0       ??$_Adl_verify_range@V?$_String_iterator@V?$_String_val@U?$_Simple_types@D@std@@@std@@@std@@V12@@std@@YAXABV?$_String_iterator@V?$_String_val@U?$_Simple_types@D@std@@@std@@@0@0@Z 100043c0 f i ESP.obj
 0001:000033c0       ??$_Adl_verify_range@V?$_Vector_iterator@V?$_Vector_val@U?$_Simple_types@PAVDot@@@std@@@std@@@std@@V12@@std@@YAXABV?$_Vector_iterator@V?$_Vector_val@U?$_Simple_types@PAVDot@@@std@@@std@@@0@0@Z 100043c0 f i dots.obj
 0001:000033c0       ??$_Adl_verify_range@V?$_String_const_iterator@V?$_String_val@U?$_Simple_types@D@std@@@std@@@std@@V12@@std@@YAXABV?$_String_const_iterator@V?$_String_val@U?$_Simple_types@D@std@@@std@@@0@0@Z 100043c0 f i Hooks.obj
 0001:000033c0       ??$destroy@PAVDot@@@?$_Default_allocator_traits@V?$allocator@PAVDot@@@std@@@std@@SAXAAV?$allocator@PAVDot@@@1@QAPAVDot@@@Z 100043c0 f i dots.obj
 0001:000033c0       ??$_Destroy_range1@V?$allocator@PAVDot@@@std@@@std@@YAXPAPAVDot@@0AAV?$allocator@PAVDot@@@0@U?$integral_constant@_N$00@0@@Z 100043c0 f i dots.obj
 0001:000033c0       ??$_Destroy_range1@V?$allocator@PBD@std@@@std@@YAXPAPBD0AAV?$allocator@PBD@0@U?$integral_constant@_N$00@0@@Z 100043c0 f i Hooks.obj
 0001:000033c0       ??$destroy@Vtrace_info@@@?$_Default_allocator_traits@V?$allocator@Vtrace_info@@@std@@@std@@SAXAAV?$allocator@Vtrace_info@@@1@QAVtrace_info@@@Z 100043c0 f i Hooks.obj
 0001:000033c0       ??$destroy@PAUlc_record@@@?$_Default_allocator_traits@V?$allocator@PAUlc_record@@@std@@@std@@SAXAAV?$allocator@PAUlc_record@@@1@QAPAUlc_record@@@Z 100043c0 f i backtacking.obj
 0001:000033c0       ??$_Destroy_range1@V?$allocator@PAV?$ConfigValue@H@@@std@@@std@@YAXPAPAV?$ConfigValue@H@@0AAV?$allocator@PAV?$ConfigValue@H@@@0@U?$integral_constant@_N$00@0@@Z 100043c0 f i cfgsaving.obj
 0001:000033c0       ??$destroy@PAU?$_List_node@U?$pair@$$CBV?$basic_string@DU?$char_traits@D@std@@V?$allocator@D@2@@std@@V?$shared_ptr@UNode@NetvarTree@@@2@@std@@PAX@std@@@?$_Default_allocator_traits@V?$allocator@U?$_List_node@U?$pair@$$CBV?$basic_string@DU?$char_traits@D@std@@V?$allocator@D@2@@std@@V?$shared_ptr@UNode@NetvarTree@@@2@@std@@PAX@std@@@std@@@std@@SAXAAV?$allocator@U?$_List_node@U?$pair@$$CBV?$basic_string@DU?$char_traits@D@std@@V?$allocator@D@2@@std@@V?$shared_ptr@UNode@NetvarTree@@@2@@std@@PAX@std@@@1@QAPAU?$_List_node@U?$pair@$$CBV?$basic_string@DU?$char_traits@D@std@@V?$allocator@D@2@@std@@V?$shared_ptr@UNode@NetvarTree@@@2@@std@@PAX@1@@Z 100043c0 f i backtacking.obj
 0001:000033c0       ??$_Destroy_range1@V?$allocator@V?$_List_unchecked_iterator@V?$_List_val@U?$_List_simple_types@U?$pair@$$CBV?$basic_string@DU?$char_traits@D@std@@V?$allocator@D@2@@std@@V?$shared_ptr@UNode@NetvarTree@@@2@@std@@@std@@@std@@@std@@@std@@@std@@YAXPAV?$_List_unchecked_iterator@V?$_List_val@U?$_List_simple_types@U?$pair@$$CBV?$basic_string@DU?$char_traits@D@std@@V?$allocator@D@2@@std@@V?$shared_ptr@UNode@NetvarTree@@@2@@std@@@std@@@std@@@0@0AAV?$allocator@V?$_List_unchecked_iterator@V?$_List_val@U?$_List_simple_types@U?$pair@$$CBV?$basic_string@DU?$char_traits@D@std@@V?$allocator@D@2@@std@@V?$shared_ptr@UNode@NetvarTree@@@2@@std@@@std@@@std@@@std@@@0@U?$integral_constant@_N$00@0@@Z 100043c0 f i backtacking.obj
 0001:000033c0       ??$_Destroy_range1@V?$allocator@PAUlc_record@@@std@@@std@@YAXPAPAUlc_record@@0AAV?$allocator@PAUlc_record@@@0@U?$integral_constant@_N$00@0@@Z 100043c0 f i backtacking.obj
 0001:000033c0       ??$_Adl_verify_range@PADPAD@std@@YAXABQAD0@Z 100043c0 f i chams.obj
 0001:000033c0       ??$destroy@Ulc_record@@@?$_Default_allocator_traits@V?$allocator@Ulc_record@@@std@@@std@@SAXAAV?$allocator@Ulc_record@@@1@QAUlc_record@@@Z 100043c0 f i backtacking.obj
 0001:000033c0       ??$_Destroy_range1@V?$allocator@PAV?$ConfigValue@M@@@std@@@std@@YAXPAPAV?$ConfigValue@M@@0AAV?$allocator@PAV?$ConfigValue@M@@@0@U?$integral_constant@_N$00@0@@Z 100043c0 f i cfgsaving.obj
 0001:000033d0       ??$construct@Vtrace_info@@V1@@?$_Default_allocator_traits@V?$allocator@Vtrace_info@@@std@@@std@@SAXAAV?$allocator@Vtrace_info@@@1@QAVtrace_info@@$$QAV3@@Z 100043d0 f i Hooks.obj
 0001:000033d0       ??$construct@Ulc_record@@U1@@?$_Default_allocator_traits@V?$allocator@Ulc_record@@@std@@@std@@SAXAAV?$allocator@Ulc_record@@@1@QAUlc_record@@$$QAU3@@Z 100043d0 f i backtacking.obj
 0001:00003410       ??$try_emplace@$$V@?$unordered_map@V?$basic_string@DU?$char_traits@D@std@@V?$allocator@D@2@@std@@V?$shared_ptr@UNode@NetvarTree@@@2@U?$hash@V?$basic_string@DU?$char_traits@D@std@@V?$allocator@D@2@@std@@@2@U?$equal_to@V?$basic_string@DU?$char_traits@D@std@@V?$allocator@D@2@@std@@@2@V?$allocator@U?$pair@$$CBV?$basic_string@DU?$char_traits@D@std@@V?$allocator@D@2@@std@@V?$shared_ptr@UNode@NetvarTree@@@2@@std@@@2@@std@@QAE?AU?$pair@V?$_List_iterator@V?$_List_val@U?$_List_simple_types@U?$pair@$$CBV?$basic_string@DU?$char_traits@D@std@@V?$allocator@D@2@@std@@V?$shared_ptr@UNode@NetvarTree@@@2@@std@@@std@@@std@@@std@@_N@1@$$QAV?$basic_string@DU?$char_traits@D@std@@V?$allocator@D@2@@1@@Z 10004410 f i backtacking.obj
 0001:00003440       ??$?0ABV?$allocator@D@std@@X@?$_String_alloc@U?$_String_base_types@DV?$allocator@D@std@@@std@@@std@@QAE@ABV?$allocator@D@1@@Z 10004440 f i chams.obj
 0001:00003440       ??$?0V?$allocator@D@std@@X@?$_String_alloc@U?$_String_base_types@DV?$allocator@D@std@@@std@@@std@@QAE@$$QAV?$allocator@D@1@@Z 10004440 f i backtacking.obj
 0001:00003480       ??$?0$$V@?$_Compressed_pair@V?$allocator@Ulc_record@@@std@@V?$_Deque_val@U?$_Deque_simple_types@Ulc_record@@@std@@@2@$00@std@@QAE@U_Zero_then_variadic_args_t@1@@Z 10004480 f i backtacking.obj
 0001:00003480       ??$?0$$V@?$_Compressed_pair@V?$allocator@UPlayerRecords@@@std@@V?$_Deque_val@U?$_Deque_simple_types@UPlayerRecords@@@std@@@2@$00@std@@QAE@U_Zero_then_variadic_args_t@1@@Z 10004480 f i LagComp.obj
 0001:000034a0       ??$_Uninitialized_copy@PAPAUlc_record@@PAPAU1@V?$allocator@PAUlc_record@@@std@@@std@@YAPAPAUlc_record@@QAPAU1@0PAPAU1@AAV?$allocator@PAUlc_record@@@0@@Z 100044a0 f i backtacking.obj
 0001:000034a0       ??$_Uninitialized_copy@PAPAUPlayerRecords@@PAPAU1@V?$allocator@PAUPlayerRecords@@@std@@@std@@YAPAPAUPlayerRecords@@QAPAU1@0PAPAU1@AAV?$allocator@PAUPlayerRecords@@@0@@Z 100044a0 f i LagComp.obj
 0001:000034a0       ??$_Uninitialized_move@PAPAVDot@@PAPAV1@V?$allocator@PAVDot@@@std@@@std@@YAPAPAVDot@@QAPAV1@0PAPAV1@AAV?$allocator@PAVDot@@@0@@Z 100044a0 f i dots.obj
 0001:000034a0       ??$_Uninitialized_move@PAPAV?$ConfigValue@_N@@PAPAV1@V?$allocator@PAV?$ConfigValue@_N@@@std@@@std@@YAPAPAV?$ConfigValue@_N@@QAPAV1@0PAPAV1@AAV?$allocator@PAV?$ConfigValue@_N@@@0@@Z 100044a0 f i cfgsaving.obj
 0001:000034a0       ??$_Uninitialized_move@PAPAV?$ConfigValue@H@@PAPAV1@V?$allocator@PAV?$ConfigValue@H@@@std@@@std@@YAPAPAV?$ConfigValue@H@@QAPAV1@0PAPAV1@AAV?$allocator@PAV?$ConfigValue@H@@@0@@Z 100044a0 f i cfgsaving.obj
 0001:000034a0       ??$_Uninitialized_copy@PBQBDPAPBDV?$allocator@PBD@std@@@std@@YAPAPBDQBQBD0PAPBDAAV?$allocator@PBD@0@@Z 100044a0 f i Hooks.obj
 0001:000034a0       ??$_Uninitialized_move@PAPAV?$ConfigValue@M@@PAPAV1@V?$allocator@PAV?$ConfigValue@M@@@std@@@std@@YAPAPAV?$ConfigValue@M@@QAPAV1@0PAPAV1@AAV?$allocator@PAV?$ConfigValue@M@@@0@@Z 100044a0 f i cfgsaving.obj
 0001:000034a0       ??$_Uninitialized_move@PAHPAHV?$allocator@H@std@@@std@@YAPAHQAH0PAHAAV?$allocator@H@0@@Z 100044a0 f i Aimbot.obj
 0001:00003570       ??$_Idl_distance@PBQBDPBQBD@std@@YAHABQBQBD0@Z 10004570 f i Hooks.obj
 0001:00003570       ??$_Idl_distance@PAPAV?$ConfigValue@_N@@PAPAV1@@std@@YAHABQAPAV?$ConfigValue@_N@@0@Z 10004570 f i cfgsaving.obj
 0001:00003570       ??$_Idl_distance@PAPAV?$ConfigValue@H@@PAPAV1@@std@@YAHABQAPAV?$ConfigValue@H@@0@Z 10004570 f i cfgsaving.obj
 0001:00003570       ??$_Idl_distance@PAPAV?$ConfigValue@M@@PAPAV1@@std@@YAHABQAPAV?$ConfigValue@M@@0@Z 10004570 f i cfgsaving.obj
 0001:00003570       ??$_Idl_distance@PAPAUPlayerRecords@@PAPAU1@@std@@YAHABQAPAUPlayerRecords@@0@Z 10004570 f i LagComp.obj
 0001:00003570       ??$_Idl_distance@PAPAUlc_record@@PAPAU1@@std@@YAHABQAPAUlc_record@@0@Z 10004570 f i backtacking.obj
 0001:00003570       ??$_Idl_distance@PAV?$_List_unchecked_iterator@V?$_List_val@U?$_List_simple_types@U?$pair@$$CBV?$basic_string@DU?$char_traits@D@std@@V?$allocator@D@2@@std@@V?$shared_ptr@UNode@NetvarTree@@@2@@std@@@std@@@std@@@std@@PAV12@@std@@YAHABQAV?$_List_unchecked_iterator@V?$_List_val@U?$_List_simple_types@U?$pair@$$CBV?$basic_string@DU?$char_traits@D@std@@V?$allocator@D@2@@std@@V?$shared_ptr@UNode@NetvarTree@@@2@@std@@@std@@@std@@@0@0@Z 10004570 f i backtacking.obj
 0001:00003570       ??$_Idl_distance@PAHPAH@std@@YAHABQAH0@Z 10004570 f i Aimbot.obj
 0001:00003570       ??$_Idl_distance@PAPAVDot@@PAPAV1@@std@@YAHABQAPAVDot@@0@Z 10004570 f i dots.obj
 0001:00003590       ??$_Uninitialized_value_construct_n@PAPAUPlayerRecords@@IV?$allocator@PAUPlayerRecords@@@std@@@std@@YAPAPAUPlayerRecords@@PAPAU1@IAAV?$allocator@PAUPlayerRecords@@@0@@Z 10004590 f i LagComp.obj
 0001:00003590       ??$_Uninitialized_value_construct_n@PAPAUlc_record@@IV?$allocator@PAUlc_record@@@std@@@std@@YAPAPAUlc_record@@PAPAU1@IAAV?$allocator@PAUlc_record@@@0@@Z 10004590 f i backtacking.obj
 0001:000035c0       ??$_Destroy_range@V?$allocator@PAV?$ConfigValue@M@@@std@@@std@@YAXPAPAV?$ConfigValue@M@@0AAV?$allocator@PAV?$ConfigValue@M@@@0@@Z 100045c0 f i cfgsaving.obj
 0001:000035c0       ??$_Destroy_range@V?$allocator@PAUlc_record@@@std@@@std@@YAXPAPAUlc_record@@0AAV?$allocator@PAUlc_record@@@0@@Z 100045c0 f i backtacking.obj
 0001:000035c0       ??$_Destroy_range@V?$allocator@PAV?$ConfigValue@_N@@@std@@@std@@YAXPAPAV?$ConfigValue@_N@@0AAV?$allocator@PAV?$ConfigValue@_N@@@0@@Z 100045c0 f i cfgsaving.obj
 0001:000035c0       ??$_Destroy_range@V?$allocator@V?$_List_unchecked_iterator@V?$_List_val@U?$_List_simple_types@U?$pair@$$CBV?$basic_string@DU?$char_traits@D@std@@V?$allocator@D@2@@std@@V?$shared_ptr@UNode@NetvarTree@@@2@@std@@@std@@@std@@@std@@@std@@@std@@YAXPAV?$_List_unchecked_iterator@V?$_List_val@U?$_List_simple_types@U?$pair@$$CBV?$basic_string@DU?$char_traits@D@std@@V?$allocator@D@2@@std@@V?$shared_ptr@UNode@NetvarTree@@@2@@std@@@std@@@std@@@0@0AAV?$allocator@V?$_List_unchecked_iterator@V?$_List_val@U?$_List_simple_types@U?$pair@$$CBV?$basic_string@DU?$char_traits@D@std@@V?$allocator@D@2@@std@@V?$shared_ptr@UNode@NetvarTree@@@2@@std@@@std@@@std@@@std@@@0@@Z 100045c0 f i backtacking.obj
 0001:000035c0       ??$_Destroy_range@V?$allocator@PAV?$ConfigValue@H@@@std@@@std@@YAXPAPAV?$ConfigValue@H@@0AAV?$allocator@PAV?$ConfigValue@H@@@0@@Z 100045c0 f i cfgsaving.obj
 0001:000035c0       ??$_Destroy_range@V?$allocator@Vtrace_info@@@std@@@std@@YAXPAVtrace_info@@0AAV?$allocator@Vtrace_info@@@0@@Z 100045c0 f i Hooks.obj
 0001:000035c0       ??$_Destroy_range@V?$allocator@PAVDot@@@std@@@std@@YAXPAPAVDot@@0AAV?$allocator@PAVDot@@@0@@Z 100045c0 f i dots.obj
 0001:000035c0       ??$_Destroy_range@V?$allocator@PBD@std@@@std@@YAXPAPBD0AAV?$allocator@PBD@0@@Z 100045c0 f i Hooks.obj
 0001:000035c0       ??$_Destroy_range@V?$allocator@H@std@@@std@@YAXPAH0AAV?$allocator@H@0@@Z 100045c0 f i Aimbot.obj
 0001:000035c0       ??$_Destroy_range@V?$allocator@PAUPlayerRecords@@@std@@@std@@YAXPAPAUPlayerRecords@@0AAV?$allocator@PAUPlayerRecords@@@0@@Z 100045c0 f i LagComp.obj
 0001:000035f0       ??$_Get_size_of_n@$0BM@@std@@YAII@Z 100045f0 f i backtacking.obj
 0001:00003620       ??$_Allocate@$07U_Default_allocate_traits@std@@$0A@@std@@YAPAXI@Z 10004620 f i backtacking.obj
 0001:00003660       ??$?0$$V@?$_Compressed_pair@V?$allocator@D@std@@V?$_String_val@U?$_Simple_types@D@std@@@2@$00@std@@QAE@U_Zero_then_variadic_args_t@1@@Z 10004660 f i backtacking.obj
 0001:00003680       ??$_Reallocate_for@V<lambda_9366063389c5f42a00a5088cf24e69de>@@PBD@?$basic_string@DU?$char_traits@D@std@@V?$allocator@D@2@@std@@QAEAAV01@IV<lambda_9366063389c5f42a00a5088cf24e69de>@@PBD@Z 10004680 f i backtacking.obj
 0001:00003760       ??$construct@PAVDot@@PAV1@@?$_Default_allocator_traits@V?$allocator@PAVDot@@@std@@@std@@SAXAAV?$allocator@PAVDot@@@1@QAPAVDot@@$$QAPAV3@@Z 10004760 f i dots.obj
 0001:00003760       ??$construct@HH@?$_Default_allocator_traits@V?$allocator@H@std@@@std@@SAXAAV?$allocator@H@1@QAH$$QAH@Z 10004760 f i Aimbot.obj
 0001:00003760       ??$construct@PAU?$_List_node@U?$pair@$$CBV?$basic_string@DU?$char_traits@D@std@@V?$allocator@D@2@@std@@V?$shared_ptr@UNode@NetvarTree@@@2@@std@@PAX@std@@AAPAU12@@?$_Default_allocator_traits@V?$allocator@U?$_List_node@U?$pair@$$CBV?$basic_string@DU?$char_traits@D@std@@V?$allocator@D@2@@std@@V?$shared_ptr@UNode@NetvarTree@@@2@@std@@PAX@std@@@std@@@std@@SAXAAV?$allocator@U?$_List_node@U?$pair@$$CBV?$basic_string@DU?$char_traits@D@std@@V?$allocator@D@2@@std@@V?$shared_ptr@UNode@NetvarTree@@@2@@std@@PAX@std@@@1@QAPAU?$_List_node@U?$pair@$$CBV?$basic_string@DU?$char_traits@D@std@@V?$allocator@D@2@@std@@V?$shared_ptr@UNode@NetvarTree@@@2@@std@@PAX@1@AAPAU31@@Z 10004760 f i backtacking.obj
 0001:00003760       ??$construct@PAV?$ConfigValue@M@@PAV1@@?$_Default_allocator_traits@V?$allocator@PAV?$ConfigValue@M@@@std@@@std@@SAXAAV?$allocator@PAV?$ConfigValue@M@@@1@QAPAV?$ConfigValue@M@@$$QAPAV3@@Z 10004760 f i cfgsaving.obj
 0001:00003760       ??$construct@PAV?$ConfigValue@_N@@PAV1@@?$_Default_allocator_traits@V?$allocator@PAV?$ConfigValue@_N@@@std@@@std@@SAXAAV?$allocator@PAV?$ConfigValue@_N@@@1@QAPAV?$ConfigValue@_N@@$$QAPAV3@@Z 10004760 f i cfgsaving.obj
 0001:00003760       ??$construct@PAV?$ConfigValue@H@@PAV1@@?$_Default_allocator_traits@V?$allocator@PAV?$ConfigValue@H@@@std@@@std@@SAXAAV?$allocator@PAV?$ConfigValue@H@@@1@QAPAV?$ConfigValue@H@@$$QAPAV3@@Z 10004760 f i cfgsaving.obj
 0001:00003760       ??$construct@PADABQAD@?$_Default_allocator_traits@V?$allocator@D@std@@@std@@SAXAAV?$allocator@D@1@QAPADABQAD@Z 10004760 f i backtacking.obj
 0001:00003790       ??$_Deallocate@$07$0A@@std@@YAXPAXI@Z 10004790 f i backtacking.obj
 0001:000037c0       ??$_Get_size_of_n@$03@std@@YAII@Z 100047c0 f i backtacking.obj
 0001:000037f0       ??$_Deallocate_plain@V?$allocator@U_Container_proxy@std@@@std@@$0A@@std@@YAXAAV?$allocator@U_Container_proxy@std@@@0@QAU_Container_proxy@0@@Z 100047f0 f i backtacking.obj
 0001:00003810       ??$construct@U_Container_proxy@std@@U12@@?$_Default_allocator_traits@V?$allocator@U_Container_proxy@std@@@std@@@std@@SAXAAV?$allocator@U_Container_proxy@std@@@1@QAU_Container_proxy@1@$$QAU31@@Z 10004810 f i backtacking.obj
 0001:00003850       ??$_Freenode0@V?$allocator@U?$_List_node@U?$pair@$$CBV?$basic_string@DU?$char_traits@D@std@@V?$allocator@D@2@@std@@V?$shared_ptr@UNode@NetvarTree@@@2@@std@@PAX@std@@@std@@@?$_List_node@U?$pair@$$CBV?$basic_string@DU?$char_traits@D@std@@V?$allocator@D@2@@std@@V?$shared_ptr@UNode@NetvarTree@@@2@@std@@PAX@std@@SAXAAV?$allocator@U?$_List_node@U?$pair@$$CBV?$basic_string@DU?$char_traits@D@std@@V?$allocator@D@2@@std@@V?$shared_ptr@UNode@NetvarTree@@@2@@std@@PAX@std@@@1@PAU01@@Z 10004850 f i backtacking.obj
 0001:000038c0       ??$_Fill_unchecked@PAV?$_List_unchecked_iterator@V?$_List_val@U?$_List_simple_types@U?$pair@$$CBV?$basic_string@DU?$char_traits@D@std@@V?$allocator@D@2@@std@@V?$shared_ptr@UNode@NetvarTree@@@2@@std@@@std@@@std@@@std@@V12@@std@@YAXPAV?$_List_unchecked_iterator@V?$_List_val@U?$_List_simple_types@U?$pair@$$CBV?$basic_string@DU?$char_traits@D@std@@V?$allocator@D@2@@std@@V?$shared_ptr@UNode@NetvarTree@@@2@@std@@@std@@@std@@@0@0ABV10@@Z 100048c0 f i backtacking.obj
 0001:00003900       ??$destroy@U?$pair@$$CBV?$basic_string@DU?$char_traits@D@std@@V?$allocator@D@2@@std@@V?$shared_ptr@UNode@NetvarTree@@@2@@std@@@?$_Default_allocator_traits@V?$allocator@U?$_List_node@U?$pair@$$CBV?$basic_string@DU?$char_traits@D@std@@V?$allocator@D@2@@std@@V?$shared_ptr@UNode@NetvarTree@@@2@@std@@PAX@std@@@std@@@std@@SAXAAV?$allocator@U?$_List_node@U?$pair@$$CBV?$basic_string@DU?$char_traits@D@std@@V?$allocator@D@2@@std@@V?$shared_ptr@UNode@NetvarTree@@@2@@std@@PAX@std@@@1@QAU?$pair@$$CBV?$basic_string@DU?$char_traits@D@std@@V?$allocator@D@2@@std@@V?$shared_ptr@UNode@NetvarTree@@@2@@1@@Z 10004900 f i backtacking.obj
 0001:00003910       ??$_Get_size_of_n@$07@std@@YAII@Z 10004910 f i backtacking.obj
 0001:00003940       ??$_Uninitialized_fill_n@PAV?$_List_unchecked_iterator@V?$_List_val@U?$_List_simple_types@U?$pair@$$CBV?$basic_string@DU?$char_traits@D@std@@V?$allocator@D@2@@std@@V?$shared_ptr@UNode@NetvarTree@@@2@@std@@@std@@@std@@@std@@IV?$allocator@V?$_List_unchecked_iterator@V?$_List_val@U?$_List_simple_types@U?$pair@$$CBV?$basic_string@DU?$char_traits@D@std@@V?$allocator@D@2@@std@@V?$shared_ptr@UNode@NetvarTree@@@2@@std@@@std@@@std@@@std@@@2@@std@@YAPAV?$_List_unchecked_iterator@V?$_List_val@U?$_List_simple_types@U?$pair@$$CBV?$basic_string@DU?$char_traits@D@std@@V?$allocator@D@2@@std@@V?$shared_ptr@UNode@NetvarTree@@@2@@std@@@std@@@std@@@0@QAV10@IABV10@AAV?$allocator@V?$_List_unchecked_iterator@V?$_List_val@U?$_List_simple_types@U?$pair@$$CBV?$basic_string@DU?$char_traits@D@std@@V?$allocator@D@2@@std@@V?$shared_ptr@UNode@NetvarTree@@@2@@std@@@std@@@std@@@std@@@0@@Z 10004940 f i backtacking.obj
 0001:00003970       ??$_Uninitialized_move@PAV?$_List_unchecked_iterator@V?$_List_val@U?$_List_simple_types@U?$pair@$$CBV?$basic_string@DU?$char_traits@D@std@@V?$allocator@D@2@@std@@V?$shared_ptr@UNode@NetvarTree@@@2@@std@@@std@@@std@@@std@@PAV12@V?$allocator@V?$_List_unchecked_iterator@V?$_List_val@U?$_List_simple_types@U?$pair@$$CBV?$basic_string@DU?$char_traits@D@std@@V?$allocator@D@2@@std@@V?$shared_ptr@UNode@NetvarTree@@@2@@std@@@std@@@std@@@std@@@2@@std@@YAPAV?$_List_unchecked_iterator@V?$_List_val@U?$_List_simple_types@U?$pair@$$CBV?$basic_string@DU?$char_traits@D@std@@V?$allocator@D@2@@std@@V?$shared_ptr@UNode@NetvarTree@@@2@@std@@@std@@@std@@@0@QAV10@0PAV10@AAV?$allocator@V?$_List_unchecked_iterator@V?$_List_val@U?$_List_simple_types@U?$pair@$$CBV?$basic_string@DU?$char_traits@D@std@@V?$allocator@D@2@@std@@V?$shared_ptr@UNode@NetvarTree@@@2@@std@@@std@@@std@@@std@@@0@@Z 10004970 f i backtacking.obj
 0001:00003a30       ??_G?$pair@$$CBV?$basic_string@DU?$char_traits@D@std@@V?$allocator@D@2@@std@@V?$shared_ptr@UNode@NetvarTree@@@2@@std@@QAEPAXI@Z 10004a30 f i backtacking.obj
 0001:00003a60       ??1?$pair@$$CBV?$basic_string@DU?$char_traits@D@std@@V?$allocator@D@2@@std@@V?$shared_ptr@UNode@NetvarTree@@@2@@std@@QAE@XZ 10004a60 f i backtacking.obj
 0001:00003a80       ?deallocate@?$_Default_allocator_traits@V?$allocator@U_Container_proxy@std@@@std@@@std@@SAXAAV?$allocator@U_Container_proxy@std@@@2@QAU_Container_proxy@2@I@Z 10004a80 f i backtacking.obj
 0001:00003aa0       ??0?$_Deque_val@U?$_Deque_simple_types@UPlayerRecords@@@std@@@std@@QAE@XZ 10004aa0 f i LagComp.obj
 0001:00003aa0       ??0?$_Deque_val@U?$_Deque_simple_types@Ulc_record@@@std@@@std@@QAE@XZ 10004aa0 f i backtacking.obj
 0001:00003ae0       ?begin@?$initializer_list@PBD@std@@QBEPBQBDXZ 10004ae0 f i Hooks.obj
 0001:00003ae0       ?get@?$_Ptr_base@UNode@NetvarTree@@@std@@IBEPAUNode@NetvarTree@@XZ 10004ae0 f i backtacking.obj
 0001:00003ae0       ?_Unwrapped@?$_Vector_iterator@V?$_Vector_val@U?$_Simple_types@PAVDot@@@std@@@std@@@std@@QBEPAPAVDot@@XZ 10004ae0 f i dots.obj
 0001:00003ae0       ??D?$_Vector_const_iterator@V?$_Vector_val@U?$_Simple_types@PAVDot@@@std@@@std@@@std@@QBEABQAVDot@@XZ 10004ae0 f i dots.obj
 0001:00003ae0       ?get_entity@CGlowObjectDefinition@@QAEIXZ 10004ae0 f i Hooks.obj
 0001:00003ae0       ?GetName@RecvProp@@QBEPBDXZ 10004ae0 f i NetvarManager.obj
 0001:00003ae0       ?begin@?$initializer_list@V?$basic_string@DU?$char_traits@D@std@@V?$allocator@D@2@@std@@@std@@QBEPBV?$basic_string@DU?$char_traits@D@std@@V?$allocator@D@2@@2@XZ 10004ae0 f i Menu.obj
 0001:00003af0       ?deallocate@?$_Default_allocator_traits@V?$allocator@U?$_List_node@U?$pair@$$CBV?$basic_string@DU?$char_traits@D@std@@V?$allocator@D@2@@std@@V?$shared_ptr@UNode@NetvarTree@@@2@@std@@PAX@std@@@std@@@std@@SAXAAV?$allocator@U?$_List_node@U?$pair@$$CBV?$basic_string@DU?$char_traits@D@std@@V?$allocator@D@2@@std@@V?$shared_ptr@UNode@NetvarTree@@@2@@std@@PAX@std@@@2@QAU?$_List_node@U?$pair@$$CBV?$basic_string@DU?$char_traits@D@std@@V?$allocator@D@2@@std@@V?$shared_ptr@UNode@NetvarTree@@@2@@std@@PAX@2@I@Z 10004af0 f i backtacking.obj
 0001:00003b10       ??1?$shared_ptr@UNode@NetvarTree@@@std@@QAE@XZ 10004b10 f i backtacking.obj
 0001:00003b50       ??0?$_String_val@U?$_Simple_types@D@std@@@std@@QAE@XZ 10004b50 f i backtacking.obj
 0001:00003b80       ?_Xlen@?$basic_string@DU?$char_traits@D@std@@V?$allocator@D@2@@std@@SAXXZ 10004b80 f i backtacking.obj
 0001:00003b90       ?_Calculate_growth@?$basic_string@DU?$char_traits@D@std@@V?$allocator@D@2@@std@@QBEII@Z 10004b90 f i backtacking.obj
 0001:00003c10       ?_Decref@?$_Ptr_base@UNode@NetvarTree@@@std@@IAEXXZ 10004c10 f i backtacking.obj
 0001:00003c30       ??$_Try_emplace@V?$basic_string@DU?$char_traits@D@std@@V?$allocator@D@2@@std@@$$V@?$unordered_map@V?$basic_string@DU?$char_traits@D@std@@V?$allocator@D@2@@std@@V?$shared_ptr@UNode@NetvarTree@@@2@U?$hash@V?$basic_string@DU?$char_traits@D@std@@V?$allocator@D@2@@std@@@2@U?$equal_to@V?$basic_string@DU?$char_traits@D@std@@V?$allocator@D@2@@std@@@2@V?$allocator@U?$pair@$$CBV?$basic_string@DU?$char_traits@D@std@@V?$allocator@D@2@@std@@V?$shared_ptr@UNode@NetvarTree@@@2@@std@@@2@@std@@QAE?AU?$pair@V?$_List_iterator@V?$_List_val@U?$_List_simple_types@U?$pair@$$CBV?$basic_string@DU?$char_traits@D@std@@V?$allocator@D@2@@std@@V?$shared_ptr@UNode@NetvarTree@@@2@@std@@@std@@@std@@@std@@_N@1@$$QAV?$basic_string@DU?$char_traits@D@std@@V?$allocator@D@2@@1@@Z 10004c30 f i backtacking.obj
 0001:00003cd0       ??$?0V?$allocator@D@std@@$$V@?$_Compressed_pair@V?$allocator@D@std@@V?$_String_val@U?$_Simple_types@D@std@@@2@$00@std@@QAE@U_One_then_variadic_args_t@1@$$QAV?$allocator@D@1@@Z 10004cd0 f i backtacking.obj
 0001:00003cd0       ??$?0ABV?$allocator@D@std@@$$V@?$_Compressed_pair@V?$allocator@D@std@@V?$_String_val@U?$_Simple_types@D@std@@@2@$00@std@@QAE@U_One_then_variadic_args_t@1@ABV?$allocator@D@1@@Z 10004cd0 f i chams.obj
 0001:00003d00       ??$_Ptr_move_cat@PAV?$ConfigValue@M@@PAV1@@std@@YA?AU_Really_trivial_ptr_iterator_tag@0@ABQAPAV?$ConfigValue@M@@0@Z 10004d00 f i cfgsaving.obj
 0001:00003d00       ??$_Ptr_move_cat@V?$_List_unchecked_iterator@V?$_List_val@U?$_List_simple_types@U?$pair@$$CBV?$basic_string@DU?$char_traits@D@std@@V?$allocator@D@2@@std@@V?$shared_ptr@UNode@NetvarTree@@@2@@std@@@std@@@std@@@std@@V12@@std@@YA?AU_Trivially_copyable_ptr_iterator_tag@0@ABQAV?$_List_unchecked_iterator@V?$_List_val@U?$_List_simple_types@U?$pair@$$CBV?$basic_string@DU?$char_traits@D@std@@V?$allocator@D@2@@std@@V?$shared_ptr@UNode@NetvarTree@@@2@@std@@@std@@@std@@@0@0@Z 10004d00 f i backtacking.obj
 0001:00003d00       ??$_Ptr_copy_cat@QBDPBD@std@@YA?AU_Really_trivial_ptr_iterator_tag@0@ABQBQBDABQAPBD@Z 10004d00 f i Hooks.obj
 0001:00003d00       ??$_Ptr_copy_cat@PAUPlayerRecords@@PAU1@@std@@YA?AU_Really_trivial_ptr_iterator_tag@0@ABQAPAUPlayerRecords@@0@Z 10004d00 f i LagComp.obj
 0001:00003d00       ??$_Ptr_move_cat@HH@std@@YA?AU_Really_trivial_ptr_iterator_tag@0@ABQAH0@Z 10004d00 f i Aimbot.obj
 0001:00003d00       ??$_Ptr_move_cat@PAVDot@@PAV1@@std@@YA?AU_Really_trivial_ptr_iterator_tag@0@ABQAPAVDot@@0@Z 10004d00 f i dots.obj
 0001:00003d00       ??$_Ptr_move_cat@PAV?$ConfigValue@H@@PAV1@@std@@YA?AU_Really_trivial_ptr_iterator_tag@0@ABQAPAV?$ConfigValue@H@@0@Z 10004d00 f i cfgsaving.obj
 0001:00003d00       ??$_Ptr_copy_cat@PAUlc_record@@PAU1@@std@@YA?AU_Really_trivial_ptr_iterator_tag@0@ABQAPAUlc_record@@0@Z 10004d00 f i backtacking.obj
 0001:00003d00       ??$_Ptr_move_cat@PAV?$ConfigValue@_N@@PAV1@@std@@YA?AU_Really_trivial_ptr_iterator_tag@0@ABQAPAV?$ConfigValue@_N@@0@Z 10004d00 f i cfgsaving.obj
 0001:00003d10       ??$_Uninitialized_move_al_unchecked@PAV?$ConfigValue@_N@@PAV1@V?$allocator@PAV?$ConfigValue@_N@@@std@@@std@@YAPAPAV?$ConfigValue@_N@@QAPAV1@00AAV?$allocator@PAV?$ConfigValue@_N@@@0@U_Really_trivial_ptr_iterator_tag@0@U?$integral_constant@_N$00@0@@Z 10004d10 f i cfgsaving.obj
 0001:00003d10       ??$_Uninitialized_move_al_unchecked@HHV?$allocator@H@std@@@std@@YAPAHQAH00AAV?$allocator@H@0@U_Really_trivial_ptr_iterator_tag@0@U?$integral_constant@_N$00@0@@Z 10004d10 f i Aimbot.obj
 0001:00003d10       ??$_Uninitialized_move_al_unchecked@PAV?$ConfigValue@M@@PAV1@V?$allocator@PAV?$ConfigValue@M@@@std@@@std@@YAPAPAV?$ConfigValue@M@@QAPAV1@00AAV?$allocator@PAV?$ConfigValue@M@@@0@U_Really_trivial_ptr_iterator_tag@0@U?$integral_constant@_N$00@0@@Z 10004d10 f i cfgsaving.obj
 0001:00003d10       ??$_Uninitialized_move_al_unchecked@PAVDot@@PAV1@V?$allocator@PAVDot@@@std@@@std@@YAPAPAVDot@@QAPAV1@00AAV?$allocator@PAVDot@@@0@U_Really_trivial_ptr_iterator_tag@0@U?$integral_constant@_N$00@0@@Z 10004d10 f i dots.obj
 0001:00003d10       ??$_Uninitialized_move_al_unchecked@PAV?$ConfigValue@H@@PAV1@V?$allocator@PAV?$ConfigValue@H@@@std@@@std@@YAPAPAV?$ConfigValue@H@@QAPAV1@00AAV?$allocator@PAV?$ConfigValue@H@@@0@U_Really_trivial_ptr_iterator_tag@0@U?$integral_constant@_N$00@0@@Z 10004d10 f i cfgsaving.obj
 0001:00003d10       ??$_Uninitialized_copy_al_unchecked@PAUlc_record@@PAU1@V?$allocator@PAUlc_record@@@std@@@std@@YAPAPAUlc_record@@QAPAU1@00AAV?$allocator@PAUlc_record@@@0@U_Really_trivial_ptr_iterator_tag@0@U?$integral_constant@_N$00@0@@Z 10004d10 f i backtacking.obj
 0001:00003d10       ??$_Move_unchecked1@PAPAVDot@@PAPAV1@@std@@YAPAPAVDot@@PAPAV1@00U_Trivially_copyable_ptr_iterator_tag@0@@Z 10004d10 f i dots.obj
 0001:00003d10       ??$_Uninitialized_copy_al_unchecked@QBDPBDV?$allocator@PBD@std@@@std@@YAPAPBDQBQBD0QAPBDAAV?$allocator@PBD@0@U_Really_trivial_ptr_iterator_tag@0@U?$integral_constant@_N$00@0@@Z 10004d10 f i Hooks.obj
 0001:00003d10       ??$_Uninitialized_copy_al_unchecked@PAUPlayerRecords@@PAU1@V?$allocator@PAUPlayerRecords@@@std@@@std@@YAPAPAUPlayerRecords@@QAPAU1@00AAV?$allocator@PAUPlayerRecords@@@0@U_Really_trivial_ptr_iterator_tag@0@U?$integral_constant@_N$00@0@@Z 10004d10 f i LagComp.obj
 0001:00003d30       ??$_Seek_wrapped@PAUlc_record@@@std@@YAXAAPAPAUlc_record@@QAPAU1@@Z 10004d30 f i backtacking.obj
 0001:00003d30       ??$_Seek_wrapped@H@std@@YAXAAPAHQAH@Z 10004d30 f i Aimbot.obj
 0001:00003d30       ??$_Seek_wrapped@PAUPlayerRecords@@@std@@YAXAAPAPAUPlayerRecords@@QAPAU1@@Z 10004d30 f i LagComp.obj
 0001:00003d30       ??$_Seek_wrapped@PBD@std@@YAXAAPAPBDQAPBD@Z 10004d30 f i Hooks.obj
 0001:00003d30       ??$_Seek_wrapped@PAV?$ConfigValue@H@@@std@@YAXAAPAPAV?$ConfigValue@H@@QAPAV1@@Z 10004d30 f i cfgsaving.obj
 0001:00003d30       ??$_Seek_wrapped@VCMessage@@@std@@YAXAAPAVCMessage@@QAV1@@Z 10004d30 f i Event Logs.obj
 0001:00003d30       ??$_Seek_wrapped@V?$basic_string@DU?$char_traits@D@std@@V?$allocator@D@2@@std@@@std@@YAXAAPAV?$basic_string@DU?$char_traits@D@std@@V?$allocator@D@2@@0@QAV10@@Z 10004d30 f i Menu.obj
 0001:00003d30       ??$_Seek_wrapped@PAVDot@@@std@@YAXAAPAPAVDot@@QAPAV1@@Z 10004d30 f i dots.obj
 0001:00003d30       ??$_Seek_wrapped@PAV?$ConfigValue@_N@@@std@@YAXAAPAPAV?$ConfigValue@_N@@QAPAV1@@Z 10004d30 f i cfgsaving.obj
 0001:00003d30       ??$_Seek_wrapped@V?$_List_unchecked_iterator@V?$_List_val@U?$_List_simple_types@U?$pair@$$CBV?$basic_string@DU?$char_traits@D@std@@V?$allocator@D@2@@std@@V?$shared_ptr@UNode@NetvarTree@@@2@@std@@@std@@@std@@@std@@@std@@YAXAAPAV?$_List_unchecked_iterator@V?$_List_val@U?$_List_simple_types@U?$pair@$$CBV?$basic_string@DU?$char_traits@D@std@@V?$allocator@D@2@@std@@V?$shared_ptr@UNode@NetvarTree@@@2@@std@@@std@@@std@@@0@QAV10@@Z 10004d30 f i backtacking.obj
 0001:00003d30       ??$_Seek_wrapped@Vtrace_info@@@std@@YAXAAPAVtrace_info@@QAV1@@Z 10004d30 f i Hooks.obj
 0001:00003d30       ??$_Seek_wrapped@PAV?$ConfigValue@M@@@std@@YAXAAPAPAV?$ConfigValue@M@@QAPAV1@@Z 10004d30 f i cfgsaving.obj
 0001:00003d40       ??$_Uninitialized_value_construct_n1@PAPAUlc_record@@IV?$allocator@PAUlc_record@@@std@@@std@@YAPAPAUlc_record@@PAPAU1@IAAV?$allocator@PAUlc_record@@@0@U?$integral_constant@_N$00@0@@Z 10004d40 f i backtacking.obj
 0001:00003d40       ??$_Uninitialized_value_construct_n1@PAPAUPlayerRecords@@IV?$allocator@PAUPlayerRecords@@@std@@@std@@YAPAPAUPlayerRecords@@PAPAU1@IAAV?$allocator@PAUPlayerRecords@@@0@U?$integral_constant@_N$00@0@@Z 10004d40 f i LagComp.obj
 0001:00003d60       ??$_Allocate_manually_vector_aligned@U_Default_allocate_traits@std@@@std@@YAPAXI@Z 10004d60 f i backtacking.obj
 0001:00003dd0       ??$_Fill_memset_is_safe@PAV?$_List_unchecked_iterator@V?$_List_val@U?$_List_simple_types@U?$pair@$$CBV?$basic_string@DU?$char_traits@D@std@@V?$allocator@D@2@@std@@V?$shared_ptr@UNode@NetvarTree@@@2@@std@@@std@@@std@@@std@@V12@@std@@YA?AU?$integral_constant@_N$0A@@0@ABQAV?$_List_unchecked_iterator@V?$_List_val@U?$_List_simple_types@U?$pair@$$CBV?$basic_string@DU?$char_traits@D@std@@V?$allocator@D@2@@std@@V?$shared_ptr@UNode@NetvarTree@@@2@@std@@@std@@@std@@@0@ABV20@@Z 10004dd0 f i backtacking.obj
 0001:00003dd0       ??$_Ptr_copy_cat@$$CBV?$basic_string@DU?$char_traits@D@std@@V?$allocator@D@2@@std@@V12@@std@@YA?AU_General_ptr_iterator_tag@0@ABQBV?$basic_string@DU?$char_traits@D@std@@V?$allocator@D@2@@0@ABQAV20@@Z 10004dd0 f i Menu.obj
 0001:00003dd0       ??$_Ptr_move_cat@Vtrace_info@@V1@@std@@YA?AU_General_ptr_iterator_tag@0@ABQAVtrace_info@@0@Z 10004dd0 f i Hooks.obj
 0001:00003dd0       ??$_Ptr_move_cat@V?$_Deque_unchecked_iterator@V?$_Deque_val@U?$_Deque_simple_types@UPlayerRecords@@@std@@@std@@@std@@V12@@std@@YA?AU_General_ptr_iterator_tag@0@ABV?$_Deque_unchecked_iterator@V?$_Deque_val@U?$_Deque_simple_types@UPlayerRecords@@@std@@@std@@@0@0@Z 10004dd0 f i LagComp.obj
 0001:00003dd0       ??$_Ptr_move_cat@V?$basic_string@DU?$char_traits@D@std@@V?$allocator@D@2@@std@@V12@@std@@YA?AU_General_ptr_iterator_tag@0@ABQAV?$basic_string@DU?$char_traits@D@std@@V?$allocator@D@2@@0@0@Z 10004dd0 f i ESP.obj
 0001:00003dd0       ??$_Ptr_move_cat@VCMessage@@V1@@std@@YA?AU_General_ptr_iterator_tag@0@ABQAVCMessage@@0@Z 10004dd0 f i Event Logs.obj
 0001:00003de0       ??$_Fill_unchecked1@PAV?$_List_unchecked_iterator@V?$_List_val@U?$_List_simple_types@U?$pair@$$CBV?$basic_string@DU?$char_traits@D@std@@V?$allocator@D@2@@std@@V?$shared_ptr@UNode@NetvarTree@@@2@@std@@@std@@@std@@@std@@V12@@std@@YAXPAV?$_List_unchecked_iterator@V?$_List_val@U?$_List_simple_types@U?$pair@$$CBV?$basic_string@DU?$char_traits@D@std@@V?$allocator@D@2@@std@@V?$shared_ptr@UNode@NetvarTree@@@2@@std@@@std@@@std@@@0@0ABV10@U?$integral_constant@_N$0A@@0@@Z 10004de0 f i backtacking.obj
 0001:00003e10       ??$_Uninit_alloc_fill_n1@PAV?$_List_unchecked_iterator@V?$_List_val@U?$_List_simple_types@U?$pair@$$CBV?$basic_string@DU?$char_traits@D@std@@V?$allocator@D@2@@std@@V?$shared_ptr@UNode@NetvarTree@@@2@@std@@@std@@@std@@@std@@IV?$allocator@V?$_List_unchecked_iterator@V?$_List_val@U?$_List_simple_types@U?$pair@$$CBV?$basic_string@DU?$char_traits@D@std@@V?$allocator@D@2@@std@@V?$shared_ptr@UNode@NetvarTree@@@2@@std@@@std@@@std@@@std@@@2@@std@@YAPAV?$_List_unchecked_iterator@V?$_List_val@U?$_List_simple_types@U?$pair@$$CBV?$basic_string@DU?$char_traits@D@std@@V?$allocator@D@2@@std@@V?$shared_ptr@UNode@NetvarTree@@@2@@std@@@std@@@std@@@0@QAV10@IABV10@AAV?$allocator@V?$_List_unchecked_iterator@V?$_List_val@U?$_List_simple_types@U?$pair@$$CBV?$basic_string@DU?$char_traits@D@std@@V?$allocator@D@2@@std@@V?$shared_ptr@UNode@NetvarTree@@@2@@std@@@std@@@std@@@std@@@0@U?$integral_constant@_N$0A@@0@@Z 10004e10 f i backtacking.obj
 0001:00003e90       ??$_Uninitialized_move_al_unchecked@PAV?$_List_unchecked_iterator@V?$_List_val@U?$_List_simple_types@U?$pair@$$CBV?$basic_string@DU?$char_traits@D@std@@V?$allocator@D@2@@std@@V?$shared_ptr@UNode@NetvarTree@@@2@@std@@@std@@@std@@@std@@PAV12@V?$allocator@V?$_List_unchecked_iterator@V?$_List_val@U?$_List_simple_types@U?$pair@$$CBV?$basic_string@DU?$char_traits@D@std@@V?$allocator@D@2@@std@@V?$shared_ptr@UNode@NetvarTree@@@2@@std@@@std@@@std@@@std@@@2@@std@@YAPAV?$_List_unchecked_iterator@V?$_List_val@U?$_List_simple_types@U?$pair@$$CBV?$basic_string@DU?$char_traits@D@std@@V?$allocator@D@2@@std@@V?$shared_ptr@UNode@NetvarTree@@@2@@std@@@std@@@std@@@0@PAV10@QAV10@1AAV?$allocator@V?$_List_unchecked_iterator@V?$_List_val@U?$_List_simple_types@U?$pair@$$CBV?$basic_string@DU?$char_traits@D@std@@V?$allocator@D@2@@std@@V?$shared_ptr@UNode@NetvarTree@@@2@@std@@@std@@@std@@@std@@@0@U_General_ptr_iterator_tag@0@U_Unused_parameter@0@@Z 10004e90 f i backtacking.obj
 0001:00003f20       ?_Release@?$_Uninitialized_backout_al@PAV?$basic_string@DU?$char_traits@D@std@@V?$allocator@D@2@@std@@V?$allocator@V?$basic_string@DU?$char_traits@D@std@@V?$allocator@D@2@@std@@@2@@std@@QAEPAV?$basic_string@DU?$char_traits@D@std@@V?$allocator@D@2@@2@XZ 10004f20 f i Menu.obj
 0001:00003f20       ?_Release@?$_Uninitialized_backout_al@PAVtrace_info@@V?$allocator@Vtrace_info@@@std@@@std@@QAEPAVtrace_info@@XZ 10004f20 f i Hooks.obj
 0001:00003f20       ?_Release@?$_Uninitialized_backout_al@PAV?$_List_unchecked_iterator@V?$_List_val@U?$_List_simple_types@U?$pair@$$CBV?$basic_string@DU?$char_traits@D@std@@V?$allocator@D@2@@std@@V?$shared_ptr@UNode@NetvarTree@@@2@@std@@@std@@@std@@@std@@V?$allocator@V?$_List_unchecked_iterator@V?$_List_val@U?$_List_simple_types@U?$pair@$$CBV?$basic_string@DU?$char_traits@D@std@@V?$allocator@D@2@@std@@V?$shared_ptr@UNode@NetvarTree@@@2@@std@@@std@@@std@@@std@@@2@@std@@QAEPAV?$_List_unchecked_iterator@V?$_List_val@U?$_List_simple_types@U?$pair@$$CBV?$basic_string@DU?$char_traits@D@std@@V?$allocator@D@2@@std@@V?$shared_ptr@UNode@NetvarTree@@@2@@std@@@std@@@std@@@2@XZ 10004f20 f i backtacking.obj
 0001:00003f20       ?_Release@?$_Uninitialized_backout_al@PAVCMessage@@V?$allocator@VCMessage@@@std@@@std@@QAEPAVCMessage@@XZ 10004f20 f i Event Logs.obj
 0001:00003f40       ??1?$_Uninitialized_backout_al@PAVtrace_info@@V?$allocator@Vtrace_info@@@std@@@std@@QAE@XZ 10004f40 f i Hooks.obj
 0001:00003f40       ??1?$_Uninitialized_backout_al@PAV?$_List_unchecked_iterator@V?$_List_val@U?$_List_simple_types@U?$pair@$$CBV?$basic_string@DU?$char_traits@D@std@@V?$allocator@D@2@@std@@V?$shared_ptr@UNode@NetvarTree@@@2@@std@@@std@@@std@@@std@@V?$allocator@V?$_List_unchecked_iterator@V?$_List_val@U?$_List_simple_types@U?$pair@$$CBV?$basic_string@DU?$char_traits@D@std@@V?$allocator@D@2@@std@@V?$shared_ptr@UNode@NetvarTree@@@2@@std@@@std@@@std@@@std@@@2@@std@@QAE@XZ 10004f40 f i backtacking.obj
 0001:00003f90       ??0?$_Uninitialized_backout_al@PAVtrace_info@@V?$allocator@Vtrace_info@@@std@@@std@@QAE@PAVtrace_info@@AAV?$allocator@Vtrace_info@@@1@@Z 10004f90 f i Hooks.obj
 0001:00003f90       ??0?$_Uninitialized_backout_al@PAVCMessage@@V?$allocator@VCMessage@@@std@@@std@@QAE@PAVCMessage@@AAV?$allocator@VCMessage@@@1@@Z 10004f90 f i Event Logs.obj
 0001:00003f90       ??0?$_Uninitialized_backout_al@PAV?$basic_string@DU?$char_traits@D@std@@V?$allocator@D@2@@std@@V?$allocator@V?$basic_string@DU?$char_traits@D@std@@V?$allocator@D@2@@std@@@2@@std@@QAE@PAV?$basic_string@DU?$char_traits@D@std@@V?$allocator@D@2@@1@AAV?$allocator@V?$basic_string@DU?$char_traits@D@std@@V?$allocator@D@2@@std@@@1@@Z 10004f90 f i Menu.obj
 0001:00003f90       ??0?$_Uninitialized_backout_al@PAV?$_List_unchecked_iterator@V?$_List_val@U?$_List_simple_types@U?$pair@$$CBV?$basic_string@DU?$char_traits@D@std@@V?$allocator@D@2@@std@@V?$shared_ptr@UNode@NetvarTree@@@2@@std@@@std@@@std@@@std@@V?$allocator@V?$_List_unchecked_iterator@V?$_List_val@U?$_List_simple_types@U?$pair@$$CBV?$basic_string@DU?$char_traits@D@std@@V?$allocator@D@2@@std@@V?$shared_ptr@UNode@NetvarTree@@@2@@std@@@std@@@std@@@std@@@2@@std@@QAE@PAV?$_List_unchecked_iterator@V?$_List_val@U?$_List_simple_types@U?$pair@$$CBV?$basic_string@DU?$char_traits@D@std@@V?$allocator@D@2@@std@@V?$shared_ptr@UNode@NetvarTree@@@2@@std@@@std@@@std@@@1@AAV?$allocator@V?$_List_unchecked_iterator@V?$_List_val@U?$_List_simple_types@U?$pair@$$CBV?$basic_string@DU?$char_traits@D@std@@V?$allocator@D@2@@std@@V?$shared_ptr@UNode@NetvarTree@@@2@@std@@@std@@@std@@@std@@@1@@Z 10004f90 f i backtacking.obj
 0001:00003fc0       ??8?$_List_const_iterator@V?$_List_val@U?$_List_simple_types@U?$pair@$$CBV?$basic_string@DU?$char_traits@D@std@@V?$allocator@D@2@@std@@V?$shared_ptr@UNode@NetvarTree@@@2@@std@@@std@@@std@@@std@@QBE_NABV01@@Z 10004fc0 f i backtacking.obj
 0001:00003fc0       ??8?$_List_unchecked_const_iterator@V?$_List_val@U?$_List_simple_types@U?$pair@$$CBV?$basic_string@DU?$char_traits@D@std@@V?$allocator@D@2@@std@@V?$shared_ptr@UNode@NetvarTree@@@2@@std@@@std@@@std@@U_Iterator_base0@2@@std@@QBE_NABV01@@Z 10004fc0 f i backtacking.obj
 0001:00003ff0       ?find@?$_Hash@V?$_Umap_traits@V?$basic_string@DU?$char_traits@D@std@@V?$allocator@D@2@@std@@V?$shared_ptr@UNode@NetvarTree@@@2@V?$_Uhash_compare@V?$basic_string@DU?$char_traits@D@std@@V?$allocator@D@2@@std@@U?$hash@V?$basic_string@DU?$char_traits@D@std@@V?$allocator@D@2@@std@@@2@U?$equal_to@V?$basic_string@DU?$char_traits@D@std@@V?$allocator@D@2@@std@@@2@@2@V?$allocator@U?$pair@$$CBV?$basic_string@DU?$char_traits@D@std@@V?$allocator@D@2@@std@@V?$shared_ptr@UNode@NetvarTree@@@2@@std@@@2@$0A@@std@@@std@@QAE?AV?$_List_iterator@V?$_List_val@U?$_List_simple_types@U?$pair@$$CBV?$basic_string@DU?$char_traits@D@std@@V?$allocator@D@2@@std@@V?$shared_ptr@UNode@NetvarTree@@@2@@std@@@std@@@std@@@2@ABV?$basic_string@DU?$char_traits@D@std@@V?$allocator@D@2@@2@@Z 10004ff0 f i backtacking.obj
 0001:00004010       ?end@?$_Hash@V?$_Umap_traits@V?$basic_string@DU?$char_traits@D@std@@V?$allocator@D@2@@std@@V?$shared_ptr@UNode@NetvarTree@@@2@V?$_Uhash_compare@V?$basic_string@DU?$char_traits@D@std@@V?$allocator@D@2@@std@@U?$hash@V?$basic_string@DU?$char_traits@D@std@@V?$allocator@D@2@@std@@@2@U?$equal_to@V?$basic_string@DU?$char_traits@D@std@@V?$allocator@D@2@@std@@@2@@2@V?$allocator@U?$pair@$$CBV?$basic_string@DU?$char_traits@D@std@@V?$allocator@D@2@@std@@V?$shared_ptr@UNode@NetvarTree@@@2@@std@@@2@$0A@@std@@@std@@QAE?AV?$_List_iterator@V?$_List_val@U?$_List_simple_types@U?$pair@$$CBV?$basic_string@DU?$char_traits@D@std@@V?$allocator@D@2@@std@@V?$shared_ptr@UNode@NetvarTree@@@2@@std@@@std@@@std@@@2@XZ 10005010 f i backtacking.obj
 0001:00004040       ?_Buynode0@?$_List_alloc@U?$_List_base_types@U?$pair@$$CBV?$basic_string@DU?$char_traits@D@std@@V?$allocator@D@2@@std@@V?$shared_ptr@UNode@NetvarTree@@@2@@std@@V?$allocator@U?$pair@$$CBV?$basic_string@DU?$char_traits@D@std@@V?$allocator@D@2@@std@@V?$shared_ptr@UNode@NetvarTree@@@2@@std@@@2@@std@@@std@@QAEPAU?$_List_node@U?$pair@$$CBV?$basic_string@DU?$char_traits@D@std@@V?$allocator@D@2@@std@@V?$shared_ptr@UNode@NetvarTree@@@2@@std@@PAX@2@PAU32@0@Z 10005040 f i backtacking.obj
 0001:00004130       ?end@?$list@U?$pair@$$CBV?$basic_string@DU?$char_traits@D@std@@V?$allocator@D@2@@std@@V?$shared_ptr@UNode@NetvarTree@@@2@@std@@V?$allocator@U?$pair@$$CBV?$basic_string@DU?$char_traits@D@std@@V?$allocator@D@2@@std@@V?$shared_ptr@UNode@NetvarTree@@@2@@std@@@2@@std@@QAE?AV?$_List_iterator@V?$_List_val@U?$_List_simple_types@U?$pair@$$CBV?$basic_string@DU?$char_traits@D@std@@V?$allocator@D@2@@std@@V?$shared_ptr@UNode@NetvarTree@@@2@@std@@@std@@@std@@@2@XZ 10005130 f i backtacking.obj
 0001:000041a0       ?lower_bound@?$_Hash@V?$_Umap_traits@V?$basic_string@DU?$char_traits@D@std@@V?$allocator@D@2@@std@@V?$shared_ptr@UNode@NetvarTree@@@2@V?$_Uhash_compare@V?$basic_string@DU?$char_traits@D@std@@V?$allocator@D@2@@std@@U?$hash@V?$basic_string@DU?$char_traits@D@std@@V?$allocator@D@2@@std@@@2@U?$equal_to@V?$basic_string@DU?$char_traits@D@std@@V?$allocator@D@2@@std@@@2@@2@V?$allocator@U?$pair@$$CBV?$basic_string@DU?$char_traits@D@std@@V?$allocator@D@2@@std@@V?$shared_ptr@UNode@NetvarTree@@@2@@std@@@2@$0A@@std@@@std@@QAE?AV?$_List_iterator@V?$_List_val@U?$_List_simple_types@U?$pair@$$CBV?$basic_string@DU?$char_traits@D@std@@V?$allocator@D@2@@std@@V?$shared_ptr@UNode@NetvarTree@@@2@@std@@@std@@@std@@@2@ABV?$basic_string@DU?$char_traits@D@std@@V?$allocator@D@2@@2@@Z 100051a0 f i backtacking.obj
 0001:000042b0       ??9?$_List_unchecked_const_iterator@V?$_List_val@U?$_List_simple_types@U?$pair@$$CBV?$basic_string@DU?$char_traits@D@std@@V?$allocator@D@2@@std@@V?$shared_ptr@UNode@NetvarTree@@@2@@std@@@std@@@std@@U_Iterator_base0@2@@std@@QBE_NABV01@@Z 100052b0 f i backtacking.obj
 0001:000042f0       ??E?$_List_unchecked_iterator@V?$_List_val@U?$_List_simple_types@U?$pair@$$CBV?$basic_string@DU?$char_traits@D@std@@V?$allocator@D@2@@std@@V?$shared_ptr@UNode@NetvarTree@@@2@@std@@@std@@@std@@@std@@QAEAAV01@XZ 100052f0 f i backtacking.obj
 0001:00004310       ??0?$_List_iterator@V?$_List_val@U?$_List_simple_types@U?$pair@$$CBV?$basic_string@DU?$char_traits@D@std@@V?$allocator@D@2@@std@@V?$shared_ptr@UNode@NetvarTree@@@2@@std@@@std@@@std@@@std@@QAE@PAU?$_List_node@U?$pair@$$CBV?$basic_string@DU?$char_traits@D@std@@V?$allocator@D@2@@std@@V?$shared_ptr@UNode@NetvarTree@@@2@@std@@PAX@1@PBV?$_List_val@U?$_List_simple_types@U?$pair@$$CBV?$basic_string@DU?$char_traits@D@std@@V?$allocator@D@2@@std@@V?$shared_ptr@UNode@NetvarTree@@@2@@std@@@std@@@1@@Z 10005310 f i backtacking.obj
 0001:00004330       ?allocate@?$allocator@U?$_List_node@U?$pair@$$CBV?$basic_string@DU?$char_traits@D@std@@V?$allocator@D@2@@std@@V?$shared_ptr@UNode@NetvarTree@@@2@@std@@PAX@std@@@std@@QAEPAU?$_List_node@U?$pair@$$CBV?$basic_string@DU?$char_traits@D@std@@V?$allocator@D@2@@std@@V?$shared_ptr@UNode@NetvarTree@@@2@@std@@PAX@2@I@Z 10005330 f i backtacking.obj
 0001:00004360       ?deallocate@?$allocator@U?$_List_node@U?$pair@$$CBV?$basic_string@DU?$char_traits@D@std@@V?$allocator@D@2@@std@@V?$shared_ptr@UNode@NetvarTree@@@2@@std@@PAX@std@@@std@@QAEXQAU?$_List_node@U?$pair@$$CBV?$basic_string@DU?$char_traits@D@std@@V?$allocator@D@2@@std@@V?$shared_ptr@UNode@NetvarTree@@@2@@std@@PAX@2@I@Z 10005360 f i backtacking.obj
 0001:00004380       ?_Hashval@?$_Hash@V?$_Umap_traits@V?$basic_string@DU?$char_traits@D@std@@V?$allocator@D@2@@std@@V?$shared_ptr@UNode@NetvarTree@@@2@V?$_Uhash_compare@V?$basic_string@DU?$char_traits@D@std@@V?$allocator@D@2@@std@@U?$hash@V?$basic_string@DU?$char_traits@D@std@@V?$allocator@D@2@@std@@@2@U?$equal_to@V?$basic_string@DU?$char_traits@D@std@@V?$allocator@D@2@@std@@@2@@2@V?$allocator@U?$pair@$$CBV?$basic_string@DU?$char_traits@D@std@@V?$allocator@D@2@@std@@V?$shared_ptr@UNode@NetvarTree@@@2@@std@@@2@$0A@@std@@@std@@IBEIABV?$basic_string@DU?$char_traits@D@std@@V?$allocator@D@2@@2@@Z 10005380 f i backtacking.obj
 0001:000043b0       ?_End@?$_Hash@V?$_Umap_traits@V?$basic_string@DU?$char_traits@D@std@@V?$allocator@D@2@@std@@V?$shared_ptr@UNode@NetvarTree@@@2@V?$_Uhash_compare@V?$basic_string@DU?$char_traits@D@std@@V?$allocator@D@2@@std@@U?$hash@V?$basic_string@DU?$char_traits@D@std@@V?$allocator@D@2@@std@@@2@U?$equal_to@V?$basic_string@DU?$char_traits@D@std@@V?$allocator@D@2@@std@@@2@@2@V?$allocator@U?$pair@$$CBV?$basic_string@DU?$char_traits@D@std@@V?$allocator@D@2@@std@@V?$shared_ptr@UNode@NetvarTree@@@2@@std@@@2@$0A@@std@@@std@@IAE?AV?$_List_unchecked_iterator@V?$_List_val@U?$_List_simple_types@U?$pair@$$CBV?$basic_string@DU?$char_traits@D@std@@V?$allocator@D@2@@std@@V?$shared_ptr@UNode@NetvarTree@@@2@@std@@@std@@@std@@@2@I@Z 100053b0 f i backtacking.obj
 0001:00004430       ?_Begin@?$_Hash@V?$_Umap_traits@V?$basic_string@DU?$char_traits@D@std@@V?$allocator@D@2@@std@@V?$shared_ptr@UNode@NetvarTree@@@2@V?$_Uhash_compare@V?$basic_string@DU?$char_traits@D@std@@V?$allocator@D@2@@std@@U?$hash@V?$basic_string@DU?$char_traits@D@std@@V?$allocator@D@2@@std@@@2@U?$equal_to@V?$basic_string@DU?$char_traits@D@std@@V?$allocator@D@2@@std@@@2@@2@V?$allocator@U?$pair@$$CBV?$basic_string@DU?$char_traits@D@std@@V?$allocator@D@2@@std@@V?$shared_ptr@UNode@NetvarTree@@@2@@std@@@2@$0A@@std@@@std@@IAE?AV?$_List_unchecked_iterator@V?$_List_val@U?$_List_simple_types@U?$pair@$$CBV?$basic_string@DU?$char_traits@D@std@@V?$allocator@D@2@@std@@V?$shared_ptr@UNode@NetvarTree@@@2@@std@@@std@@@std@@@2@I@Z 10005430 f i backtacking.obj
 0001:00004460       ?_Make_iter@?$_Hash@V?$_Umap_traits@V?$basic_string@DU?$char_traits@D@std@@V?$allocator@D@2@@std@@V?$shared_ptr@UNode@NetvarTree@@@2@V?$_Uhash_compare@V?$basic_string@DU?$char_traits@D@std@@V?$allocator@D@2@@std@@U?$hash@V?$basic_string@DU?$char_traits@D@std@@V?$allocator@D@2@@std@@@2@U?$equal_to@V?$basic_string@DU?$char_traits@D@std@@V?$allocator@D@2@@std@@@2@@2@V?$allocator@U?$pair@$$CBV?$basic_string@DU?$char_traits@D@std@@V?$allocator@D@2@@std@@V?$shared_ptr@UNode@NetvarTree@@@2@@std@@@2@$0A@@std@@@std@@QBE?AV?$_List_iterator@V?$_List_val@U?$_List_simple_types@U?$pair@$$CBV?$basic_string@DU?$char_traits@D@std@@V?$allocator@D@2@@std@@V?$shared_ptr@UNode@NetvarTree@@@2@@std@@@std@@@std@@@2@V?$_List_unchecked_const_iterator@V?$_List_val@U?$_List_simple_types@U?$pair@$$CBV?$basic_string@DU?$char_traits@D@std@@V?$allocator@D@2@@std@@V?$shared_ptr@UNode@NetvarTree@@@2@@std@@@std@@@std@@U_Iterator_base0@2@@2@@Z 10005460 f i backtacking.obj
 0001:00004490       ??R?$_Uhash_compare@V?$basic_string@DU?$char_traits@D@std@@V?$allocator@D@2@@std@@U?$hash@V?$basic_string@DU?$char_traits@D@std@@V?$allocator@D@2@@std@@@2@U?$equal_to@V?$basic_string@DU?$char_traits@D@std@@V?$allocator@D@2@@std@@@2@@std@@QBE_NABV?$basic_string@DU?$char_traits@D@std@@V?$allocator@D@2@@1@0@Z 10005490 f i backtacking.obj
 0001:000044e0       ??E?$_List_unchecked_const_iterator@V?$_List_val@U?$_List_simple_types@U?$pair@$$CBV?$basic_string@DU?$char_traits@D@std@@V?$allocator@D@2@@std@@V?$shared_ptr@UNode@NetvarTree@@@2@@std@@@std@@@std@@U_Iterator_base0@2@@std@@QAEAAV01@XZ 100054e0 f i backtacking.obj
 0001:000044e0       ??E?$_List_const_iterator@V?$_List_val@U?$_List_simple_types@U?$pair@$$CBV?$basic_string@DU?$char_traits@D@std@@V?$allocator@D@2@@std@@V?$shared_ptr@UNode@NetvarTree@@@2@@std@@@std@@@std@@@std@@QAEAAV01@XZ 100054e0 f i backtacking.obj
 0001:00004500       ?_Make_iter@?$list@U?$pair@$$CBV?$basic_string@DU?$char_traits@D@std@@V?$allocator@D@2@@std@@V?$shared_ptr@UNode@NetvarTree@@@2@@std@@V?$allocator@U?$pair@$$CBV?$basic_string@DU?$char_traits@D@std@@V?$allocator@D@2@@std@@V?$shared_ptr@UNode@NetvarTree@@@2@@std@@@2@@std@@QBE?AV?$_List_iterator@V?$_List_val@U?$_List_simple_types@U?$pair@$$CBV?$basic_string@DU?$char_traits@D@std@@V?$allocator@D@2@@std@@V?$shared_ptr@UNode@NetvarTree@@@2@@std@@@std@@@std@@@2@V?$_List_unchecked_const_iterator@V?$_List_val@U?$_List_simple_types@U?$pair@$$CBV?$basic_string@DU?$char_traits@D@std@@V?$allocator@D@2@@std@@V?$shared_ptr@UNode@NetvarTree@@@2@@std@@@std@@@std@@U_Iterator_base0@2@@2@@Z 10005500 f i backtacking.obj
 0001:00004530       ?_Vec_hi@?$_Hash@V?$_Umap_traits@V?$basic_string@DU?$char_traits@D@std@@V?$allocator@D@2@@std@@V?$shared_ptr@UNode@NetvarTree@@@2@V?$_Uhash_compare@V?$basic_string@DU?$char_traits@D@std@@V?$allocator@D@2@@std@@U?$hash@V?$basic_string@DU?$char_traits@D@std@@V?$allocator@D@2@@std@@@2@U?$equal_to@V?$basic_string@DU?$char_traits@D@std@@V?$allocator@D@2@@std@@@2@@2@V?$allocator@U?$pair@$$CBV?$basic_string@DU?$char_traits@D@std@@V?$allocator@D@2@@std@@V?$shared_ptr@UNode@NetvarTree@@@2@@std@@@2@$0A@@std@@@std@@IAEAAV?$_List_unchecked_iterator@V?$_List_val@U?$_List_simple_types@U?$pair@$$CBV?$basic_string@DU?$char_traits@D@std@@V?$allocator@D@2@@std@@V?$shared_ptr@UNode@NetvarTree@@@2@@std@@@std@@@std@@@2@I@Z 10005530 f i backtacking.obj
 0001:00004560       ?_Vec_lo@?$_Hash@V?$_Umap_traits@V?$basic_string@DU?$char_traits@D@std@@V?$allocator@D@2@@std@@V?$shared_ptr@UNode@NetvarTree@@@2@V?$_Uhash_compare@V?$basic_string@DU?$char_traits@D@std@@V?$allocator@D@2@@std@@U?$hash@V?$basic_string@DU?$char_traits@D@std@@V?$allocator@D@2@@std@@@2@U?$equal_to@V?$basic_string@DU?$char_traits@D@std@@V?$allocator@D@2@@std@@@2@@2@V?$allocator@U?$pair@$$CBV?$basic_string@DU?$char_traits@D@std@@V?$allocator@D@2@@std@@V?$shared_ptr@UNode@NetvarTree@@@2@@std@@@2@$0A@@std@@@std@@IAEAAV?$_List_unchecked_iterator@V?$_List_val@U?$_List_simple_types@U?$pair@$$CBV?$basic_string@DU?$char_traits@D@std@@V?$allocator@D@2@@std@@V?$shared_ptr@UNode@NetvarTree@@@2@@std@@@std@@@std@@@2@I@Z 10005560 f i backtacking.obj
 0001:00004590       ?_Get_max_bucket_size@?$_Uhash_compare@V?$basic_string@DU?$char_traits@D@std@@V?$allocator@D@2@@std@@U?$hash@V?$basic_string@DU?$char_traits@D@std@@V?$allocator@D@2@@std@@@2@U?$equal_to@V?$basic_string@DU?$char_traits@D@std@@V?$allocator@D@2@@std@@@2@@std@@QBEABMXZ 10005590 f i backtacking.obj
 0001:00004590       ?_Getkeyeq@?$_Uhash_compare@V?$basic_string@DU?$char_traits@D@std@@V?$allocator@D@2@@std@@U?$hash@V?$basic_string@DU?$char_traits@D@std@@V?$allocator@D@2@@std@@@2@U?$equal_to@V?$basic_string@DU?$char_traits@D@std@@V?$allocator@D@2@@std@@@2@@std@@QBEABU?$equal_to@V?$basic_string@DU?$char_traits@D@std@@V?$allocator@D@2@@std@@@2@XZ 10005590 f i backtacking.obj
 0001:00004590       ?_Get_max_bucket_size@?$_Uhash_compare@V?$basic_string@DU?$char_traits@D@std@@V?$allocator@D@2@@std@@U?$hash@V?$basic_string@DU?$char_traits@D@std@@V?$allocator@D@2@@std@@@2@U?$equal_to@V?$basic_string@DU?$char_traits@D@std@@V?$allocator@D@2@@std@@@2@@std@@QAEAAMXZ 10005590 f i NetvarManager.obj
 0001:000045b0       ??R?$_Uhash_compare@V?$basic_string@DU?$char_traits@D@std@@V?$allocator@D@2@@std@@U?$hash@V?$basic_string@DU?$char_traits@D@std@@V?$allocator@D@2@@std@@@2@U?$equal_to@V?$basic_string@DU?$char_traits@D@std@@V?$allocator@D@2@@std@@@2@@std@@QBEIABV?$basic_string@DU?$char_traits@D@std@@V?$allocator@D@2@@1@@Z 100055b0 f i backtacking.obj
 0001:000045e0       ??R?$equal_to@V?$basic_string@DU?$char_traits@D@std@@V?$allocator@D@2@@std@@@std@@QBE_NABV?$basic_string@DU?$char_traits@D@std@@V?$allocator@D@2@@1@0@Z 100055e0 f i backtacking.obj
 0001:00004600       ??A?$vector@V?$_List_unchecked_iterator@V?$_List_val@U?$_List_simple_types@U?$pair@$$CBV?$basic_string@DU?$char_traits@D@std@@V?$allocator@D@2@@std@@V?$shared_ptr@UNode@NetvarTree@@@2@@std@@@std@@@std@@@std@@V?$allocator@V?$_List_unchecked_iterator@V?$_List_val@U?$_List_simple_types@U?$pair@$$CBV?$basic_string@DU?$char_traits@D@std@@V?$allocator@D@2@@std@@V?$shared_ptr@UNode@NetvarTree@@@2@@std@@@std@@@std@@@std@@@2@@std@@QAEAAV?$_List_unchecked_iterator@V?$_List_val@U?$_List_simple_types@U?$pair@$$CBV?$basic_string@DU?$char_traits@D@std@@V?$allocator@D@2@@std@@V?$shared_ptr@UNode@NetvarTree@@@2@@std@@@std@@@std@@@1@I@Z 10005600 f i backtacking.obj
 0001:00004620       ??R?$hash@V?$basic_string@DU?$char_traits@D@std@@V?$allocator@D@2@@std@@@std@@QBEIABV?$basic_string@DU?$char_traits@D@std@@V?$allocator@D@2@@1@@Z 10005620 f i backtacking.obj
 0001:00004660       ??$forward_as_tuple@V?$basic_string@DU?$char_traits@D@std@@V?$allocator@D@2@@std@@@std@@YA?AV?$tuple@$$QAV?$basic_string@DU?$char_traits@D@std@@V?$allocator@D@2@@std@@@0@$$QAV?$basic_string@DU?$char_traits@D@std@@V?$allocator@D@2@@0@@Z 10005660 f i backtacking.obj
 0001:00004680       ??$forward_as_tuple@$$V@std@@YA?AV?$tuple@$$V@0@XZ 10005680 f i backtacking.obj
 0001:00004690       ??$emplace@ABUpiecewise_construct_t@std@@V?$tuple@$$QAV?$basic_string@DU?$char_traits@D@std@@V?$allocator@D@2@@std@@@2@V?$tuple@$$V@2@@?$_Hash@V?$_Umap_traits@V?$basic_string@DU?$char_traits@D@std@@V?$allocator@D@2@@std@@V?$shared_ptr@UNode@NetvarTree@@@2@V?$_Uhash_compare@V?$basic_string@DU?$char_traits@D@std@@V?$allocator@D@2@@std@@U?$hash@V?$basic_string@DU?$char_traits@D@std@@V?$allocator@D@2@@std@@@2@U?$equal_to@V?$basic_string@DU?$char_traits@D@std@@V?$allocator@D@2@@std@@@2@@2@V?$allocator@U?$pair@$$CBV?$basic_string@DU?$char_traits@D@std@@V?$allocator@D@2@@std@@V?$shared_ptr@UNode@NetvarTree@@@2@@std@@@2@$0A@@std@@@std@@QAE?AU?$pair@V?$_List_iterator@V?$_List_val@U?$_List_simple_types@U?$pair@$$CBV?$basic_string@DU?$char_traits@D@std@@V?$allocator@D@2@@std@@V?$shared_ptr@UNode@NetvarTree@@@2@@std@@@std@@@std@@@std@@_N@1@ABUpiecewise_construct_t@1@$$QAV?$tuple@$$QAV?$basic_string@DU?$char_traits@D@std@@V?$allocator@D@2@@std@@@1@$$QAV?$tuple@$$V@1@@Z 10005690 f i backtacking.obj
 0001:00004720       ??$emplace_front@ABUpiecewise_construct_t@std@@V?$tuple@$$QAV?$basic_string@DU?$char_traits@D@std@@V?$allocator@D@2@@std@@@2@V?$tuple@$$V@2@@?$list@U?$pair@$$CBV?$basic_string@DU?$char_traits@D@std@@V?$allocator@D@2@@std@@V?$shared_ptr@UNode@NetvarTree@@@2@@std@@V?$allocator@U?$pair@$$CBV?$basic_string@DU?$char_traits@D@std@@V?$allocator@D@2@@std@@V?$shared_ptr@UNode@NetvarTree@@@2@@std@@@2@@std@@QAEAAU?$pair@$$CBV?$basic_string@DU?$char_traits@D@std@@V?$allocator@D@2@@std@@V?$shared_ptr@UNode@NetvarTree@@@2@@1@ABUpiecewise_construct_t@1@$$QAV?$tuple@$$QAV?$basic_string@DU?$char_traits@D@std@@V?$allocator@D@2@@std@@@1@$$QAV?$tuple@$$V@1@@Z 10005720 f i backtacking.obj
 0001:000047a0       ??$?0AAV?$_List_iterator@V?$_List_val@U?$_List_simple_types@U?$pair@$$CBV?$basic_string@DU?$char_traits@D@std@@V?$allocator@D@2@@std@@V?$shared_ptr@UNode@NetvarTree@@@2@@std@@@std@@@std@@@std@@_N$0A@@?$pair@V?$_List_iterator@V?$_List_val@U?$_List_simple_types@U?$pair@$$CBV?$basic_string@DU?$char_traits@D@std@@V?$allocator@D@2@@std@@V?$shared_ptr@UNode@NetvarTree@@@2@@std@@@std@@@std@@@std@@_N@std@@QAE@AAV?$_List_iterator@V?$_List_val@U?$_List_simple_types@U?$pair@$$CBV?$basic_string@DU?$char_traits@D@std@@V?$allocator@D@2@@std@@V?$shared_ptr@UNode@NetvarTree@@@2@@std@@@std@@@std@@@1@$$QA_N@Z 100057a0 f i backtacking.obj
 0001:000047a0       ??$?0V?$_List_iterator@V?$_List_val@U?$_List_simple_types@U?$pair@$$CBV?$basic_string@DU?$char_traits@D@std@@V?$allocator@D@2@@std@@V?$shared_ptr@UNode@NetvarTree@@@2@@std@@@std@@@std@@@std@@_N$0A@@?$pair@V?$_List_iterator@V?$_List_val@U?$_List_simple_types@U?$pair@$$CBV?$basic_string@DU?$char_traits@D@std@@V?$allocator@D@2@@std@@V?$shared_ptr@UNode@NetvarTree@@@2@@std@@@std@@@std@@@std@@_N@std@@QAE@$$QAV?$_List_iterator@V?$_List_val@U?$_List_simple_types@U?$pair@$$CBV?$basic_string@DU?$char_traits@D@std@@V?$allocator@D@2@@std@@V?$shared_ptr@UNode@NetvarTree@@@2@@std@@@std@@@std@@@1@$$QA_N@Z 100057a0 f i backtacking.obj
 0001:000047e0       ??$_Copy_memmove@PAPAUPlayerRecords@@PAPAU1@@std@@YAPAPAUPlayerRecords@@PAPAU1@00@Z 100057e0 f i LagComp.obj
 0001:000047e0       ??$_Copy_memmove@PAPAVDot@@PAPAV1@@std@@YAPAPAVDot@@PAPAV1@00@Z 100057e0 f i dots.obj
 0001:000047e0       ??$_Copy_memmove@PAPAV?$ConfigValue@H@@PAPAV1@@std@@YAPAPAV?$ConfigValue@H@@PAPAV1@00@Z 100057e0 f i cfgsaving.obj
 0001:000047e0       ??$_Copy_memmove@PAPAV?$ConfigValue@M@@PAPAV1@@std@@YAPAPAV?$ConfigValue@M@@PAPAV1@00@Z 100057e0 f i cfgsaving.obj
 0001:000047e0       ??$_Copy_memmove@PAHPAH@std@@YAPAHPAH00@Z 100057e0 f i Aimbot.obj
 0001:000047e0       ??$_Copy_memmove@PAPAUlc_record@@PAPAU1@@std@@YAPAPAUlc_record@@PAPAU1@00@Z 100057e0 f i backtacking.obj
 0001:000047e0       ??$_Copy_memmove@PAPAV?$ConfigValue@_N@@PAPAV1@@std@@YAPAPAV?$ConfigValue@_N@@PAPAV1@00@Z 100057e0 f i cfgsaving.obj
 0001:000047e0       ??$_Copy_memmove@PBQBDPAPBD@std@@YAPAPBDPBQBD0PAPBD@Z 100057e0 f i Hooks.obj
 0001:00004820       ??$_Zero_range@PAPAUlc_record@@@std@@YAPAPAUlc_record@@QAPAU1@0@Z 10005820 f i backtacking.obj
 0001:00004820       ??$_Zero_range@PAPAUPlayerRecords@@@std@@YAPAPAUPlayerRecords@@QAPAU1@0@Z 10005820 f i LagComp.obj
 0001:00004850       ??$_Emplace_back@V?$_List_unchecked_iterator@V?$_List_val@U?$_List_simple_types@U?$pair@$$CBV?$basic_string@DU?$char_traits@D@std@@V?$allocator@D@2@@std@@V?$shared_ptr@UNode@NetvarTree@@@2@@std@@@std@@@std@@@std@@@?$_Uninitialized_backout_al@PAV?$_List_unchecked_iterator@V?$_List_val@U?$_List_simple_types@U?$pair@$$CBV?$basic_string@DU?$char_traits@D@std@@V?$allocator@D@2@@std@@V?$shared_ptr@UNode@NetvarTree@@@2@@std@@@std@@@std@@@std@@V?$allocator@V?$_List_unchecked_iterator@V?$_List_val@U?$_List_simple_types@U?$pair@$$CBV?$basic_string@DU?$char_traits@D@std@@V?$allocator@D@2@@std@@V?$shared_ptr@UNode@NetvarTree@@@2@@std@@@std@@@std@@@std@@@2@@std@@QAEX$$QAV?$_List_unchecked_iterator@V?$_List_val@U?$_List_simple_types@U?$pair@$$CBV?$basic_string@DU?$char_traits@D@std@@V?$allocator@D@2@@std@@V?$shared_ptr@UNode@NetvarTree@@@2@@std@@@std@@@std@@@1@@Z 10005850 f i backtacking.obj
 0001:00004850       ??$_Emplace_back@ABV?$_List_unchecked_iterator@V?$_List_val@U?$_List_simple_types@U?$pair@$$CBV?$basic_string@DU?$char_traits@D@std@@V?$allocator@D@2@@std@@V?$shared_ptr@UNode@NetvarTree@@@2@@std@@@std@@@std@@@std@@@?$_Uninitialized_backout_al@PAV?$_List_unchecked_iterator@V?$_List_val@U?$_List_simple_types@U?$pair@$$CBV?$basic_string@DU?$char_traits@D@std@@V?$allocator@D@2@@std@@V?$shared_ptr@UNode@NetvarTree@@@2@@std@@@std@@@std@@@std@@V?$allocator@V?$_List_unchecked_iterator@V?$_List_val@U?$_List_simple_types@U?$pair@$$CBV?$basic_string@DU?$char_traits@D@std@@V?$allocator@D@2@@std@@V?$shared_ptr@UNode@NetvarTree@@@2@@std@@@std@@@std@@@std@@@2@@std@@QAEXABV?$_List_unchecked_iterator@V?$_List_val@U?$_List_simple_types@U?$pair@$$CBV?$basic_string@DU?$char_traits@D@std@@V?$allocator@D@2@@std@@V?$shared_ptr@UNode@NetvarTree@@@2@@std@@@std@@@std@@@1@@Z 10005850 f i backtacking.obj
 0001:000048b0       ??$_Get_size_of_n@$0CI@@std@@YAII@Z 100058b0 f i backtacking.obj
 0001:000048e0       ??$?8DU?$char_traits@D@std@@V?$allocator@D@1@@std@@YA_NABV?$basic_string@DU?$char_traits@D@std@@V?$allocator@D@2@@0@0@Z 100058e0 f i backtacking.obj
 0001:00004900       ?front@?$list@U?$pair@$$CBV?$basic_string@DU?$char_traits@D@std@@V?$allocator@D@2@@std@@V?$shared_ptr@UNode@NetvarTree@@@2@@std@@V?$allocator@U?$pair@$$CBV?$basic_string@DU?$char_traits@D@std@@V?$allocator@D@2@@std@@V?$shared_ptr@UNode@NetvarTree@@@2@@std@@@2@@std@@QAEAAU?$pair@$$CBV?$basic_string@DU?$char_traits@D@std@@V?$allocator@D@2@@std@@V?$shared_ptr@UNode@NetvarTree@@@2@@2@XZ 10005900 f i backtacking.obj
 0001:00004920       ?_Unchecked_begin@?$list@U?$pair@$$CBV?$basic_string@DU?$char_traits@D@std@@V?$allocator@D@2@@std@@V?$shared_ptr@UNode@NetvarTree@@@2@@std@@V?$allocator@U?$pair@$$CBV?$basic_string@DU?$char_traits@D@std@@V?$allocator@D@2@@std@@V?$shared_ptr@UNode@NetvarTree@@@2@@std@@@2@@std@@QAE?AV?$_List_unchecked_iterator@V?$_List_val@U?$_List_simple_types@U?$pair@$$CBV?$basic_string@DU?$char_traits@D@std@@V?$allocator@D@2@@std@@V?$shared_ptr@UNode@NetvarTree@@@2@@std@@@std@@@std@@@2@XZ 10005920 f i backtacking.obj
 0001:00004950       ?_Unchecked_begin@?$_Hash@V?$_Umap_traits@V?$basic_string@DU?$char_traits@D@std@@V?$allocator@D@2@@std@@V?$shared_ptr@UNode@NetvarTree@@@2@V?$_Uhash_compare@V?$basic_string@DU?$char_traits@D@std@@V?$allocator@D@2@@std@@U?$hash@V?$basic_string@DU?$char_traits@D@std@@V?$allocator@D@2@@std@@@2@U?$equal_to@V?$basic_string@DU?$char_traits@D@std@@V?$allocator@D@2@@std@@@2@@2@V?$allocator@U?$pair@$$CBV?$basic_string@DU?$char_traits@D@std@@V?$allocator@D@2@@std@@V?$shared_ptr@UNode@NetvarTree@@@2@@std@@@2@$0A@@std@@@std@@QAE?AV?$_List_unchecked_iterator@V?$_List_val@U?$_List_simple_types@U?$pair@$$CBV?$basic_string@DU?$char_traits@D@std@@V?$allocator@D@2@@std@@V?$shared_ptr@UNode@NetvarTree@@@2@@std@@@std@@@std@@@2@XZ 10005950 f i backtacking.obj
 0001:00004980       ?_Equal@?$basic_string@DU?$char_traits@D@std@@V?$allocator@D@2@@std@@QBE_NABV12@@Z 10005980 f i backtacking.obj
 0001:00004a10       ?begin@?$list@U?$pair@$$CBV?$basic_string@DU?$char_traits@D@std@@V?$allocator@D@2@@std@@V?$shared_ptr@UNode@NetvarTree@@@2@@std@@V?$allocator@U?$pair@$$CBV?$basic_string@DU?$char_traits@D@std@@V?$allocator@D@2@@std@@V?$shared_ptr@UNode@NetvarTree@@@2@@std@@@2@@std@@QAE?AV?$_List_iterator@V?$_List_val@U?$_List_simple_types@U?$pair@$$CBV?$basic_string@DU?$char_traits@D@std@@V?$allocator@D@2@@std@@V?$shared_ptr@UNode@NetvarTree@@@2@@std@@@std@@@std@@@2@XZ 10005a10 f i backtacking.obj
 0001:00004a80       ??$?0V?$basic_string@DU?$char_traits@D@std@@V?$allocator@D@2@@std@@$$V$0A@@?$tuple@$$QAV?$basic_string@DU?$char_traits@D@std@@V?$allocator@D@2@@std@@@std@@QAE@$$QAV?$basic_string@DU?$char_traits@D@std@@V?$allocator@D@2@@1@@Z 10005a80 f i backtacking.obj
 0001:00004ae0       ??$_Insert@ABUpiecewise_construct_t@std@@V?$tuple@$$QAV?$basic_string@DU?$char_traits@D@std@@V?$allocator@D@2@@std@@@2@V?$tuple@$$V@2@@?$list@U?$pair@$$CBV?$basic_string@DU?$char_traits@D@std@@V?$allocator@D@2@@std@@V?$shared_ptr@UNode@NetvarTree@@@2@@std@@V?$allocator@U?$pair@$$CBV?$basic_string@DU?$char_traits@D@std@@V?$allocator@D@2@@std@@V?$shared_ptr@UNode@NetvarTree@@@2@@std@@@2@@std@@QAEXV?$_List_unchecked_const_iterator@V?$_List_val@U?$_List_simple_types@U?$pair@$$CBV?$basic_string@DU?$char_traits@D@std@@V?$allocator@D@2@@std@@V?$shared_ptr@UNode@NetvarTree@@@2@@std@@@std@@@std@@U_Iterator_base0@2@@1@ABUpiecewise_construct_t@1@$$QAV?$tuple@$$QAV?$basic_string@DU?$char_traits@D@std@@V?$allocator@D@2@@std@@@1@$$QAV?$tuple@$$V@1@@Z 10005ae0 f i backtacking.obj
 0001:00004b70       ??$_Insert@AAU?$pair@$$CBV?$basic_string@DU?$char_traits@D@std@@V?$allocator@D@2@@std@@V?$shared_ptr@UNode@NetvarTree@@@2@@std@@V?$_List_unchecked_iterator@V?$_List_val@U?$_List_simple_types@U?$pair@$$CBV?$basic_string@DU?$char_traits@D@std@@V?$allocator@D@2@@std@@V?$shared_ptr@UNode@NetvarTree@@@2@@std@@@std@@@std@@@2@@?$_Hash@V?$_Umap_traits@V?$basic_string@DU?$char_traits@D@std@@V?$allocator@D@2@@std@@V?$shared_ptr@UNode@NetvarTree@@@2@V?$_Uhash_compare@V?$basic_string@DU?$char_traits@D@std@@V?$allocator@D@2@@std@@U?$hash@V?$basic_string@DU?$char_traits@D@std@@V?$allocator@D@2@@std@@@2@U?$equal_to@V?$basic_string@DU?$char_traits@D@std@@V?$allocator@D@2@@std@@@2@@2@V?$allocator@U?$pair@$$CBV?$basic_string@DU?$char_traits@D@std@@V?$allocator@D@2@@std@@V?$shared_ptr@UNode@NetvarTree@@@2@@std@@@2@$0A@@std@@@std@@IAE?AU?$pair@V?$_List_iterator@V?$_List_val@U?$_List_simple_types@U?$pair@$$CBV?$basic_string@DU?$char_traits@D@std@@V?$allocator@D@2@@std@@V?$shared_ptr@UNode@NetvarTree@@@2@@std@@@std@@@std@@@std@@_N@1@AAU?$pair@$$CBV?$basic_string@DU?$char_traits@D@std@@V?$allocator@D@2@@std@@V?$shared_ptr@UNode@NetvarTree@@@2@@1@V?$_List_unchecked_iterator@V?$_List_val@U?$_List_simple_types@U?$pair@$$CBV?$basic_string@DU?$char_traits@D@std@@V?$allocator@D@2@@std@@V?$shared_ptr@UNode@NetvarTree@@@2@@std@@@std@@@std@@@1@@Z 10005b70 f i backtacking.obj
 0001:00004e10       ??$construct@V?$_List_unchecked_iterator@V?$_List_val@U?$_List_simple_types@U?$pair@$$CBV?$basic_string@DU?$char_traits@D@std@@V?$allocator@D@2@@std@@V?$shared_ptr@UNode@NetvarTree@@@2@@std@@@std@@@std@@@std@@ABV12@@?$_Default_allocator_traits@V?$allocator@V?$_List_unchecked_iterator@V?$_List_val@U?$_List_simple_types@U?$pair@$$CBV?$basic_string@DU?$char_traits@D@std@@V?$allocator@D@2@@std@@V?$shared_ptr@UNode@NetvarTree@@@2@@std@@@std@@@std@@@std@@@std@@@std@@SAXAAV?$allocator@V?$_List_unchecked_iterator@V?$_List_val@U?$_List_simple_types@U?$pair@$$CBV?$basic_string@DU?$char_traits@D@std@@V?$allocator@D@2@@std@@V?$shared_ptr@UNode@NetvarTree@@@2@@std@@@std@@@std@@@std@@@1@QAV?$_List_unchecked_iterator@V?$_List_val@U?$_List_simple_types@U?$pair@$$CBV?$basic_string@DU?$char_traits@D@std@@V?$allocator@D@2@@std@@V?$shared_ptr@UNode@NetvarTree@@@2@@std@@@std@@@std@@@1@ABV31@@Z 10005e10 f i backtacking.obj
 0001:00004e10       ??$construct@V?$_List_unchecked_iterator@V?$_List_val@U?$_List_simple_types@U?$pair@$$CBV?$basic_string@DU?$char_traits@D@std@@V?$allocator@D@2@@std@@V?$shared_ptr@UNode@NetvarTree@@@2@@std@@@std@@@std@@@std@@V12@@?$_Default_allocator_traits@V?$allocator@V?$_List_unchecked_iterator@V?$_List_val@U?$_List_simple_types@U?$pair@$$CBV?$basic_string@DU?$char_traits@D@std@@V?$allocator@D@2@@std@@V?$shared_ptr@UNode@NetvarTree@@@2@@std@@@std@@@std@@@std@@@std@@@std@@SAXAAV?$allocator@V?$_List_unchecked_iterator@V?$_List_val@U?$_List_simple_types@U?$pair@$$CBV?$basic_string@DU?$char_traits@D@std@@V?$allocator@D@2@@std@@V?$shared_ptr@UNode@NetvarTree@@@2@@std@@@std@@@std@@@std@@@1@QAV?$_List_unchecked_iterator@V?$_List_val@U?$_List_simple_types@U?$pair@$$CBV?$basic_string@DU?$char_traits@D@std@@V?$allocator@D@2@@std@@V?$shared_ptr@UNode@NetvarTree@@@2@@std@@@std@@@std@@@1@$$QAV31@@Z 10005e10 f i backtacking.obj
 0001:00004e40       ??$_Traits_equal@U?$char_traits@D@std@@@std@@YA_NQBDI0I@Z 10005e40 f i backtacking.obj
 0001:00004e80       ??F?$_List_unchecked_iterator@V?$_List_val@U?$_List_simple_types@U?$pair@$$CBV?$basic_string@DU?$char_traits@D@std@@V?$allocator@D@2@@std@@V?$shared_ptr@UNode@NetvarTree@@@2@@std@@@std@@@std@@@std@@QAEAAV01@XZ 10005e80 f i backtacking.obj
 0001:00004ea0       ??0?$_List_unchecked_iterator@V?$_List_val@U?$_List_simple_types@U?$pair@$$CBV?$basic_string@DU?$char_traits@D@std@@V?$allocator@D@2@@std@@V?$shared_ptr@UNode@NetvarTree@@@2@@std@@@std@@@std@@@std@@QAE@XZ 10005ea0 f i backtacking.obj
 0001:00004ec0       ?_Incsize@?$list@U?$pair@$$CBV?$basic_string@DU?$char_traits@D@std@@V?$allocator@D@2@@std@@V?$shared_ptr@UNode@NetvarTree@@@2@@std@@V?$allocator@U?$pair@$$CBV?$basic_string@DU?$char_traits@D@std@@V?$allocator@D@2@@std@@V?$shared_ptr@UNode@NetvarTree@@@2@@std@@@2@@std@@QAEXI@Z 10005ec0 f i backtacking.obj
 0001:00004f10       ?_Unchecked_splice@?$list@U?$pair@$$CBV?$basic_string@DU?$char_traits@D@std@@V?$allocator@D@2@@std@@V?$shared_ptr@UNode@NetvarTree@@@2@@std@@V?$allocator@U?$pair@$$CBV?$basic_string@DU?$char_traits@D@std@@V?$allocator@D@2@@std@@V?$shared_ptr@UNode@NetvarTree@@@2@@std@@@2@@std@@QAEXV?$_List_unchecked_const_iterator@V?$_List_val@U?$_List_simple_types@U?$pair@$$CBV?$basic_string@DU?$char_traits@D@std@@V?$allocator@D@2@@std@@V?$shared_ptr@UNode@NetvarTree@@@2@@std@@@std@@@std@@U_Iterator_base0@2@@2@00@Z 10005f10 f i backtacking.obj
 0001:00004f70       ?_Check_size@?$_Hash@V?$_Umap_traits@V?$basic_string@DU?$char_traits@D@std@@V?$allocator@D@2@@std@@V?$shared_ptr@UNode@NetvarTree@@@2@V?$_Uhash_compare@V?$basic_string@DU?$char_traits@D@std@@V?$allocator@D@2@@std@@U?$hash@V?$basic_string@DU?$char_traits@D@std@@V?$allocator@D@2@@std@@@2@U?$equal_to@V?$basic_string@DU?$char_traits@D@std@@V?$allocator@D@2@@std@@@2@@2@V?$allocator@U?$pair@$$CBV?$basic_string@DU?$char_traits@D@std@@V?$allocator@D@2@@std@@V?$shared_ptr@UNode@NetvarTree@@@2@@std@@@2@$0A@@std@@@std@@IAEXXZ 10005f70 f i backtacking.obj
 0001:00005000       ?_Insert_bucket@?$_Hash@V?$_Umap_traits@V?$basic_string@DU?$char_traits@D@std@@V?$allocator@D@2@@std@@V?$shared_ptr@UNode@NetvarTree@@@2@V?$_Uhash_compare@V?$basic_string@DU?$char_traits@D@std@@V?$allocator@D@2@@std@@U?$hash@V?$basic_string@DU?$char_traits@D@std@@V?$allocator@D@2@@std@@@2@U?$equal_to@V?$basic_string@DU?$char_traits@D@std@@V?$allocator@D@2@@std@@@2@@2@V?$allocator@U?$pair@$$CBV?$basic_string@DU?$char_traits@D@std@@V?$allocator@D@2@@std@@V?$shared_ptr@UNode@NetvarTree@@@2@@std@@@2@$0A@@std@@@std@@IAEXV?$_List_unchecked_iterator@V?$_List_val@U?$_List_simple_types@U?$pair@$$CBV?$basic_string@DU?$char_traits@D@std@@V?$allocator@D@2@@std@@V?$shared_ptr@UNode@NetvarTree@@@2@@std@@@std@@@std@@@2@0I@Z 10006000 f i backtacking.obj
 0001:000050f0       ?_Destroy_if_node@?$_Hash@V?$_Umap_traits@V?$basic_string@DU?$char_traits@D@std@@V?$allocator@D@2@@std@@V?$shared_ptr@UNode@NetvarTree@@@2@V?$_Uhash_compare@V?$basic_string@DU?$char_traits@D@std@@V?$allocator@D@2@@std@@U?$hash@V?$basic_string@DU?$char_traits@D@std@@V?$allocator@D@2@@std@@@2@U?$equal_to@V?$basic_string@DU?$char_traits@D@std@@V?$allocator@D@2@@std@@@2@@2@V?$allocator@U?$pair@$$CBV?$basic_string@DU?$char_traits@D@std@@V?$allocator@D@2@@std@@V?$shared_ptr@UNode@NetvarTree@@@2@@std@@@2@$0A@@std@@@std@@IAEXV?$_List_unchecked_iterator@V?$_List_val@U?$_List_simple_types@U?$pair@$$CBV?$basic_string@DU?$char_traits@D@std@@V?$allocator@D@2@@std@@V?$shared_ptr@UNode@NetvarTree@@@2@@std@@@std@@@std@@@2@@Z 100060f0 f i backtacking.obj
 0001:00005140       ??F?$_List_unchecked_const_iterator@V?$_List_val@U?$_List_simple_types@U?$pair@$$CBV?$basic_string@DU?$char_traits@D@std@@V?$allocator@D@2@@std@@V?$shared_ptr@UNode@NetvarTree@@@2@@std@@@std@@@std@@U_Iterator_base0@2@@std@@QAEAAV01@XZ 10006140 f i backtacking.obj
 0001:00005160       ?erase@?$list@U?$pair@$$CBV?$basic_string@DU?$char_traits@D@std@@V?$allocator@D@2@@std@@V?$shared_ptr@UNode@NetvarTree@@@2@@std@@V?$allocator@U?$pair@$$CBV?$basic_string@DU?$char_traits@D@std@@V?$allocator@D@2@@std@@V?$shared_ptr@UNode@NetvarTree@@@2@@std@@@2@@std@@QAE?AV?$_List_iterator@V?$_List_val@U?$_List_simple_types@U?$pair@$$CBV?$basic_string@DU?$char_traits@D@std@@V?$allocator@D@2@@std@@V?$shared_ptr@UNode@NetvarTree@@@2@@std@@@std@@@std@@@2@V?$_List_const_iterator@V?$_List_val@U?$_List_simple_types@U?$pair@$$CBV?$basic_string@DU?$char_traits@D@std@@V?$allocator@D@2@@std@@V?$shared_ptr@UNode@NetvarTree@@@2@@std@@@std@@@std@@@2@@Z 10006160 f i backtacking.obj
 0001:000051b0       ?max_size@?$list@U?$pair@$$CBV?$basic_string@DU?$char_traits@D@std@@V?$allocator@D@2@@std@@V?$shared_ptr@UNode@NetvarTree@@@2@@std@@V?$allocator@U?$pair@$$CBV?$basic_string@DU?$char_traits@D@std@@V?$allocator@D@2@@std@@V?$shared_ptr@UNode@NetvarTree@@@2@@std@@@2@@std@@QBEIXZ 100061b0 f i backtacking.obj
 0001:000051d0       ?_Reinsert@?$_Hash@V?$_Umap_traits@V?$basic_string@DU?$char_traits@D@std@@V?$allocator@D@2@@std@@V?$shared_ptr@UNode@NetvarTree@@@2@V?$_Uhash_compare@V?$basic_string@DU?$char_traits@D@std@@V?$allocator@D@2@@std@@U?$hash@V?$basic_string@DU?$char_traits@D@std@@V?$allocator@D@2@@std@@@2@U?$equal_to@V?$basic_string@DU?$char_traits@D@std@@V?$allocator@D@2@@std@@@2@@2@V?$allocator@U?$pair@$$CBV?$basic_string@DU?$char_traits@D@std@@V?$allocator@D@2@@std@@V?$shared_ptr@UNode@NetvarTree@@@2@@std@@@2@$0A@@std@@@std@@IAEXXZ 100061d0 f i backtacking.obj
 0001:00005260       ?max_load_factor@?$_Hash@V?$_Umap_traits@V?$basic_string@DU?$char_traits@D@std@@V?$allocator@D@2@@std@@V?$shared_ptr@UNode@NetvarTree@@@2@V?$_Uhash_compare@V?$basic_string@DU?$char_traits@D@std@@V?$allocator@D@2@@std@@U?$hash@V?$basic_string@DU?$char_traits@D@std@@V?$allocator@D@2@@std@@@2@U?$equal_to@V?$basic_string@DU?$char_traits@D@std@@V?$allocator@D@2@@std@@@2@@2@V?$allocator@U?$pair@$$CBV?$basic_string@DU?$char_traits@D@std@@V?$allocator@D@2@@std@@V?$shared_ptr@UNode@NetvarTree@@@2@@std@@@2@$0A@@std@@@std@@QBEMXZ 10006260 f i backtacking.obj
 0001:00005290       ?load_factor@?$_Hash@V?$_Umap_traits@V?$basic_string@DU?$char_traits@D@std@@V?$allocator@D@2@@std@@V?$shared_ptr@UNode@NetvarTree@@@2@V?$_Uhash_compare@V?$basic_string@DU?$char_traits@D@std@@V?$allocator@D@2@@std@@U?$hash@V?$basic_string@DU?$char_traits@D@std@@V?$allocator@D@2@@std@@@2@U?$equal_to@V?$basic_string@DU?$char_traits@D@std@@V?$allocator@D@2@@std@@@2@@2@V?$allocator@U?$pair@$$CBV?$basic_string@DU?$char_traits@D@std@@V?$allocator@D@2@@std@@V?$shared_ptr@UNode@NetvarTree@@@2@@std@@@2@$0A@@std@@@std@@QBEMXZ 10006290 f i backtacking.obj
 0001:00005310       ?bucket_count@?$_Hash@V?$_Umap_traits@V?$basic_string@DU?$char_traits@D@std@@V?$allocator@D@2@@std@@V?$shared_ptr@UNode@NetvarTree@@@2@V?$_Uhash_compare@V?$basic_string@DU?$char_traits@D@std@@V?$allocator@D@2@@std@@U?$hash@V?$basic_string@DU?$char_traits@D@std@@V?$allocator@D@2@@std@@@2@U?$equal_to@V?$basic_string@DU?$char_traits@D@std@@V?$allocator@D@2@@std@@@2@@2@V?$allocator@U?$pair@$$CBV?$basic_string@DU?$char_traits@D@std@@V?$allocator@D@2@@std@@V?$shared_ptr@UNode@NetvarTree@@@2@@std@@@2@$0A@@std@@@std@@QBEIXZ 10006310 f i backtacking.obj
 0001:00005330       ??E?$_List_const_iterator@V?$_List_val@U?$_List_simple_types@U?$pair@$$CBV?$basic_string@DU?$char_traits@D@std@@V?$allocator@D@2@@std@@V?$shared_ptr@UNode@NetvarTree@@@2@@std@@@std@@@std@@@std@@QAE?AV01@H@Z 10006330 f i backtacking.obj
 0001:00005360       ?max_size@?$_Default_allocator_traits@V?$allocator@U?$_List_node@U?$pair@$$CBV?$basic_string@DU?$char_traits@D@std@@V?$allocator@D@2@@std@@V?$shared_ptr@UNode@NetvarTree@@@2@@std@@PAX@std@@@std@@@std@@SAIABV?$allocator@U?$_List_node@U?$pair@$$CBV?$basic_string@DU?$char_traits@D@std@@V?$allocator@D@2@@std@@V?$shared_ptr@UNode@NetvarTree@@@2@@std@@PAX@std@@@2@@Z 10006360 f i backtacking.obj
 0001:00005370       ?_Unlinknode@?$list@U?$pair@$$CBV?$basic_string@DU?$char_traits@D@std@@V?$allocator@D@2@@std@@V?$shared_ptr@UNode@NetvarTree@@@2@@std@@V?$allocator@U?$pair@$$CBV?$basic_string@DU?$char_traits@D@std@@V?$allocator@D@2@@std@@V?$shared_ptr@UNode@NetvarTree@@@2@@std@@@2@@std@@QAEPAU?$_List_node@U?$pair@$$CBV?$basic_string@DU?$char_traits@D@std@@V?$allocator@D@2@@std@@V?$shared_ptr@UNode@NetvarTree@@@2@@std@@PAX@2@V?$_List_const_iterator@V?$_List_val@U?$_List_simple_types@U?$pair@$$CBV?$basic_string@DU?$char_traits@D@std@@V?$allocator@D@2@@std@@V?$shared_ptr@UNode@NetvarTree@@@2@@std@@@std@@@std@@@2@@Z 10006370 f i backtacking.obj
 0001:000053c0       ?_Make_iter@?$list@U?$pair@$$CBV?$basic_string@DU?$char_traits@D@std@@V?$allocator@D@2@@std@@V?$shared_ptr@UNode@NetvarTree@@@2@@std@@V?$allocator@U?$pair@$$CBV?$basic_string@DU?$char_traits@D@std@@V?$allocator@D@2@@std@@V?$shared_ptr@UNode@NetvarTree@@@2@@std@@@2@@std@@QBE?AV?$_List_iterator@V?$_List_val@U?$_List_simple_types@U?$pair@$$CBV?$basic_string@DU?$char_traits@D@std@@V?$allocator@D@2@@std@@V?$shared_ptr@UNode@NetvarTree@@@2@@std@@@std@@@std@@@2@V?$_List_const_iterator@V?$_List_val@U?$_List_simple_types@U?$pair@$$CBV?$basic_string@DU?$char_traits@D@std@@V?$allocator@D@2@@std@@V?$shared_ptr@UNode@NetvarTree@@@2@@std@@@std@@@std@@@2@@Z 100063c0 f i backtacking.obj
 0001:00005420       ?_Max_bucket_size@?$_Hash@V?$_Umap_traits@V?$basic_string@DU?$char_traits@D@std@@V?$allocator@D@2@@std@@V?$shared_ptr@UNode@NetvarTree@@@2@V?$_Uhash_compare@V?$basic_string@DU?$char_traits@D@std@@V?$allocator@D@2@@std@@U?$hash@V?$basic_string@DU?$char_traits@D@std@@V?$allocator@D@2@@std@@@2@U?$equal_to@V?$basic_string@DU?$char_traits@D@std@@V?$allocator@D@2@@std@@@2@@2@V?$allocator@U?$pair@$$CBV?$basic_string@DU?$char_traits@D@std@@V?$allocator@D@2@@std@@V?$shared_ptr@UNode@NetvarTree@@@2@@std@@@2@$0A@@std@@@std@@IAEAAMXZ 10006420 f i NetvarManager.obj
 0001:00005420       ?_Max_bucket_size@?$_Hash@V?$_Umap_traits@V?$basic_string@DU?$char_traits@D@std@@V?$allocator@D@2@@std@@V?$shared_ptr@UNode@NetvarTree@@@2@V?$_Uhash_compare@V?$basic_string@DU?$char_traits@D@std@@V?$allocator@D@2@@std@@U?$hash@V?$basic_string@DU?$char_traits@D@std@@V?$allocator@D@2@@std@@@2@U?$equal_to@V?$basic_string@DU?$char_traits@D@std@@V?$allocator@D@2@@std@@@2@@2@V?$allocator@U?$pair@$$CBV?$basic_string@DU?$char_traits@D@std@@V?$allocator@D@2@@std@@V?$shared_ptr@UNode@NetvarTree@@@2@@std@@@2@$0A@@std@@@std@@IBEABMXZ 10006420 f i backtacking.obj
 0001:00005440       ?size@?$_Hash@V?$_Umap_traits@V?$basic_string@DU?$char_traits@D@std@@V?$allocator@D@2@@std@@V?$shared_ptr@UNode@NetvarTree@@@2@V?$_Uhash_compare@V?$basic_string@DU?$char_traits@D@std@@V?$allocator@D@2@@std@@U?$hash@V?$basic_string@DU?$char_traits@D@std@@V?$allocator@D@2@@std@@@2@U?$equal_to@V?$basic_string@DU?$char_traits@D@std@@V?$allocator@D@2@@std@@@2@@2@V?$allocator@U?$pair@$$CBV?$basic_string@DU?$char_traits@D@std@@V?$allocator@D@2@@std@@V?$shared_ptr@UNode@NetvarTree@@@2@@std@@@2@$0A@@std@@@std@@QBEIXZ 10006440 f i backtacking.obj
 0001:00005460       ?_Unchecked_end@?$vector@V?$basic_string@DU?$char_traits@D@std@@V?$allocator@D@2@@std@@V?$allocator@V?$basic_string@DU?$char_traits@D@std@@V?$allocator@D@2@@std@@@2@@std@@QAEPAV?$basic_string@DU?$char_traits@D@std@@V?$allocator@D@2@@2@XZ 10006460 f i ESP.obj
 0001:00005460       ?_Unchecked_end@?$vector@PAV?$ConfigValue@H@@V?$allocator@PAV?$ConfigValue@H@@@std@@@std@@QAEPAPAV?$ConfigValue@H@@XZ 10006460 f i cfgsaving.obj
 0001:00005460       ?_Unchecked_end@?$vector@PAV?$ConfigValue@_N@@V?$allocator@PAV?$ConfigValue@_N@@@std@@@std@@QAEPAPAV?$ConfigValue@_N@@XZ 10006460 f i cfgsaving.obj
 0001:00005460       ?size@?$list@U?$pair@$$CBV?$basic_string@DU?$char_traits@D@std@@V?$allocator@D@2@@std@@V?$shared_ptr@UNode@NetvarTree@@@2@@std@@V?$allocator@U?$pair@$$CBV?$basic_string@DU?$char_traits@D@std@@V?$allocator@D@2@@std@@V?$shared_ptr@UNode@NetvarTree@@@2@@std@@@2@@std@@QBEIXZ 10006460 f i backtacking.obj
 0001:00005460       ?_Unchecked_end@?$vector@PAV?$ConfigValue@M@@V?$allocator@PAV?$ConfigValue@M@@@std@@@std@@QAEPAPAV?$ConfigValue@M@@XZ 10006460 f i cfgsaving.obj
 0001:00005460       ?_Unchecked_end@?$vector@PBDV?$allocator@PBD@std@@@std@@QAEPAPBDXZ 10006460 f i Hooks.obj
 0001:00005460       ?_Unchecked_end@?$vector@HV?$allocator@H@std@@@std@@QAEPAHXZ 10006460 f i Aimbot.obj
 0001:00005480       ??$?0U_Exact_args_t@std@@V?$basic_string@DU?$char_traits@D@std@@V?$allocator@D@2@@1@$$V$0A@@?$tuple@$$QAV?$basic_string@DU?$char_traits@D@std@@V?$allocator@D@2@@std@@@std@@QAE@U_Exact_args_t@1@$$QAV?$basic_string@DU?$char_traits@D@std@@V?$allocator@D@2@@1@@Z 10006480 f i backtacking.obj
 0001:000054c0       ??$_Buynode@ABUpiecewise_construct_t@std@@V?$tuple@$$QAV?$basic_string@DU?$char_traits@D@std@@V?$allocator@D@2@@std@@@2@V?$tuple@$$V@2@@?$_List_buy@U?$pair@$$CBV?$basic_string@DU?$char_traits@D@std@@V?$allocator@D@2@@std@@V?$shared_ptr@UNode@NetvarTree@@@2@@std@@V?$allocator@U?$pair@$$CBV?$basic_string@DU?$char_traits@D@std@@V?$allocator@D@2@@std@@V?$shared_ptr@UNode@NetvarTree@@@2@@std@@@2@@std@@QAEPAU?$_List_node@U?$pair@$$CBV?$basic_string@DU?$char_traits@D@std@@V?$allocator@D@2@@std@@V?$shared_ptr@UNode@NetvarTree@@@2@@std@@PAX@1@PAU21@0ABUpiecewise_construct_t@1@$$QAV?$tuple@$$QAV?$basic_string@DU?$char_traits@D@std@@V?$allocator@D@2@@std@@@1@$$QAV?$tuple@$$V@1@@Z 100064c0 f i backtacking.obj
 0001:000055b0       ??$_Buy_if_not_node@AAU?$pair@$$CBV?$basic_string@DU?$char_traits@D@std@@V?$allocator@D@2@@std@@V?$shared_ptr@UNode@NetvarTree@@@2@@std@@@?$_Hash@V?$_Umap_traits@V?$basic_string@DU?$char_traits@D@std@@V?$allocator@D@2@@std@@V?$shared_ptr@UNode@NetvarTree@@@2@V?$_Uhash_compare@V?$basic_string@DU?$char_traits@D@std@@V?$allocator@D@2@@std@@U?$hash@V?$basic_string@DU?$char_traits@D@std@@V?$allocator@D@2@@std@@@2@U?$equal_to@V?$basic_string@DU?$char_traits@D@std@@V?$allocator@D@2@@std@@@2@@2@V?$allocator@U?$pair@$$CBV?$basic_string@DU?$char_traits@D@std@@V?$allocator@D@2@@std@@V?$shared_ptr@UNode@NetvarTree@@@2@@std@@@2@$0A@@std@@@std@@IAE?AV?$_List_unchecked_iterator@V?$_List_val@U?$_List_simple_types@U?$pair@$$CBV?$basic_string@DU?$char_traits@D@std@@V?$allocator@D@2@@std@@V?$shared_ptr@UNode@NetvarTree@@@2@@std@@@std@@@std@@@1@AAU?$pair@$$CBV?$basic_string@DU?$char_traits@D@std@@V?$allocator@D@2@@std@@V?$shared_ptr@UNode@NetvarTree@@@2@@1@V21@@Z 100065b0 f i backtacking.obj
 0001:000055d0       ??$erase@V?$_List_iterator@V?$_List_val@U?$_List_simple_types@U?$pair@$$CBV?$basic_string@DU?$char_traits@D@std@@V?$allocator@D@2@@std@@V?$shared_ptr@UNode@NetvarTree@@@2@@std@@@std@@@std@@@std@@X@?$_Hash@V?$_Umap_traits@V?$basic_string@DU?$char_traits@D@std@@V?$allocator@D@2@@std@@V?$shared_ptr@UNode@NetvarTree@@@2@V?$_Uhash_compare@V?$basic_string@DU?$char_traits@D@std@@V?$allocator@D@2@@std@@U?$hash@V?$basic_string@DU?$char_traits@D@std@@V?$allocator@D@2@@std@@@2@U?$equal_to@V?$basic_string@DU?$char_traits@D@std@@V?$allocator@D@2@@std@@@2@@2@V?$allocator@U?$pair@$$CBV?$basic_string@DU?$char_traits@D@std@@V?$allocator@D@2@@std@@V?$shared_ptr@UNode@NetvarTree@@@2@@std@@@2@$0A@@std@@@std@@QAE?AV?$_List_iterator@V?$_List_val@U?$_List_simple_types@U?$pair@$$CBV?$basic_string@DU?$char_traits@D@std@@V?$allocator@D@2@@std@@V?$shared_ptr@UNode@NetvarTree@@@2@@std@@@std@@@std@@@1@V21@@Z 100065d0 f i backtacking.obj
 0001:00005600       ?erase@?$_Hash@V?$_Umap_traits@V?$basic_string@DU?$char_traits@D@std@@V?$allocator@D@2@@std@@V?$shared_ptr@UNode@NetvarTree@@@2@V?$_Uhash_compare@V?$basic_string@DU?$char_traits@D@std@@V?$allocator@D@2@@std@@U?$hash@V?$basic_string@DU?$char_traits@D@std@@V?$allocator@D@2@@std@@@2@U?$equal_to@V?$basic_string@DU?$char_traits@D@std@@V?$allocator@D@2@@std@@@2@@2@V?$allocator@U?$pair@$$CBV?$basic_string@DU?$char_traits@D@std@@V?$allocator@D@2@@std@@V?$shared_ptr@UNode@NetvarTree@@@2@@std@@@2@$0A@@std@@@std@@QAE?AV?$_List_iterator@V?$_List_val@U?$_List_simple_types@U?$pair@$$CBV?$basic_string@DU?$char_traits@D@std@@V?$allocator@D@2@@std@@V?$shared_ptr@UNode@NetvarTree@@@2@@std@@@std@@@std@@@2@V?$_List_const_iterator@V?$_List_val@U?$_List_simple_types@U?$pair@$$CBV?$basic_string@DU?$char_traits@D@std@@V?$allocator@D@2@@std@@V?$shared_ptr@UNode@NetvarTree@@@2@@std@@@std@@@std@@@2@@Z 10006600 f i backtacking.obj
 0001:00005670       ?_Erase_bucket@?$_Hash@V?$_Umap_traits@V?$basic_string@DU?$char_traits@D@std@@V?$allocator@D@2@@std@@V?$shared_ptr@UNode@NetvarTree@@@2@V?$_Uhash_compare@V?$basic_string@DU?$char_traits@D@std@@V?$allocator@D@2@@std@@U?$hash@V?$basic_string@DU?$char_traits@D@std@@V?$allocator@D@2@@std@@@2@U?$equal_to@V?$basic_string@DU?$char_traits@D@std@@V?$allocator@D@2@@std@@@2@@2@V?$allocator@U?$pair@$$CBV?$basic_string@DU?$char_traits@D@std@@V?$allocator@D@2@@std@@V?$shared_ptr@UNode@NetvarTree@@@2@@std@@@2@$0A@@std@@@std@@IAEXV?$_List_iterator@V?$_List_val@U?$_List_simple_types@U?$pair@$$CBV?$basic_string@DU?$char_traits@D@std@@V?$allocator@D@2@@std@@V?$shared_ptr@UNode@NetvarTree@@@2@@std@@@std@@@std@@@2@I@Z 10006670 f i backtacking.obj
 0001:00005780       ?_Make_iter@?$_Hash@V?$_Umap_traits@V?$basic_string@DU?$char_traits@D@std@@V?$allocator@D@2@@std@@V?$shared_ptr@UNode@NetvarTree@@@2@V?$_Uhash_compare@V?$basic_string@DU?$char_traits@D@std@@V?$allocator@D@2@@std@@U?$hash@V?$basic_string@DU?$char_traits@D@std@@V?$allocator@D@2@@std@@@2@U?$equal_to@V?$basic_string@DU?$char_traits@D@std@@V?$allocator@D@2@@std@@@2@@2@V?$allocator@U?$pair@$$CBV?$basic_string@DU?$char_traits@D@std@@V?$allocator@D@2@@std@@V?$shared_ptr@UNode@NetvarTree@@@2@@std@@@2@$0A@@std@@@std@@QBE?AV?$_List_iterator@V?$_List_val@U?$_List_simple_types@U?$pair@$$CBV?$basic_string@DU?$char_traits@D@std@@V?$allocator@D@2@@std@@V?$shared_ptr@UNode@NetvarTree@@@2@@std@@@std@@@std@@@2@V?$_List_const_iterator@V?$_List_val@U?$_List_simple_types@U?$pair@$$CBV?$basic_string@DU?$char_traits@D@std@@V?$allocator@D@2@@std@@V?$shared_ptr@UNode@NetvarTree@@@2@@std@@@std@@@std@@@2@@Z 10006780 f i backtacking.obj
 0001:000057b0       ?_Unwrapped@?$_List_iterator@V?$_List_val@U?$_List_simple_types@U?$pair@$$CBV?$basic_string@DU?$char_traits@D@std@@V?$allocator@D@2@@std@@V?$shared_ptr@UNode@NetvarTree@@@2@@std@@@std@@@std@@@std@@QBE?AV?$_List_unchecked_iterator@V?$_List_val@U?$_List_simple_types@U?$pair@$$CBV?$basic_string@DU?$char_traits@D@std@@V?$allocator@D@2@@std@@V?$shared_ptr@UNode@NetvarTree@@@2@@std@@@std@@@std@@@2@XZ 100067b0 f i backtacking.obj
 0001:000057f0       ??$?0V?$basic_string@DU?$char_traits@D@std@@V?$allocator@D@2@@std@@@?$_Tuple_val@$$QAV?$basic_string@DU?$char_traits@D@std@@V?$allocator@D@2@@std@@@std@@QAE@$$QAV?$basic_string@DU?$char_traits@D@std@@V?$allocator@D@2@@1@@Z 100067f0 f i backtacking.obj
 0001:00005820       ??$construct@U?$pair@$$CBV?$basic_string@DU?$char_traits@D@std@@V?$allocator@D@2@@std@@V?$shared_ptr@UNode@NetvarTree@@@2@@std@@ABUpiecewise_construct_t@2@V?$tuple@$$QAV?$basic_string@DU?$char_traits@D@std@@V?$allocator@D@2@@std@@@2@V?$tuple@$$V@2@@?$_Default_allocator_traits@V?$allocator@U?$_List_node@U?$pair@$$CBV?$basic_string@DU?$char_traits@D@std@@V?$allocator@D@2@@std@@V?$shared_ptr@UNode@NetvarTree@@@2@@std@@PAX@std@@@std@@@std@@SAXAAV?$allocator@U?$_List_node@U?$pair@$$CBV?$basic_string@DU?$char_traits@D@std@@V?$allocator@D@2@@std@@V?$shared_ptr@UNode@NetvarTree@@@2@@std@@PAX@std@@@1@QAU?$pair@$$CBV?$basic_string@DU?$char_traits@D@std@@V?$allocator@D@2@@std@@V?$shared_ptr@UNode@NetvarTree@@@2@@1@ABUpiecewise_construct_t@1@$$QAV?$tuple@$$QAV?$basic_string@DU?$char_traits@D@std@@V?$allocator@D@2@@std@@@1@$$QAV?$tuple@$$V@1@@Z 10006820 f i backtacking.obj
 0001:000058a0       ??0?$tuple@$$QAV?$basic_string@DU?$char_traits@D@std@@V?$allocator@D@2@@std@@@std@@QAE@$$QAV01@@Z 100068a0 f i backtacking.obj
 0001:000058d0       ??$?0$$QAV?$basic_string@DU?$char_traits@D@std@@V?$allocator@D@2@@std@@$$Z$$V@?$pair@$$CBV?$basic_string@DU?$char_traits@D@std@@V?$allocator@D@2@@std@@V?$shared_ptr@UNode@NetvarTree@@@2@@std@@QAE@Upiecewise_construct_t@1@V?$tuple@$$QAV?$basic_string@DU?$char_traits@D@std@@V?$allocator@D@2@@std@@@1@V?$tuple@$$V@1@@Z 100068d0 f i backtacking.obj
 0001:00005900       ??$?0V?$tuple@$$QAV?$basic_string@DU?$char_traits@D@std@@V?$allocator@D@2@@std@@@std@@V?$tuple@$$V@1@$0A@$$Z$S@?$pair@$$CBV?$basic_string@DU?$char_traits@D@std@@V?$allocator@D@2@@std@@V?$shared_ptr@UNode@NetvarTree@@@2@@std@@QAE@AAV?$tuple@$$QAV?$basic_string@DU?$char_traits@D@std@@V?$allocator@D@2@@std@@@1@AAV?$tuple@$$V@1@U?$integer_sequence@I$0A@@1@U?$integer_sequence@I$S@1@@Z 10006900 f i backtacking.obj
 0001:00005950       ??0?$shared_ptr@UNode@NetvarTree@@@std@@QAE@XZ 10006950 f i backtacking.obj
 0001:00005970       ??$get@$0A@$$QAV?$basic_string@DU?$char_traits@D@std@@V?$allocator@D@2@@std@@@std@@YA$$QAV?$basic_string@DU?$char_traits@D@std@@V?$allocator@D@2@@0@$$QAV?$tuple@$$QAV?$basic_string@DU?$char_traits@D@std@@V?$allocator@D@2@@std@@@0@@Z 10006970 f i backtacking.obj
 0001:00005990       ??9Vector@@QBE_NABV0@@Z    10006990 f i Legitbot.obj
 0001:000059f0       ?Length2D@Vector@@QBEMXZ   100069f0 f i Legitbot.obj
 0001:00005a50       ??0CBaseHandle@@QAE@ABV0@@Z 10006a50 f i Legitbot.obj
 0001:00005a70       ?GetActiveWeapon@C_BaseEntity@@QAEPAVC_BaseCombatWeapon@@XZ 10006a70 f i Legitbot.obj
 0001:00005b50       ?IsImmune@C_BaseEntity@@QAE_NXZ 10006b50 f i Legitbot.obj
 0001:00005c00       ?GetInaccuracy@C_BaseCombatWeapon@@QAEMXZ 10006c00 f i Legitbot.obj
 0001:00005c30       ??$GetValue@VCBaseHandle@@@C_BaseEntity@@AAE?AVCBaseHandle@@H@Z 10006c30 f i Legitbot.obj
 0001:00005c50       ??$GetValue@_N@C_BaseEntity@@AAE_NH@Z 10006c50 f i Legitbot.obj
 0001:00005c70       ___local_stdio_printf_options 10006c70 f i Event Logs.obj
 0001:00005c80       __vsprintf_s_l             10006c80 f i Event Logs.obj
 0001:00005cd0       _vsprintf_s                10006cd0 f i Event Logs.obj
 0001:00005cf0       ??0Color@@QAE@XZ           10006cf0 f i Event Logs.obj
 0001:00005d30       ??0Color@@QAE@HHHH@Z       10006d30 f i Event Logs.obj
 0001:00005d70       ?DrawSetColor@ISurface@@QAEXHHHH@Z 10006d70 f i Event Logs.obj
 0001:00005db0       ?DrawFilledRect@ISurface@@QAEXHHHH@Z 10006db0 f i Event Logs.obj
 0001:00005df0       ?DrawOutlinedRect@ISurface@@QAEXHHHH@Z 10006df0 f i Event Logs.obj
 0001:00005e30       ?DrawSetTextFont@ISurface@@QAEXK@Z 10006e30 f i Event Logs.obj
 0001:00005e60       ?DrawSetTextColor@ISurface@@QAEXHHHH@Z 10006e60 f i Event Logs.obj
 0001:00005ea0       ?DrawSetTextPos@ISurface@@QAEXHH@Z 10006ea0 f i Event Logs.obj
 0001:00005ed0       ?DrawPrintText@ISurface@@QAEXPB_WH@Z 10006ed0 f i Event Logs.obj
 0001:00005f00       ?GetTextSize@ISurface@@QAEXKPB_WAAH1@Z 10006f00 f i Event Logs.obj
 0001:00005f50       ?FilledRect@ISurface@@QAEXHHHHUColor@@@Z 10006f50 f i Event Logs.obj
 0001:00005fa0       ?OutlinedRect@ISurface@@QAEXHHHHUColor@@@Z 10006fa0 f i Event Logs.obj
 0001:00005ff0       ?DrawT@ISurface@@QAAXHHUColor@@H_NPBDZZ 10006ff0 f i Event Logs.obj
 0001:00006170       ?get_text_size@ISurface@@QAE?AUtagRECT@@KPBD@Z 10007170 f i Event Logs.obj
 0001:00006230       ??0CMessage@@QAE@V?$basic_string@DU?$char_traits@D@std@@V?$allocator@D@2@@std@@MUColor@@H@Z 10007230 f i Event Logs.obj
 0001:000062d0       ?log@events@@YAXV?$basic_string@DU?$char_traits@D@std@@V?$allocator@D@2@@std@@@Z 100072d0 f   Event Logs.obj
 0001:00006450       ??1CMessage@@QAE@XZ        10007450 f i Event Logs.obj
 0001:00006470       ?print@events@@YAXV?$basic_string@DU?$char_traits@D@std@@V?$allocator@D@2@@std@@@Z 10007470 f   Event Logs.obj
 0001:00006a70       ??H?$_Vector_iterator@V?$_Vector_val@U?$_Simple_types@VCMessage@@@std@@@std@@@std@@QBE?AV01@H@Z 10007a70 f i Event Logs.obj
 0001:00006aa0       ??A?$vector@VCMessage@@V?$allocator@VCMessage@@@std@@@std@@QAEAAVCMessage@@I@Z 10007aa0 f i Event Logs.obj
 0001:00006ac0       ?size@?$vector@VCMessage@@V?$allocator@VCMessage@@@std@@@std@@QBEIXZ 10007ac0 f i Event Logs.obj
 0001:00006af0       ?begin@?$vector@VCMessage@@V?$allocator@VCMessage@@@std@@@std@@QAE?AV?$_Vector_iterator@V?$_Vector_val@U?$_Simple_types@VCMessage@@@std@@@std@@@2@XZ 10007af0 f i Event Logs.obj
 0001:00006af0       ?begin@?$vector@PAVDot@@V?$allocator@PAVDot@@@std@@@std@@QAE?AV?$_Vector_iterator@V?$_Vector_val@U?$_Simple_types@PAVDot@@@std@@@std@@@2@XZ 10007af0 f i dots.obj
 0001:00006af0       ?begin@?$vector@Vtrace_info@@V?$allocator@Vtrace_info@@@std@@@std@@QAE?AV?$_Vector_iterator@V?$_Vector_val@U?$_Simple_types@Vtrace_info@@@std@@@std@@@2@XZ 10007af0 f i Hooks.obj
 0001:00006b60       ?erase@?$vector@VCMessage@@V?$allocator@VCMessage@@@std@@@std@@QAE?AV?$_Vector_iterator@V?$_Vector_val@U?$_Simple_types@VCMessage@@@std@@@std@@@2@V?$_Vector_const_iterator@V?$_Vector_val@U?$_Simple_types@VCMessage@@@std@@@std@@@2@@Z 10007b60 f i Event Logs.obj
 0001:00006c00       ?push_back@?$vector@VCMessage@@V?$allocator@VCMessage@@@std@@@std@@QAEX$$QAVCMessage@@@Z 10007c00 f i Event Logs.obj
 0001:00006c30       ??$emplace_back@VCMessage@@@?$vector@VCMessage@@V?$allocator@VCMessage@@@std@@@std@@QAEAAVCMessage@@$$QAV2@@Z 10007c30 f i Event Logs.obj
 0001:00006ca0       ??$_Emplace_back_with_unused_capacity@VCMessage@@@?$vector@VCMessage@@V?$allocator@VCMessage@@@std@@@std@@AAEAAVCMessage@@$$QAV2@@Z 10007ca0 f i Event Logs.obj
 0001:00006d50       ??1?$vector@VCMessage@@V?$allocator@VCMessage@@@std@@@std@@QAE@XZ 10007d50 f i Event Logs.obj
 0001:00006d90       ??0?$vector@PAV?$ConfigValue@H@@V?$allocator@PAV?$ConfigValue@H@@@std@@@std@@QAE@XZ 10007d90 f i cfgsaving.obj
 0001:00006d90       ??0?$vector@VCMessage@@V?$allocator@VCMessage@@@std@@@std@@QAE@XZ 10007d90 f i Event Logs.obj
 0001:00006d90       ??0?$vector@PAV?$ConfigValue@M@@V?$allocator@PAV?$ConfigValue@M@@@std@@@std@@QAE@XZ 10007d90 f i cfgsaving.obj
 0001:00006d90       ??0?$vector@PAV?$ConfigValue@_N@@V?$allocator@PAV?$ConfigValue@_N@@@std@@@std@@QAE@XZ 10007d90 f i cfgsaving.obj
 0001:00006d90       ??0?$vector@HV?$allocator@H@std@@@std@@QAE@XZ 10007d90 f i Aimbot.obj
 0001:00006d90       ??0?$vector@PAVDot@@V?$allocator@PAVDot@@@std@@@std@@QAE@XZ 10007d90 f i dots.obj
 0001:00006d90       ??0?$vector@V?$basic_string@DU?$char_traits@D@std@@V?$allocator@D@2@@std@@V?$allocator@V?$basic_string@DU?$char_traits@D@std@@V?$allocator@D@2@@std@@@2@@std@@QAE@XZ 10007d90 f i Menu.obj
 0001:00006d90       ??0?$vector@Vtrace_info@@V?$allocator@Vtrace_info@@@std@@@std@@QAE@XZ 10007d90 f i Hooks.obj
 0001:00006dd0       ?append@?$basic_string@DU?$char_traits@D@std@@V?$allocator@D@2@@std@@QAEAAV12@QBD@Z 10007dd0 f i Event Logs.obj
 0001:00006e00       ?append@?$basic_string@DU?$char_traits@D@std@@V?$allocator@D@2@@std@@QAEAAV12@ABV12@@Z 10007e00 f i Event Logs.obj
 0001:00006e40       ??4?$basic_string@DU?$char_traits@D@std@@V?$allocator@D@2@@std@@QAEAAV01@ABV01@@Z 10007e40 f i Event Logs.obj
 0001:00006eb0       ??0?$basic_string@DU?$char_traits@D@std@@V?$allocator@D@2@@std@@QAE@XZ 10007eb0 f i Event Logs.obj
 0001:00006ef0       ??0?$basic_string@DU?$char_traits@D@std@@V?$allocator@D@2@@std@@QAE@ABV01@@Z 10007ef0 f i Event Logs.obj
 0001:00006f60       ??Y?$_Vector_iterator@V?$_Vector_val@U?$_Simple_types@VCMessage@@@std@@@std@@@std@@QAEAAV01@H@Z 10007f60 f i Event Logs.obj
 0001:00006f80       ??0?$_Vector_alloc@U?$_Vec_base_types@V?$basic_string@DU?$char_traits@D@std@@V?$allocator@D@2@@std@@V?$allocator@V?$basic_string@DU?$char_traits@D@std@@V?$allocator@D@2@@std@@@2@@std@@@std@@QAE@XZ 10007f80 f i Menu.obj
 0001:00006f80       ??0?$_Vector_alloc@U?$_Vec_base_types@VCMessage@@V?$allocator@VCMessage@@@std@@@std@@@std@@QAE@XZ 10007f80 f i Event Logs.obj
 0001:00006f80       ??0?$_Vector_alloc@U?$_Vec_base_types@PAV?$ConfigValue@H@@V?$allocator@PAV?$ConfigValue@H@@@std@@@std@@@std@@QAE@XZ 10007f80 f i cfgsaving.obj
 0001:00006f80       ??0?$_Vector_alloc@U?$_Vec_base_types@PAV?$ConfigValue@_N@@V?$allocator@PAV?$ConfigValue@_N@@@std@@@std@@@std@@QAE@XZ 10007f80 f i cfgsaving.obj
 0001:00006f80       ??0?$_Vector_alloc@U?$_Vec_base_types@PAV?$ConfigValue@M@@V?$allocator@PAV?$ConfigValue@M@@@std@@@std@@@std@@QAE@XZ 10007f80 f i cfgsaving.obj
 0001:00006f80       ??0?$_Vector_alloc@U?$_Vec_base_types@PAVDot@@V?$allocator@PAVDot@@@std@@@std@@@std@@QAE@XZ 10007f80 f i dots.obj
 0001:00006f80       ??0?$_Vector_alloc@U?$_Vec_base_types@Vtrace_info@@V?$allocator@Vtrace_info@@@std@@@std@@@std@@QAE@XZ 10007f80 f i Hooks.obj
 0001:00006f80       ??0?$_Vector_alloc@U?$_Vec_base_types@HV?$allocator@H@std@@@std@@@std@@QAE@XZ 10007f80 f i Aimbot.obj
 0001:00006fb0       ?_Orphan_range@?$vector@Vtrace_info@@V?$allocator@Vtrace_info@@@std@@@std@@ABEXPAVtrace_info@@0@Z 10007fb0 f i Hooks.obj
 0001:00006fb0       ?_Orphan_range@?$vector@VCMessage@@V?$allocator@VCMessage@@@std@@@std@@ABEXPAVCMessage@@0@Z 10007fb0 f i Event Logs.obj
 0001:00006fb0       ?_Orphan_range@?$vector@V?$basic_string@DU?$char_traits@D@std@@V?$allocator@D@2@@std@@V?$allocator@V?$basic_string@DU?$char_traits@D@std@@V?$allocator@D@2@@std@@@2@@std@@ABEXPAV?$basic_string@DU?$char_traits@D@std@@V?$allocator@D@2@@2@0@Z 10007fb0 f i ESP.obj
 0001:00006fb0       ?_Orphan_range@?$vector@PAVDot@@V?$allocator@PAVDot@@@std@@@std@@ABEXPAPAVDot@@0@Z 10007fb0 f i dots.obj
 0001:00006fb0       ?_Orphan_range@?$vector@PAV?$ConfigValue@_N@@V?$allocator@PAV?$ConfigValue@_N@@@std@@@std@@ABEXPAPAV?$ConfigValue@_N@@0@Z 10007fb0 f i cfgsaving.obj
 0001:00006fb0       ?_Orphan_range@?$vector@PAV?$ConfigValue@H@@V?$allocator@PAV?$ConfigValue@H@@@std@@@std@@ABEXPAPAV?$ConfigValue@H@@0@Z 10007fb0 f i cfgsaving.obj
 0001:00006fb0       ?_Orphan_range@?$vector@PAV?$ConfigValue@M@@V?$allocator@PAV?$ConfigValue@M@@@std@@@std@@ABEXPAPAV?$ConfigValue@M@@0@Z 10007fb0 f i cfgsaving.obj
 0001:00006fb0       ?_Orphan_range@?$vector@HV?$allocator@H@std@@@std@@ABEXPAH0@Z 10007fb0 f i Aimbot.obj
 0001:00006fc0       ?_Tidy@?$vector@VCMessage@@V?$allocator@VCMessage@@@std@@@std@@AAEXXZ 10007fc0 f i Event Logs.obj
 0001:00007070       ?_Has_unused_capacity@?$vector@V?$basic_string@DU?$char_traits@D@std@@V?$allocator@D@2@@std@@V?$allocator@V?$basic_string@DU?$char_traits@D@std@@V?$allocator@D@2@@std@@@2@@std@@ABE_NXZ 10008070 f i ESP.obj
 0001:00007070       ?_Has_unused_capacity@?$vector@Vtrace_info@@V?$allocator@Vtrace_info@@@std@@@std@@ABE_NXZ 10008070 f i Hooks.obj
 0001:00007070       ?_Has_unused_capacity@?$vector@PAV?$ConfigValue@_N@@V?$allocator@PAV?$ConfigValue@_N@@@std@@@std@@ABE_NXZ 10008070 f i cfgsaving.obj
 0001:00007070       ?_Has_unused_capacity@?$vector@HV?$allocator@H@std@@@std@@ABE_NXZ 10008070 f i Aimbot.obj
 0001:00007070       ?_Has_unused_capacity@?$vector@PAVDot@@V?$allocator@PAVDot@@@std@@@std@@ABE_NXZ 10008070 f i dots.obj
 0001:00007070       ?_Has_unused_capacity@?$vector@PAV?$ConfigValue@H@@V?$allocator@PAV?$ConfigValue@H@@@std@@@std@@ABE_NXZ 10008070 f i cfgsaving.obj
 0001:00007070       ?_Has_unused_capacity@?$vector@PAV?$ConfigValue@M@@V?$allocator@PAV?$ConfigValue@M@@@std@@@std@@ABE_NXZ 10008070 f i cfgsaving.obj
 0001:00007070       ?_Has_unused_capacity@?$vector@VCMessage@@V?$allocator@VCMessage@@@std@@@std@@ABE_NXZ 10008070 f i Event Logs.obj
 0001:000070b0       ?_Copy_alloc@?$_String_alloc@U?$_String_base_types@DV?$allocator@D@std@@@std@@@std@@QAEXABV?$allocator@D@2@@Z 100080b0 f i Event Logs.obj
 0001:000070e0       ?_Become_small@?$basic_string@DU?$char_traits@D@std@@V?$allocator@D@2@@std@@QAEXXZ 100080e0 f i Event Logs.obj
 0001:00007180       ?append@?$basic_string@DU?$char_traits@D@std@@V?$allocator@D@2@@std@@QAEAAV12@QBDI@Z 10008180 f i Event Logs.obj
 0001:00007220       ??R<lambda_ab246b20b9526e2ef7792587e4298a77>@@QBEXQADQBDI1I@Z 10008220 f i Event Logs.obj
 0001:00007280       ??Y?$basic_string@DU?$char_traits@D@std@@V?$allocator@D@2@@std@@QAEAAV01@ABV01@@Z 10008280 f i Event Logs.obj
 0001:000072a0       ?_Construct_lv_contents@?$basic_string@DU?$char_traits@D@std@@V?$allocator@D@2@@std@@QAEXABV12@@Z 100082a0 f i Event Logs.obj
 0001:000073a0       ??Y?$_Vector_const_iterator@V?$_Vector_val@U?$_Simple_types@VCMessage@@@std@@@std@@@std@@QAEAAV01@H@Z 100083a0 f i Event Logs.obj
 0001:000073d0       ?_Destroy@?$vector@VCMessage@@V?$allocator@VCMessage@@@std@@@std@@AAEXPAVCMessage@@0@Z 100083d0 f i Event Logs.obj
 0001:00007400       ?capacity@?$vector@VCMessage@@V?$allocator@VCMessage@@@std@@@std@@QBEIXZ 10008400 f i Event Logs.obj
 0001:00007430       ?deallocate@?$allocator@VCMessage@@@std@@QAEXQAVCMessage@@I@Z 10008430 f i Event Logs.obj
 0001:00007450       ??4?$basic_string@DU?$char_traits@D@std@@V?$allocator@D@2@@std@@QAEAAV01@$$QAV01@@Z 10008450 f i Event Logs.obj
 0001:000074e0       ?_Move_alloc@?$_String_alloc@U?$_String_base_types@DV?$allocator@D@std@@@std@@@std@@QAEXAAV?$allocator@D@2@@Z 100084e0 f i Event Logs.obj
 0001:00007510       ?_Assign_rv_contents@?$basic_string@DU?$char_traits@D@std@@V?$allocator@D@2@@std@@QAEX$$QAV12@U?$integral_constant@_N$00@2@@Z 10008510 f i Event Logs.obj
 0001:00007550       ??$vsprintf_s@$0IAA@@@YAHAAY0IAA@DPBDPAD@Z 10008550 f i Event Logs.obj
 0001:00007570       ??$?HDU?$char_traits@D@std@@V?$allocator@D@1@@std@@YA?AV?$basic_string@DU?$char_traits@D@std@@V?$allocator@D@2@@0@QBDABV10@@Z 10008570 f i Event Logs.obj
 0001:00007620       ??$_Move_unchecked@PAVCMessage@@PAV1@@std@@YAPAVCMessage@@PAV1@00@Z 10008620 f i Event Logs.obj
 0001:00007660       ??$destroy@VCMessage@@@?$_Default_allocator_traits@V?$allocator@VCMessage@@@std@@@std@@SAXAAV?$allocator@VCMessage@@@1@QAVCMessage@@@Z 10008660 f i Event Logs.obj
 0001:00007670       ??$construct@VCMessage@@V1@@?$_Default_allocator_traits@V?$allocator@VCMessage@@@std@@@std@@SAXAAV?$allocator@VCMessage@@@1@QAVCMessage@@$$QAV3@@Z 10008670 f i Event Logs.obj
 0001:000076b0       ??$_Emplace_reallocate@VCMessage@@@?$vector@VCMessage@@V?$allocator@VCMessage@@@std@@@std@@QAEPAVCMessage@@QAV2@$$QAV2@@Z 100086b0 f i Event Logs.obj
 0001:000078a0       ??$?0$$V@?$_Compressed_pair@V?$allocator@PAV?$ConfigValue@M@@@std@@V?$_Vector_val@U?$_Simple_types@PAV?$ConfigValue@M@@@std@@@2@$00@std@@QAE@U_Zero_then_variadic_args_t@1@@Z 100088a0 f i cfgsaving.obj
 0001:000078a0       ??$?0$$V@?$_Compressed_pair@V?$allocator@VCMessage@@@std@@V?$_Vector_val@U?$_Simple_types@VCMessage@@@std@@@2@$00@std@@QAE@U_Zero_then_variadic_args_t@1@@Z 100088a0 f i Event Logs.obj
 0001:000078a0       ??$?0$$V@?$_Compressed_pair@V?$allocator@PAV?$ConfigValue@_N@@@std@@V?$_Vector_val@U?$_Simple_types@PAV?$ConfigValue@_N@@@std@@@2@$00@std@@QAE@U_Zero_then_variadic_args_t@1@@Z 100088a0 f i cfgsaving.obj
 0001:000078a0       ??$?0$$V@?$_Compressed_pair@V?$allocator@V?$basic_string@DU?$char_traits@D@std@@V?$allocator@D@2@@std@@@std@@V?$_Vector_val@U?$_Simple_types@V?$basic_string@DU?$char_traits@D@std@@V?$allocator@D@2@@std@@@std@@@2@$00@std@@QAE@U_Zero_then_variadic_args_t@1@@Z 100088a0 f i Menu.obj
 0001:000078a0       ??$?0$$V@?$_Compressed_pair@V?$allocator@PAV?$ConfigValue@H@@@std@@V?$_Vector_val@U?$_Simple_types@PAV?$ConfigValue@H@@@std@@@2@$00@std@@QAE@U_Zero_then_variadic_args_t@1@@Z 100088a0 f i cfgsaving.obj
 0001:000078a0       ??$?0$$V@?$_Compressed_pair@V?$allocator@PAVDot@@@std@@V?$_Vector_val@U?$_Simple_types@PAVDot@@@std@@@2@$00@std@@QAE@U_Zero_then_variadic_args_t@1@@Z 100088a0 f i dots.obj
 0001:000078a0       ??$?0$$V@?$_Compressed_pair@V?$allocator@Vtrace_info@@@std@@V?$_Vector_val@U?$_Simple_types@Vtrace_info@@@std@@@2@$00@std@@QAE@U_Zero_then_variadic_args_t@1@@Z 100088a0 f i Hooks.obj
 0001:000078a0       ??$?0$$V@?$_Compressed_pair@V?$allocator@H@std@@V?$_Vector_val@U?$_Simple_types@H@std@@@2@$00@std@@QAE@U_Zero_then_variadic_args_t@1@@Z 100088a0 f i Aimbot.obj
 0001:000078c0       ??$_Pocca@V?$allocator@D@std@@@std@@YAXAAV?$allocator@D@0@ABV10@@Z 100088c0 f i Event Logs.obj
 0001:000078e0       ??$_Reallocate_grow_by@V<lambda_ab246b20b9526e2ef7792587e4298a77>@@PBDI@?$basic_string@DU?$char_traits@D@std@@V?$allocator@D@2@@std@@QAEAAV01@IV<lambda_ab246b20b9526e2ef7792587e4298a77>@@PBDI@Z 100088e0 f i Event Logs.obj
 0001:00007a10       ??$_Destroy_range@V?$allocator@VCMessage@@@std@@@std@@YAXPAVCMessage@@0AAV?$allocator@VCMessage@@@0@@Z 10008a10 f i Event Logs.obj
 0001:00007a40       ??$_Pocma@V?$allocator@D@std@@@std@@YAXAAV?$allocator@D@0@0@Z 10008a40 f i Event Logs.obj
 0001:00007a60       ??_GCMessage@@QAEPAXI@Z    10008a60 f i Event Logs.obj
 0001:00007a90       ??0CMessage@@QAE@$$QAV0@@Z 10008a90 f i Event Logs.obj
 0001:00007af0       ??0?$_Vector_val@U?$_Simple_types@VCMessage@@@std@@@std@@QAE@XZ 10008af0 f i Event Logs.obj
 0001:00007af0       ??0?$_Vector_val@U?$_Simple_types@V?$basic_string@DU?$char_traits@D@std@@V?$allocator@D@2@@std@@@std@@@std@@QAE@XZ 10008af0 f i Menu.obj
 0001:00007af0       ??0?$_Vector_val@U?$_Simple_types@V?$_List_unchecked_iterator@V?$_List_val@U?$_List_simple_types@U?$pair@$$CBV?$basic_string@DU?$char_traits@D@std@@V?$allocator@D@2@@std@@V?$shared_ptr@UNode@NetvarTree@@@2@@std@@@std@@@std@@@std@@@std@@@std@@QAE@XZ 10008af0 f i NetvarManager.obj
 0001:00007af0       ??0?$_Vector_val@U?$_Simple_types@PAVDot@@@std@@@std@@QAE@XZ 10008af0 f i dots.obj
 0001:00007af0       ??0?$_Vector_val@U?$_Simple_types@H@std@@@std@@QAE@XZ 10008af0 f i Aimbot.obj
 0001:00007af0       ??0?$_Vector_val@U?$_Simple_types@PBD@std@@@std@@QAE@XZ 10008af0 f i Hooks.obj
 0001:00007af0       ??0?$_Vector_val@U?$_Simple_types@Vtrace_info@@@std@@@std@@QAE@XZ 10008af0 f i Hooks.obj
 0001:00007af0       ??0?$_Vector_val@U?$_Simple_types@PAV?$ConfigValue@_N@@@std@@@std@@QAE@XZ 10008af0 f i cfgsaving.obj
 0001:00007af0       ??0?$_Vector_val@U?$_Simple_types@PAV?$ConfigValue@H@@@std@@@std@@QAE@XZ 10008af0 f i cfgsaving.obj
 0001:00007af0       ??0?$_Vector_val@U?$_Simple_types@PAV?$ConfigValue@M@@@std@@@std@@QAE@XZ 10008af0 f i cfgsaving.obj
 0001:00007b20       ?_Change_array@?$vector@VCMessage@@V?$allocator@VCMessage@@@std@@@std@@AAEXQAVCMessage@@II@Z 10008b20 f i Event Logs.obj
 0001:00007be0       ?_Calculate_growth@?$vector@VCMessage@@V?$allocator@VCMessage@@@std@@@std@@ABEII@Z 10008be0 f i Event Logs.obj
 0001:00007c30       ?_Umove_if_noexcept@?$vector@VCMessage@@V?$allocator@VCMessage@@@std@@@std@@AAEXPAVCMessage@@00@Z 10008c30 f i Event Logs.obj
 0001:00007c60       ?_Umove@?$vector@VCMessage@@V?$allocator@VCMessage@@@std@@@std@@AAEPAVCMessage@@PAV3@00@Z 10008c60 f i Event Logs.obj
 0001:00007c90       ?max_size@?$vector@VCMessage@@V?$allocator@VCMessage@@@std@@@std@@QBEIXZ 10008c90 f i Event Logs.obj
 0001:00007cd0       ?allocate@?$allocator@VCMessage@@@std@@QAEPAVCMessage@@I@Z 10008cd0 f i Event Logs.obj
 0001:00007d00       ?reserve@?$basic_string@DU?$char_traits@D@std@@V?$allocator@D@2@@std@@QAEXI@Z 10008d00 f i Event Logs.obj
 0001:00007d90       ??R<lambda_67d87d4aa1269033985980465fd1d824>@@QBEXQADQBDI@Z 10008d90 f i Event Logs.obj
 0001:00007dc0       ??Y?$basic_string@DU?$char_traits@D@std@@V?$allocator@D@2@@std@@QAEAAV01@QBD@Z 10008dc0 f i Event Logs.obj
 0001:00007de0       ?max_size@?$_Default_allocator_traits@V?$allocator@VCMessage@@@std@@@std@@SAIABV?$allocator@VCMessage@@@2@@Z 10008de0 f i Event Logs.obj
 0001:00007df0       ?_Umove_if_noexcept1@?$vector@VCMessage@@V?$allocator@VCMessage@@@std@@@std@@AAEXPAVCMessage@@00U?$integral_constant@_N$00@2@@Z 10008df0 f i Event Logs.obj
 0001:00007e20       ??$_Move_unchecked1@PAVCMessage@@PAV1@@std@@YAPAVCMessage@@PAV1@00U_General_ptr_iterator_tag@0@@Z 10008e20 f i Event Logs.obj
 0001:00007e60       ??$_Destroy_range1@V?$allocator@VCMessage@@@std@@@std@@YAXPAVCMessage@@0AAV?$allocator@VCMessage@@@0@U?$integral_constant@_N$0A@@0@@Z 10008e60 f i Event Logs.obj
 0001:00007ea0       ??$_Pocma@V?$allocator@D@std@@@std@@YAXAAV?$allocator@D@0@0U?$integral_constant@_N$00@0@@Z 10008ea0 f i Event Logs.obj
 0001:00007ec0       ??$_Uninitialized_move@PAVCMessage@@PAV1@V?$allocator@VCMessage@@@std@@@std@@YAPAVCMessage@@QAV1@0PAV1@AAV?$allocator@VCMessage@@@0@@Z 10008ec0 f i Event Logs.obj
 0001:00007f80       ??$_Idl_distance@PAVCMessage@@PAV1@@std@@YAHABQAVCMessage@@0@Z 10008f80 f i Event Logs.obj
 0001:00007fa0       ??$_Get_size_of_n@$0DA@@std@@YAII@Z 10008fa0 f i Event Logs.obj
 0001:00007fd0       ??$_Reallocate_grow_by@V<lambda_67d87d4aa1269033985980465fd1d824>@@$$V@?$basic_string@DU?$char_traits@D@std@@V?$allocator@D@2@@std@@QAEAAV01@IV<lambda_67d87d4aa1269033985980465fd1d824>@@@Z 10008fd0 f i Event Logs.obj
 0001:000080f0       ??4CMessage@@QAEAAV0@$$QAV0@@Z 100090f0 f i Event Logs.obj
 0001:00008150       ??$_Uninitialized_move_al_unchecked@PAVCMessage@@PAV1@V?$allocator@VCMessage@@@std@@@std@@YAPAVCMessage@@PAV1@QAV1@1AAV?$allocator@VCMessage@@@0@U_General_ptr_iterator_tag@0@U_Unused_parameter@0@@Z 10009150 f i Event Logs.obj
 0001:000081e0       ??1?$_Uninitialized_backout_al@PAVCMessage@@V?$allocator@VCMessage@@@std@@@std@@QAE@XZ 100091e0 f i Event Logs.obj
 0001:00008230       ??$_Emplace_back@VCMessage@@@?$_Uninitialized_backout_al@PAVCMessage@@V?$allocator@VCMessage@@@std@@@std@@QAEX$$QAVCMessage@@@Z 10009230 f i Event Logs.obj
 0001:00008290       _atan2f                    10009290 f i Aimbot.obj
 0001:000082d0       _fabsf                     100092d0 f i Aimbot.obj
 0001:000082f0       ?fabs@@YAMM@Z              100092f0 f i Aimbot.obj
 0001:000082f0       ?abs@@YAMM@Z               100092f0 f i Aimbot.obj
 0001:00008310       ?atan2@@YAMMM@Z            10009310 f i Aimbot.obj
 0001:00008340       ??0_Iterator_base12@std@@QAE@ABU01@@Z 10009340 f i Aimbot.obj
 0001:00008370       ??4_Iterator_base12@std@@QAEAAU01@ABU01@@Z 10009370 f i Aimbot.obj
 0001:000083b0       ?_Adopt@_Iterator_base12@std@@QAEXPBU_Container_base12@2@@Z 100093b0 f i Aimbot.obj
 0001:000083e0       ?_Getcont@_Iterator_base12@std@@QBEPBU_Container_base12@2@XZ 100093e0 f i Aimbot.obj
 0001:00008410       ??AVector@@QAEAAMH@Z       10009410 f i Aimbot.obj
 0001:00008430       ??AVector@@QBEMH@Z         10009430 f i Aimbot.obj
 0001:00008450       ?GetFlags@C_BaseEntity@@QAE?AW4EntityFlags@@XZ 10009450 f i Aimbot.obj
 0001:00008500       ?GetLifeState@C_BaseEntity@@QAE_NXZ 10009500 f i Aimbot.obj
 0001:000085b0       ?IsAlive@C_BaseEntity@@QAE_NXZ 100095b0 f i Aimbot.obj
 0001:000085f0       ?GetTickBase@C_BaseEntity@@QAEHXZ 100095f0 f i Aimbot.obj
 0001:000086b0       ?GetEyeAngles@C_BaseEntity@@QAE?AVVector@@XZ 100096b0 f i Aimbot.obj
 0001:00008770       ?GetOrigin@C_BaseEntity@@QAE?AVVector@@XZ 10009770 f i Aimbot.obj
 0001:00008830       ?GetVelocity@C_BaseEntity@@QAE?AVVector@@XZ 10009830 f i Aimbot.obj
 0001:000088f0       ?punchangle@C_BaseEntity@@QAE?AVVector@@XZ 100098f0 f i Hooks.obj
 0001:000088f0       ?GetAimPunchAngle@C_BaseEntity@@QAE?AVVector@@XZ 100098f0 f i Aimbot.obj
 0001:00008920       ?GetEyePosition@C_BaseEntity@@QAE?AVVector@@XZ 10009920 f i Aimbot.obj
 0001:00008970       ?GetItemDefinitionIndex@C_BaseCombatWeapon@@QAE?AW4ItemDefinitionIndex@@XZ 10009970 f i Aimbot.obj
 0001:00008a30       ?GetLastShotTime@C_BaseCombatWeapon@@QAEMXZ 10009a30 f i Aimbot.obj
 0001:00008ae0       ?GetNextPrimaryAttack@C_BaseCombatWeapon@@QAEMXZ 10009ae0 f i Aimbot.obj
 0001:00008ba0       ?GetCSWpnData_2@C_BaseCombatWeapon@@QAEPAVweapon_info_t@@XZ 10009ba0 f i Aimbot.obj
 0001:00008ba0       ?GetCSWpnData@C_BaseCombatWeapon@@QAEPAVWeaponInfo_t@@XZ 10009ba0 f i Aimbot.obj
 0001:00008bd0       ?hitchance@Aimbot@@AAE_NH@Z 10009bd0 f i Aimbot.obj
 0001:00008c50       ?GetFloat@ConVar@@QAEMXZ   10009c50 f i Aimbot.obj
 0001:00008c80       ??0Aimbot@@QAE@XZ          10009c80 f i Aimbot.obj
 0001:00008cb0       ?ClampMovement@@YAXM@Z     10009cb0 f   Aimbot.obj
 0001:00008de0       ?ShouldBaim@@YA_NPAVC_BaseEntity@@@Z 10009de0 f   Aimbot.obj
 0001:00009110       ?Hitscan@Aimbot@@AAE?AVVector@@PAVC_BaseEntity@@@Z 1000a110 f   Aimbot.obj
 0001:0000a2e0       ?vector_angles@@YAXABVVector@@AAV1@@Z 1000b2e0 f   Aimbot.obj
 0001:0000a510       ?calc_angle_v2@@YA?AVVector@@V1@0@Z 1000b510 f   Aimbot.obj
 0001:0000a560       ?OnCreateMove@Aimbot@@QAEXXZ 1000b560 f   Aimbot.obj
 0001:0000aba0       ?_Unchecked_begin@?$vector@PAV?$ConfigValue@M@@V?$allocator@PAV?$ConfigValue@M@@@std@@@std@@QAEPAPAV?$ConfigValue@M@@XZ 1000bba0 f i cfgsaving.obj
 0001:0000aba0       ?_Unchecked_begin@?$vector@PAV?$ConfigValue@H@@V?$allocator@PAV?$ConfigValue@H@@@std@@@std@@QAEPAPAV?$ConfigValue@H@@XZ 1000bba0 f i cfgsaving.obj
 0001:0000aba0       ?_Unchecked_begin@?$vector@PAV?$ConfigValue@_N@@V?$allocator@PAV?$ConfigValue@_N@@@std@@@std@@QAEPAPAV?$ConfigValue@_N@@XZ 1000bba0 f i cfgsaving.obj
 0001:0000aba0       ?_Unchecked_begin@?$vector@V?$basic_string@DU?$char_traits@D@std@@V?$allocator@D@2@@std@@V?$allocator@V?$basic_string@DU?$char_traits@D@std@@V?$allocator@D@2@@std@@@2@@std@@QAEPAV?$basic_string@DU?$char_traits@D@std@@V?$allocator@D@2@@2@XZ 1000bba0 f i ESP.obj
 0001:0000aba0       ?_Unchecked_begin@?$vector@PBDV?$allocator@PBD@std@@@std@@QAEPAPBDXZ 1000bba0 f i Hooks.obj
 0001:0000aba0       ?_Unchecked_begin@?$vector@HV?$allocator@H@std@@@std@@QAEPAHXZ 1000bba0 f i Aimbot.obj
 0001:0000abc0       ?push_back@?$vector@PAV?$ConfigValue@M@@V?$allocator@PAV?$ConfigValue@M@@@std@@@std@@QAEX$$QAPAV?$ConfigValue@M@@@Z 1000bbc0 f i cfgsaving.obj
 0001:0000abc0       ?push_back@?$vector@PAV?$ConfigValue@_N@@V?$allocator@PAV?$ConfigValue@_N@@@std@@@std@@QAEX$$QAPAV?$ConfigValue@_N@@@Z 1000bbc0 f i cfgsaving.obj
 0001:0000abc0       ?push_back@?$vector@PAV?$ConfigValue@H@@V?$allocator@PAV?$ConfigValue@H@@@std@@@std@@QAEX$$QAPAV?$ConfigValue@H@@@Z 1000bbc0 f i cfgsaving.obj
 0001:0000abc0       ?push_back@?$vector@HV?$allocator@H@std@@@std@@QAEX$$QAH@Z 1000bbc0 f i Aimbot.obj
 0001:0000abc0       ?push_back@?$vector@PAVDot@@V?$allocator@PAVDot@@@std@@@std@@QAEX$$QAPAVDot@@@Z 1000bbc0 f i dots.obj
 0001:0000abf0       ??$emplace_back@PAV?$ConfigValue@_N@@@?$vector@PAV?$ConfigValue@_N@@V?$allocator@PAV?$ConfigValue@_N@@@std@@@std@@QAEAAPAV?$ConfigValue@_N@@$$QAPAV2@@Z 1000bbf0 f i cfgsaving.obj
 0001:0000abf0       ??$emplace_back@H@?$vector@HV?$allocator@H@std@@@std@@QAEAAH$$QAH@Z 1000bbf0 f i Aimbot.obj
 0001:0000abf0       ??$emplace_back@PAV?$ConfigValue@M@@@?$vector@PAV?$ConfigValue@M@@V?$allocator@PAV?$ConfigValue@M@@@std@@@std@@QAEAAPAV?$ConfigValue@M@@$$QAPAV2@@Z 1000bbf0 f i cfgsaving.obj
 0001:0000abf0       ??$emplace_back@PAVDot@@@?$vector@PAVDot@@V?$allocator@PAVDot@@@std@@@std@@QAEAAPAVDot@@$$QAPAV2@@Z 1000bbf0 f i dots.obj
 0001:0000abf0       ??$emplace_back@PAV?$ConfigValue@H@@@?$vector@PAV?$ConfigValue@H@@V?$allocator@PAV?$ConfigValue@H@@@std@@@std@@QAEAAPAV?$ConfigValue@H@@$$QAPAV2@@Z 1000bbf0 f i cfgsaving.obj
 0001:0000ac60       ??$_Emplace_back_with_unused_capacity@PAV?$ConfigValue@_N@@@?$vector@PAV?$ConfigValue@_N@@V?$allocator@PAV?$ConfigValue@_N@@@std@@@std@@AAEAAPAV?$ConfigValue@_N@@$$QAPAV2@@Z 1000bc60 f i cfgsaving.obj
 0001:0000ac60       ??$_Emplace_back_with_unused_capacity@PAV?$ConfigValue@M@@@?$vector@PAV?$ConfigValue@M@@V?$allocator@PAV?$ConfigValue@M@@@std@@@std@@AAEAAPAV?$ConfigValue@M@@$$QAPAV2@@Z 1000bc60 f i cfgsaving.obj
 0001:0000ac60       ??$_Emplace_back_with_unused_capacity@H@?$vector@HV?$allocator@H@std@@@std@@AAEAAH$$QAH@Z 1000bc60 f i Aimbot.obj
 0001:0000ac60       ??$_Emplace_back_with_unused_capacity@PAV?$ConfigValue@H@@@?$vector@PAV?$ConfigValue@H@@V?$allocator@PAV?$ConfigValue@H@@@std@@@std@@AAEAAPAV?$ConfigValue@H@@$$QAPAV2@@Z 1000bc60 f i cfgsaving.obj
 0001:0000ac60       ??$_Emplace_back_with_unused_capacity@PAVDot@@@?$vector@PAVDot@@V?$allocator@PAVDot@@@std@@@std@@AAEAAPAVDot@@$$QAPAV2@@Z 1000bc60 f i dots.obj
 0001:0000ad10       ??1?$vector@V?$_List_unchecked_iterator@V?$_List_val@U?$_List_simple_types@U?$pair@$$CBV?$basic_string@DU?$char_traits@D@std@@V?$allocator@D@2@@std@@V?$shared_ptr@UNode@NetvarTree@@@2@@std@@@std@@@std@@@std@@V?$allocator@V?$_List_unchecked_iterator@V?$_List_val@U?$_List_simple_types@U?$pair@$$CBV?$basic_string@DU?$char_traits@D@std@@V?$allocator@D@2@@std@@V?$shared_ptr@UNode@NetvarTree@@@2@@std@@@std@@@std@@@std@@@2@@std@@QAE@XZ 1000bd10 f i Hooks.obj
 0001:0000ad10       ??1?$vector@PAV?$ConfigValue@_N@@V?$allocator@PAV?$ConfigValue@_N@@@std@@@std@@QAE@XZ 1000bd10 f i cfgsaving.obj
 0001:0000ad10       ??1?$vector@PAV?$ConfigValue@M@@V?$allocator@PAV?$ConfigValue@M@@@std@@@std@@QAE@XZ 1000bd10 f i cfgsaving.obj
 0001:0000ad10       ??1?$vector@PBDV?$allocator@PBD@std@@@std@@QAE@XZ 1000bd10 f i Hooks.obj
 0001:0000ad10       ??1?$vector@PAVDot@@V?$allocator@PAVDot@@@std@@@std@@QAE@XZ 1000bd10 f i dots.obj
 0001:0000ad10       ??1?$vector@PAV?$ConfigValue@H@@V?$allocator@PAV?$ConfigValue@H@@@std@@@std@@QAE@XZ 1000bd10 f i cfgsaving.obj
 0001:0000ad10       ??1?$vector@HV?$allocator@H@std@@@std@@QAE@XZ 1000bd10 f i Aimbot.obj
 0001:0000ad50       ?at@?$deque@UPlayerRecords@@V?$allocator@UPlayerRecords@@@std@@@std@@QAEAAUPlayerRecords@@I@Z 1000bd50 f i Aimbot.obj
 0001:0000ae00       ?_Tidy@?$vector@PAVDot@@V?$allocator@PAVDot@@@std@@@std@@AAEXXZ 1000be00 f i dots.obj
 0001:0000ae00       ?_Tidy@?$vector@V?$_List_unchecked_iterator@V?$_List_val@U?$_List_simple_types@U?$pair@$$CBV?$basic_string@DU?$char_traits@D@std@@V?$allocator@D@2@@std@@V?$shared_ptr@UNode@NetvarTree@@@2@@std@@@std@@@std@@@std@@V?$allocator@V?$_List_unchecked_iterator@V?$_List_val@U?$_List_simple_types@U?$pair@$$CBV?$basic_string@DU?$char_traits@D@std@@V?$allocator@D@2@@std@@V?$shared_ptr@UNode@NetvarTree@@@2@@std@@@std@@@std@@@std@@@2@@std@@AAEXXZ 1000be00 f i Hooks.obj
 0001:0000ae00       ?_Tidy@?$vector@PAV?$ConfigValue@M@@V?$allocator@PAV?$ConfigValue@M@@@std@@@std@@AAEXXZ 1000be00 f i cfgsaving.obj
 0001:0000ae00       ?_Tidy@?$vector@PAV?$ConfigValue@_N@@V?$allocator@PAV?$ConfigValue@_N@@@std@@@std@@AAEXXZ 1000be00 f i cfgsaving.obj
 0001:0000ae00       ?_Tidy@?$vector@PBDV?$allocator@PBD@std@@@std@@AAEXXZ 1000be00 f i Hooks.obj
 0001:0000ae00       ?_Tidy@?$vector@HV?$allocator@H@std@@@std@@AAEXXZ 1000be00 f i Aimbot.obj
 0001:0000ae00       ?_Tidy@?$vector@PAV?$ConfigValue@H@@V?$allocator@PAV?$ConfigValue@H@@@std@@@std@@AAEXXZ 1000be00 f i cfgsaving.obj
 0001:0000aeb0       ??H?$_Deque_iterator@V?$_Deque_val@U?$_Deque_simple_types@UPlayerRecords@@@std@@@std@@@std@@QBE?AV01@H@Z 1000beb0 f i Aimbot.obj
 0001:0000af30       ??D?$_Deque_iterator@V?$_Deque_val@U?$_Deque_simple_types@UPlayerRecords@@@std@@@std@@@std@@QBEAAUPlayerRecords@@XZ 1000bf30 f i Aimbot.obj
 0001:0000af50       ?_Xran@?$deque@UPlayerRecords@@V?$allocator@UPlayerRecords@@@std@@@std@@IBEXXZ 1000bf50 f i Aimbot.obj
 0001:0000af70       ?begin@?$deque@UPlayerRecords@@V?$allocator@UPlayerRecords@@@std@@@std@@QAE?AV?$_Deque_iterator@V?$_Deque_val@U?$_Deque_simple_types@UPlayerRecords@@@std@@@std@@@2@XZ 1000bf70 f i Aimbot.obj
 0001:0000afe0       ??0?$_Deque_iterator@V?$_Deque_val@U?$_Deque_simple_types@UPlayerRecords@@@std@@@std@@@std@@QAE@ABV01@@Z 1000bfe0 f i Aimbot.obj
 0001:0000afe0       ??0?$_Deque_iterator@V?$_Deque_val@U?$_Deque_simple_types@UPlayerRecords@@@std@@@std@@@std@@QAE@$$QAV01@@Z 1000bfe0 f i LagComp.obj
 0001:0000b000       ??0?$_Deque_const_iterator@V?$_Deque_val@U?$_Deque_simple_types@UPlayerRecords@@@std@@@std@@@std@@QAE@ABV01@@Z 1000c000 f i Aimbot.obj
 0001:0000b000       ??0?$_Deque_const_iterator@V?$_Deque_val@U?$_Deque_simple_types@UPlayerRecords@@@std@@@std@@@std@@QAE@$$QAV01@@Z 1000c000 f i LagComp.obj
 0001:0000b030       ??D?$_Deque_const_iterator@V?$_Deque_val@U?$_Deque_simple_types@UPlayerRecords@@@std@@@std@@@std@@QBEABUPlayerRecords@@XZ 1000c030 f i Aimbot.obj
 0001:0000b090       ??Y?$_Deque_const_iterator@V?$_Deque_val@U?$_Deque_simple_types@UPlayerRecords@@@std@@@std@@@std@@QAEAAV01@H@Z 1000c090 f i LagComp.obj
 0001:0000b090       ??Y?$_Deque_iterator@V?$_Deque_val@U?$_Deque_simple_types@UPlayerRecords@@@std@@@std@@@std@@QAEAAV01@H@Z 1000c090 f i Aimbot.obj
 0001:0000b0b0       ??0?$_Deque_iterator@V?$_Deque_val@U?$_Deque_simple_types@UPlayerRecords@@@std@@@std@@@std@@QAE@IPBU_Container_base12@1@@Z 1000c0b0 f i Aimbot.obj
 0001:0000b0d0       ??0?$_Deque_const_iterator@V?$_Deque_val@U?$_Deque_simple_types@UPlayerRecords@@@std@@@std@@@std@@QAE@IPBU_Container_base12@1@@Z 1000c0d0 f i Aimbot.obj
 0001:0000b130       ?_Setcont@?$_Deque_const_iterator@V?$_Deque_val@U?$_Deque_simple_types@UPlayerRecords@@@std@@@std@@@std@@QAEXPBV?$_Deque_val@U?$_Deque_simple_types@UPlayerRecords@@@std@@@2@@Z 1000c130 f i Aimbot.obj
 0001:0000b150       ??$GetOffset@PBDPBD@NetvarTree@@QAEHPBD00@Z 1000c150 f i Aimbot.obj
 0001:0000b1f0       ??$GetValue@VVector@@@C_BaseEntity@@AAE?AVVector@@H@Z 1000c1f0 f i Aimbot.obj
 0001:0000b220       ??$GetOffset@PBDPBDPBD@NetvarTree@@QAEHPBD000@Z 1000c220 f i Aimbot.obj
 0001:0000b2c0       ??$GetValue@W4ItemDefinitionIndex@@@C_BaseCombatWeapon@@AAE?AW4ItemDefinitionIndex@@H@Z 1000c2c0 f i Aimbot.obj
 0001:0000b2e0       ??$CallVFunc@$0BMG@PAVweapon_info_t@@$$V@Utils@@SAPAVweapon_info_t@@PAX@Z 1000c2e0 f i Aimbot.obj
 0001:0000b2e0       ??$CallVFunc@$0BMG@PAVWeaponInfo_t@@$$V@Utils@@SAPAVWeaponInfo_t@@PAX@Z 1000c2e0 f i Aimbot.obj
 0001:0000b310       ??$_Emplace_reallocate@H@?$vector@HV?$allocator@H@std@@@std@@QAEPAHQAH$$QAH@Z 1000c310 f i Aimbot.obj
 0001:0000b310       ??$_Emplace_reallocate@PAV?$ConfigValue@_N@@@?$vector@PAV?$ConfigValue@_N@@V?$allocator@PAV?$ConfigValue@_N@@@std@@@std@@QAEPAPAV?$ConfigValue@_N@@QAPAV2@$$QAPAV2@@Z 1000c310 f i cfgsaving.obj
 0001:0000b310       ??$_Emplace_reallocate@PAV?$ConfigValue@M@@@?$vector@PAV?$ConfigValue@M@@V?$allocator@PAV?$ConfigValue@M@@@std@@@std@@QAEPAPAV?$ConfigValue@M@@QAPAV2@$$QAPAV2@@Z 1000c310 f i cfgsaving.obj
 0001:0000b310       ??$_Emplace_reallocate@PAV?$ConfigValue@H@@@?$vector@PAV?$ConfigValue@H@@V?$allocator@PAV?$ConfigValue@H@@@std@@@std@@QAEPAPAV?$ConfigValue@H@@QAPAV2@$$QAPAV2@@Z 1000c310 f i cfgsaving.obj
 0001:0000b310       ??$_Emplace_reallocate@PAVDot@@@?$vector@PAVDot@@V?$allocator@PAVDot@@@std@@@std@@QAEPAPAVDot@@QAPAV2@$$QAPAV2@@Z 1000c310 f i dots.obj
 0001:0000b500       ?_Umove_if_noexcept@?$vector@PAV?$ConfigValue@H@@V?$allocator@PAV?$ConfigValue@H@@@std@@@std@@AAEXPAPAV?$ConfigValue@H@@00@Z 1000c500 f i cfgsaving.obj
 0001:0000b500       ?_Umove_if_noexcept@?$vector@PAV?$ConfigValue@M@@V?$allocator@PAV?$ConfigValue@M@@@std@@@std@@AAEXPAPAV?$ConfigValue@M@@00@Z 1000c500 f i cfgsaving.obj
 0001:0000b500       ?_Umove_if_noexcept@?$vector@HV?$allocator@H@std@@@std@@AAEXPAH00@Z 1000c500 f i Aimbot.obj
 0001:0000b500       ?_Umove_if_noexcept@?$vector@PAV?$ConfigValue@_N@@V?$allocator@PAV?$ConfigValue@_N@@@std@@@std@@AAEXPAPAV?$ConfigValue@_N@@00@Z 1000c500 f i cfgsaving.obj
 0001:0000b500       ?_Umove_if_noexcept@?$vector@PAVDot@@V?$allocator@PAVDot@@@std@@@std@@AAEXPAPAVDot@@00@Z 1000c500 f i dots.obj
 0001:0000b530       ?_Umove@?$vector@PAV?$ConfigValue@H@@V?$allocator@PAV?$ConfigValue@H@@@std@@@std@@AAEPAPAV?$ConfigValue@H@@PAPAV3@00@Z 1000c530 f i cfgsaving.obj
 0001:0000b530       ?_Umove@?$vector@PAV?$ConfigValue@M@@V?$allocator@PAV?$ConfigValue@M@@@std@@@std@@AAEPAPAV?$ConfigValue@M@@PAPAV3@00@Z 1000c530 f i cfgsaving.obj
 0001:0000b530       ?_Umove@?$vector@PAVDot@@V?$allocator@PAVDot@@@std@@@std@@AAEPAPAVDot@@PAPAV3@00@Z 1000c530 f i dots.obj
 0001:0000b530       ??$_Ucopy@PBQBD@?$vector@PBDV?$allocator@PBD@std@@@std@@AAEPAPBDPBQBD0PAPBD@Z 1000c530 f i Hooks.obj
 0001:0000b530       ?_Umove@?$vector@HV?$allocator@H@std@@@std@@AAEPAHPAH00@Z 1000c530 f i Aimbot.obj
 0001:0000b530       ?_Umove@?$vector@PAV?$ConfigValue@_N@@V?$allocator@PAV?$ConfigValue@_N@@@std@@@std@@AAEPAPAV?$ConfigValue@_N@@PAPAV3@00@Z 1000c530 f i cfgsaving.obj
 0001:0000b560       ?_Umove_if_noexcept1@?$vector@HV?$allocator@H@std@@@std@@AAEXPAH00U?$integral_constant@_N$00@2@@Z 1000c560 f i Aimbot.obj
 0001:0000b560       ?_Umove_if_noexcept1@?$vector@PAVDot@@V?$allocator@PAVDot@@@std@@@std@@AAEXPAPAVDot@@00U?$integral_constant@_N$00@2@@Z 1000c560 f i dots.obj
 0001:0000b560       ?_Umove_if_noexcept1@?$vector@PAV?$ConfigValue@M@@V?$allocator@PAV?$ConfigValue@M@@@std@@@std@@AAEXPAPAV?$ConfigValue@M@@00U?$integral_constant@_N$00@2@@Z 1000c560 f i cfgsaving.obj
 0001:0000b560       ?_Umove_if_noexcept1@?$vector@PAV?$ConfigValue@H@@V?$allocator@PAV?$ConfigValue@H@@@std@@@std@@AAEXPAPAV?$ConfigValue@H@@00U?$integral_constant@_N$00@2@@Z 1000c560 f i cfgsaving.obj
 0001:0000b560       ?_Umove_if_noexcept1@?$vector@PAV?$ConfigValue@_N@@V?$allocator@PAV?$ConfigValue@_N@@@std@@@std@@AAEXPAPAV?$ConfigValue@_N@@00U?$integral_constant@_N$00@2@@Z 1000c560 f i cfgsaving.obj
 0001:0000b590       ??$GetOffsetRecursive@PBD@NetvarTree@@AAEHAAV?$unordered_map@V?$basic_string@DU?$char_traits@D@std@@V?$allocator@D@2@@std@@V?$shared_ptr@UNode@NetvarTree@@@2@U?$hash@V?$basic_string@DU?$char_traits@D@std@@V?$allocator@D@2@@std@@@2@U?$equal_to@V?$basic_string@DU?$char_traits@D@std@@V?$allocator@D@2@@std@@@2@V?$allocator@U?$pair@$$CBV?$basic_string@DU?$char_traits@D@std@@V?$allocator@D@2@@std@@V?$shared_ptr@UNode@NetvarTree@@@2@@std@@@2@@std@@HPBD1@Z 1000c590 f i Aimbot.obj
 0001:0000b620       ??$GetOffsetRecursive@PBDPBD@NetvarTree@@AAEHAAV?$unordered_map@V?$basic_string@DU?$char_traits@D@std@@V?$allocator@D@2@@std@@V?$shared_ptr@UNode@NetvarTree@@@2@U?$hash@V?$basic_string@DU?$char_traits@D@std@@V?$allocator@D@2@@std@@@2@U?$equal_to@V?$basic_string@DU?$char_traits@D@std@@V?$allocator@D@2@@std@@@2@V?$allocator@U?$pair@$$CBV?$basic_string@DU?$char_traits@D@std@@V?$allocator@D@2@@std@@V?$shared_ptr@UNode@NetvarTree@@@2@@std@@@2@@std@@HPBD11@Z 1000c620 f i Aimbot.obj
 0001:0000b6c0       _atanf                     1000c6c0 f i Autowall.obj
 0001:0000b6e0       ?atan@@YAMM@Z              1000c6e0 f i Autowall.obj
 0001:0000b700       ?LengthSqr@Vector@@QBEMXZ  1000c700 f i Autowall.obj
 0001:0000b750       ?Init@Vector@@QAEXMMM@Z    1000c750 f i Autowall.obj
 0001:0000b790       ??YVector@@QAEAAV0@ABV0@@Z 1000c790 f i Autowall.obj
 0001:0000b7f0       ??_0Vector@@QAEAAV0@M@Z    1000c7f0 f i Autowall.obj
 0001:0000b860       ?VectorNormalize@@YAMAAVVector@@@Z 1000c860 f i Autowall.obj
 0001:0000b8d0       ?VectorLength@@YAMABVVector@@@Z 1000c8d0 f i Autowall.obj
 0001:0000b920       ??0VectorAligned@@QAE@XZ   1000c920 f i Autowall.obj
 0001:0000b920       ??0cplane_t@@QAE@XZ        1000c920 f i Autowall.obj
 0001:0000b940       ??4VectorAligned@@QAEAAV0@ABVVector@@@Z 1000c940 f i Autowall.obj
 0001:0000b990       ?FindSignature@Utils@@SAIPBD0@Z 1000c990 f i Autowall.obj
 0001:0000bbc0       ?FindPattern@Utils@@SAKPBDPBE0@Z 1000cbc0 f i Autowall.obj
 0001:0000bc40       ??R<lambda_8306b9bf967b1dc2e3a7715b585f0ae0>@@QBE_NPBE0PBD@Z 1000cc40 f i Autowall.obj
 0001:0000bcc0       ?ArmorValue@C_BaseEntity@@QAEHXZ 1000ccc0 f i Autowall.obj
 0001:0000bd70       ?HasHelmet@C_BaseEntity@@QAE_NXZ 1000cd70 f i Autowall.obj
 0001:0000be20       ??0C_Ray@@QAE@VVector@@0@Z 1000ce20 f i Autowall.obj
 0001:0000be70       ?Init@C_Ray@@QAEXABVVector@@0@Z 1000ce70 f i Autowall.obj
 0001:0000bf30       ??0C_TraceFilter@@QAE@PAVC_BaseEntity@@W4TraceType_t@@@Z 1000cf30 f i Autowall.obj
 0001:0000bf60       ?ShouldHitEntity@C_TraceFilter@@UAE_NPAXH@Z 1000cf60 f i Autowall.obj
 0001:0000bf90       ??0ITraceFilter@@QAE@XZ    1000cf90 f i Autowall.obj
 0001:0000bfb0       ??0FireBulletData@@QAE@ABVVector@@PAVC_BaseEntity@@@Z 1000cfb0 f i Autowall.obj
 0001:0000c010       ??0C_Trace@@QAE@XZ         1000d010 f i Autowall.obj
 0001:0000c040       ?TraceLine@@YAXAAVVector@@0IPAVC_BaseEntity@@PAUC_Trace@@@Z 1000d040 f   Autowall.obj
 0001:0000c0d0       ?VectortoVectorVisible@@YA_NVVector@@0@Z 1000d0d0 f   Autowall.obj
 0001:0000c160       ?GetHitgroupDamageMult@@YAMH@Z 1000d160 f   Autowall.obj
 0001:0000c1c0       ?ScaleDamage@@YAXHPAVC_BaseEntity@@MAAM@Z 1000d1c0 f   Autowall.obj
 0001:0000c2b0       ?UTIL_ClipTraceToPlayers@@YAXABVVector@@0IPAVITraceFilter@@PAUC_Trace@@@Z 1000d2b0 f   Autowall.obj
 0001:0000c370       ?SimulateFireBullet@@YA_NPAVC_BaseEntity@@PAVC_BaseCombatWeapon@@AAUFireBulletData@@@Z 1000d370 f   Autowall.obj
 0001:0000c5a0       ?TraceToExitalt@@YA_NAAVVector@@AAUC_Trace@@V1@2PAU2@@Z 1000d5a0 f   Autowall.obj
 0001:0000c690       ?HandleBulletPenetration@@YA_NPAVWeaponInfo_t@@AAUFireBulletData@@_N@Z 1000d690 f   Autowall.obj
 0001:0000cab0       ?Damage@Autowall@@QAEMABVVector@@@Z 1000dab0 f   Autowall.obj
 0001:0000cb80       ?CanWallbang@Autowall@@QAE_NAAM@Z 1000db80 f   Autowall.obj
 0001:0000cda0       ??4C_TraceFilter@@QAEAAV0@$$QAV0@@Z 1000dda0 f i Autowall.obj
 0001:0000cdd0       ?CanHitFloatingPoint@Autowall@@QAE_NABVVector@@0@Z 1000ddd0 f   Autowall.obj
 0001:0000cf70       ??$pow@MNX@@YANMN@Z        1000df70 f i Autowall.obj
 0001:0000cfa0       ?GetInt@ConVar@@QBEHXZ     1000dfa0 f i LagComp.obj
 0001:0000cfc0       ??0LagComp@@QAE@XZ         1000dfc0 f i LagComp.obj
 0001:0000cff0       ??1LagComp@@QAE@XZ         1000dff0 f i LagComp.obj
 0001:0000d040       ?LerpTime@LagComp@@QAEMXZ  1000e040 f   LagComp.obj
 0001:0000d210       ?ValidTick@LagComp@@QAE_NH@Z 1000e210 f   LagComp.obj
 0001:0000d3d0       ?StoreRecord@LagComp@@QAEXPAVC_BaseEntity@@@Z 1000e3d0 f   LagComp.obj
 0001:0000d940       ??0PlayerRecords@@QAE@XZ   1000e940 f i LagComp.obj
 0001:0000d980       ?ClearRecords@LagComp@@QAEXH@Z 1000e980 f   LagComp.obj
 0001:0000daa0       ?erase@?$deque@UPlayerRecords@@V?$allocator@UPlayerRecords@@@std@@@std@@QAE?AV?$_Deque_iterator@V?$_Deque_val@U?$_Deque_simple_types@UPlayerRecords@@@std@@@std@@@2@V?$_Deque_const_iterator@V?$_Deque_val@U?$_Deque_simple_types@UPlayerRecords@@@std@@@std@@@2@@Z 1000eaa0 f i LagComp.obj
 0001:0000db30       ?push_back@?$deque@UPlayerRecords@@V?$allocator@UPlayerRecords@@@std@@@std@@QAEXABUPlayerRecords@@@Z 1000eb30 f i LagComp.obj
 0001:0000dc90       ??1?$deque@UPlayerRecords@@V?$allocator@UPlayerRecords@@@std@@@std@@QAE@XZ 1000ec90 f i LagComp.obj
 0001:0000dcd0       ??H?$_Deque_const_iterator@V?$_Deque_val@U?$_Deque_simple_types@UPlayerRecords@@@std@@@std@@@std@@QBE?AV01@H@Z 1000ecd0 f i LagComp.obj
 0001:0000dd50       ?_Tidy@?$deque@UPlayerRecords@@V?$allocator@UPlayerRecords@@@std@@@std@@IAEXXZ 1000ed50 f i LagComp.obj
 0001:0000de60       ?_Growmap@?$deque@UPlayerRecords@@V?$allocator@UPlayerRecords@@@std@@@std@@IAEXI@Z 1000ee60 f i LagComp.obj
 0001:0000e110       ?erase@?$deque@UPlayerRecords@@V?$allocator@UPlayerRecords@@@std@@@std@@QAE?AV?$_Deque_iterator@V?$_Deque_val@U?$_Deque_simple_types@UPlayerRecords@@@std@@@std@@@2@V?$_Deque_const_iterator@V?$_Deque_val@U?$_Deque_simple_types@UPlayerRecords@@@std@@@std@@@2@0@Z 1000f110 f i LagComp.obj
 0001:0000e3b0       ?allocate@?$allocator@UPlayerRecords@@@std@@QAEPAUPlayerRecords@@I@Z 1000f3b0 f i LagComp.obj
 0001:0000e3e0       ??G?$_Deque_iterator@V?$_Deque_val@U?$_Deque_simple_types@UPlayerRecords@@@std@@@std@@@std@@QBEHABV?$_Deque_const_iterator@V?$_Deque_val@U?$_Deque_simple_types@UPlayerRecords@@@std@@@std@@@1@@Z 1000f3e0 f i LagComp.obj
 0001:0000e400       ?pop_back@?$deque@UPlayerRecords@@V?$allocator@UPlayerRecords@@@std@@@std@@QAEXXZ 1000f400 f i LagComp.obj
 0001:0000e4c0       ?pop_front@?$deque@UPlayerRecords@@V?$allocator@UPlayerRecords@@@std@@@std@@QAEXXZ 1000f4c0 f i LagComp.obj
 0001:0000e580       ?max_size@?$deque@UPlayerRecords@@V?$allocator@UPlayerRecords@@@std@@@std@@QBEIXZ 1000f580 f i LagComp.obj
 0001:0000e5a0       ?_Make_iter@?$deque@UPlayerRecords@@V?$allocator@UPlayerRecords@@@std@@@std@@QBE?AV?$_Deque_iterator@V?$_Deque_val@U?$_Deque_simple_types@UPlayerRecords@@@std@@@std@@@2@V?$_Deque_const_iterator@V?$_Deque_val@U?$_Deque_simple_types@UPlayerRecords@@@std@@@std@@@2@@Z 1000f5a0 f i LagComp.obj
 0001:0000e620       ?end@?$deque@UPlayerRecords@@V?$allocator@UPlayerRecords@@@std@@@std@@QAE?AV?$_Deque_iterator@V?$_Deque_val@U?$_Deque_simple_types@UPlayerRecords@@@std@@@std@@@2@XZ 1000f620 f i LagComp.obj
 0001:0000e690       ?deallocate@?$allocator@UPlayerRecords@@@std@@QAEXQAUPlayerRecords@@I@Z 1000f690 f i LagComp.obj
 0001:0000e6c0       ??G?$_Deque_const_iterator@V?$_Deque_val@U?$_Deque_simple_types@UPlayerRecords@@@std@@@std@@@std@@QBEHABV01@@Z 1000f6c0 f i LagComp.obj
 0001:0000e6f0       ?max_size@?$_Default_allocator_traits@V?$allocator@UPlayerRecords@@@std@@@std@@SAIABV?$allocator@UPlayerRecords@@@2@@Z 1000f6f0 f i LagComp.obj
 0001:0000e700       ??$clamp@MM@LagComp@@QAEMMMM@Z 1000f700 f i LagComp.obj
 0001:0000e730       ??$construct@UPlayerRecords@@ABU1@@?$_Default_allocator_traits@V?$allocator@UPlayerRecords@@@std@@@std@@SAXAAV?$allocator@UPlayerRecords@@@1@QAUPlayerRecords@@ABU3@@Z 1000f730 f i LagComp.obj
 0001:0000e770       ??$move_backward@V?$_Deque_iterator@V?$_Deque_val@U?$_Deque_simple_types@UPlayerRecords@@@std@@@std@@@std@@V12@@std@@YA?AV?$_Deque_iterator@V?$_Deque_val@U?$_Deque_simple_types@UPlayerRecords@@@std@@@std@@@0@V10@00@Z 1000f770 f i LagComp.obj
 0001:0000e870       ??$_Get_unwrapped@V?$_Deque_iterator@V?$_Deque_val@U?$_Deque_simple_types@UPlayerRecords@@@std@@@std@@@std@@$0A@@std@@YA?AV?$_Deque_unchecked_iterator@V?$_Deque_val@U?$_Deque_simple_types@UPlayerRecords@@@std@@@std@@@0@ABV?$_Deque_iterator@V?$_Deque_val@U?$_Deque_simple_types@UPlayerRecords@@@std@@@std@@@0@@Z 1000f870 f i LagComp.obj
 0001:0000e890       ??$_Idl_distance@V?$_Deque_iterator@V?$_Deque_val@U?$_Deque_simple_types@UPlayerRecords@@@std@@@std@@@std@@V?$_Deque_unchecked_iterator@V?$_Deque_val@U?$_Deque_simple_types@UPlayerRecords@@@std@@@std@@@2@@std@@YAHABV?$_Deque_unchecked_iterator@V?$_Deque_val@U?$_Deque_simple_types@UPlayerRecords@@@std@@@std@@@0@0@Z 1000f890 f i LagComp.obj
 0001:0000e8b0       ??$_Get_unwrapped_n@V?$_Deque_iterator@V?$_Deque_val@U?$_Deque_simple_types@UPlayerRecords@@@std@@@std@@@std@@H$0A@@std@@YA?AV?$_Deque_unchecked_iterator@V?$_Deque_val@U?$_Deque_simple_types@UPlayerRecords@@@std@@@std@@@0@ABV?$_Deque_iterator@V?$_Deque_val@U?$_Deque_simple_types@UPlayerRecords@@@std@@@std@@@0@H@Z 1000f8b0 f i LagComp.obj
 0001:0000e8e0       ??$move@V?$_Deque_iterator@V?$_Deque_val@U?$_Deque_simple_types@UPlayerRecords@@@std@@@std@@@std@@V12@@std@@YA?AV?$_Deque_iterator@V?$_Deque_val@U?$_Deque_simple_types@UPlayerRecords@@@std@@@std@@@0@V10@00@Z 1000f8e0 f i LagComp.obj
 0001:0000e9e0       ??$_Get_size_of_n@$0BIBI@@std@@YAII@Z 1000f9e0 f i LagComp.obj
 0001:0000ea10       ??G?$_Deque_unchecked_iterator@V?$_Deque_val@U?$_Deque_simple_types@UPlayerRecords@@@std@@@std@@@std@@QBEHABV?$_Deque_unchecked_const_iterator@V?$_Deque_val@U?$_Deque_simple_types@UPlayerRecords@@@std@@@std@@@1@@Z 1000fa10 f i LagComp.obj
 0001:0000ea30       ?_Unwrapped@?$_Deque_iterator@V?$_Deque_val@U?$_Deque_simple_types@UPlayerRecords@@@std@@@std@@@std@@QBE?AV?$_Deque_unchecked_iterator@V?$_Deque_val@U?$_Deque_simple_types@UPlayerRecords@@@std@@@std@@@2@XZ 1000fa30 f i LagComp.obj
 0001:0000ea70       ??G?$_Deque_unchecked_const_iterator@V?$_Deque_val@U?$_Deque_simple_types@UPlayerRecords@@@std@@@std@@@std@@QBEHABV01@@Z 1000fa70 f i LagComp.obj
 0001:0000ea90       ??0?$_Deque_unchecked_iterator@V?$_Deque_val@U?$_Deque_simple_types@UPlayerRecords@@@std@@@std@@@std@@QAE@IPBU_Container_base12@1@@Z 1000fa90 f i LagComp.obj
 0001:0000eab0       ??0?$_Deque_unchecked_const_iterator@V?$_Deque_val@U?$_Deque_simple_types@UPlayerRecords@@@std@@@std@@@std@@QAE@IPBU_Container_base12@1@@Z 1000fab0 f i LagComp.obj
 0001:0000eae0       ??$_Move_backward_unchecked@V?$_Deque_unchecked_iterator@V?$_Deque_val@U?$_Deque_simple_types@UPlayerRecords@@@std@@@std@@@std@@V12@@std@@YA?AV?$_Deque_unchecked_iterator@V?$_Deque_val@U?$_Deque_simple_types@UPlayerRecords@@@std@@@std@@@0@V10@00@Z 1000fae0 f i LagComp.obj
 0001:0000eb30       ??$_Seek_wrapped@V?$_Deque_iterator@V?$_Deque_val@U?$_Deque_simple_types@UPlayerRecords@@@std@@@std@@@std@@V?$_Deque_unchecked_iterator@V?$_Deque_val@U?$_Deque_simple_types@UPlayerRecords@@@std@@@std@@@2@@std@@YAXAAV?$_Deque_iterator@V?$_Deque_val@U?$_Deque_simple_types@UPlayerRecords@@@std@@@std@@@0@ABV?$_Deque_unchecked_iterator@V?$_Deque_val@U?$_Deque_simple_types@UPlayerRecords@@@std@@@std@@@0@@Z 1000fb30 f i LagComp.obj
 0001:0000eb50       ??$_Move_unchecked@V?$_Deque_unchecked_iterator@V?$_Deque_val@U?$_Deque_simple_types@UPlayerRecords@@@std@@@std@@@std@@V12@@std@@YA?AV?$_Deque_unchecked_iterator@V?$_Deque_val@U?$_Deque_simple_types@UPlayerRecords@@@std@@@std@@@0@V10@00@Z 1000fb50 f i LagComp.obj
 0001:0000eba0       ?_Seek_to@?$_Deque_const_iterator@V?$_Deque_val@U?$_Deque_simple_types@UPlayerRecords@@@std@@@std@@@std@@QAEXABV?$_Deque_unchecked_const_iterator@V?$_Deque_val@U?$_Deque_simple_types@UPlayerRecords@@@std@@@std@@@2@@Z 1000fba0 f i LagComp.obj
 0001:0000ebc0       ??$_Move_backward_unchecked1@V?$_Deque_unchecked_iterator@V?$_Deque_val@U?$_Deque_simple_types@UPlayerRecords@@@std@@@std@@@std@@V12@@std@@YA?AV?$_Deque_unchecked_iterator@V?$_Deque_val@U?$_Deque_simple_types@UPlayerRecords@@@std@@@std@@@0@V10@00U_General_ptr_iterator_tag@0@@Z 1000fbc0 f i LagComp.obj
 0001:0000ec30       ??$_Move_unchecked1@V?$_Deque_unchecked_iterator@V?$_Deque_val@U?$_Deque_simple_types@UPlayerRecords@@@std@@@std@@@std@@V12@@std@@YA?AV?$_Deque_unchecked_iterator@V?$_Deque_val@U?$_Deque_simple_types@UPlayerRecords@@@std@@@std@@@0@V10@00U_General_ptr_iterator_tag@0@@Z 1000fc30 f i LagComp.obj
 0001:0000eca0       ??4PlayerRecords@@QAEAAU0@$$QAU0@@Z 1000fca0 f i LagComp.obj
 0001:0000ed40       ??9?$_Deque_unchecked_const_iterator@V?$_Deque_val@U?$_Deque_simple_types@UPlayerRecords@@@std@@@std@@@std@@QBE_NABV01@@Z 1000fd40 f i LagComp.obj
 0001:0000ed80       ??F?$_Deque_unchecked_iterator@V?$_Deque_val@U?$_Deque_simple_types@UPlayerRecords@@@std@@@std@@@std@@QAEAAV01@XZ 1000fd80 f i LagComp.obj
 0001:0000eda0       ??E?$_Deque_unchecked_iterator@V?$_Deque_val@U?$_Deque_simple_types@UPlayerRecords@@@std@@@std@@@std@@QAEAAV01@XZ 1000fda0 f i LagComp.obj
 0001:0000edc0       ??D?$_Deque_unchecked_iterator@V?$_Deque_val@U?$_Deque_simple_types@UPlayerRecords@@@std@@@std@@@std@@QBEAAUPlayerRecords@@XZ 1000fdc0 f i LagComp.obj
 0001:0000ede0       ??8?$_Deque_unchecked_const_iterator@V?$_Deque_val@U?$_Deque_simple_types@UPlayerRecords@@@std@@@std@@@std@@QBE_NABV01@@Z 1000fde0 f i LagComp.obj
 0001:0000ee10       ??F?$_Deque_unchecked_const_iterator@V?$_Deque_val@U?$_Deque_simple_types@UPlayerRecords@@@std@@@std@@@std@@QAEAAV01@XZ 1000fe10 f i LagComp.obj
 0001:0000ee30       ??E?$_Deque_unchecked_const_iterator@V?$_Deque_val@U?$_Deque_simple_types@UPlayerRecords@@@std@@@std@@@std@@QAEAAV01@XZ 1000fe30 f i LagComp.obj
 0001:0000ee50       ??D?$_Deque_unchecked_const_iterator@V?$_Deque_val@U?$_Deque_simple_types@UPlayerRecords@@@std@@@std@@@std@@QBEABUPlayerRecords@@XZ 1000fe50 f i LagComp.obj
 0001:0000eea0       ?Length2DSqr@Vector@@QBEMXZ 1000fea0 f i AntiAim.obj
 0001:0000eee0       ?AnimState@C_BaseEntity@@QAEPAVC_AnimState@@XZ 1000fee0 f i AntiAim.obj
 0001:0000ef00       ?get_max_desync_delta@C_BaseEntity@@QAEMXZ 1000ff00 f i AntiAim.obj
 0001:0000f0e0       ?GetMoveType@C_BaseEntity@@QAE?AW4MoveType_t@@XZ 100100e0 f i AntiAim.obj
 0001:0000f190       ?FreeStanding@@YAXXZ       10010190 f   AntiAim.obj
 0001:0000f830       ?update_lowerbody_breaker@@YAXXZ 10010830 f   AntiAim.obj
 0001:0000f900       ?JitterDesync@@YAXXZ       10010900 f   AntiAim.obj
 0001:0000fa50       ?Real@@YAXXZ               10010a50 f   AntiAim.obj
 0001:0000fc10       ?OnCreateMove@AntiAim@@QAEXXZ 10010c10 f   AntiAim.obj
 0001:0000fcf0       ?Normalized@Vector2D@@QBE?AV1@XZ 10010cf0 f i dots.obj
 0001:0000fd20       ??0Vector2D@@QAE@ABV0@@Z   10010d20 f i dots.obj
 0001:0000fd20       ??4Vector2D@@QAEAAV0@ABV0@@Z 10010d20 f i dots.obj
 0001:0000fd50       ?Vector2DAdd@@YAXABVVector2D@@0AAV1@@Z 10010d50 f i dots.obj
 0001:0000fd90       ?Vector2DSubtract@@YAXABVVector2D@@0AAV1@@Z 10010d90 f i dots.obj
 0001:0000fdd0       ?Vector2DMultiply@@YAXABVVector2D@@MAAV1@@Z 10010dd0 f i dots.obj
 0001:0000fe00       ?Vector2DDivide@@YAXABVVector2D@@MAAV1@@Z 10010e00 f i dots.obj
 0001:0000fe50       ?Vector2DLength@@YAMABVVector2D@@@Z 10010e50 f i dots.obj
 0001:0000fe90       ?Length@Vector2D@@QBEMXZ   10010e90 f i dots.obj
 0001:0000feb0       ?DistTo@Vector2D@@QBEMABV1@@Z 10010eb0 f i dots.obj
 0001:0000fef0       ??HVector2D@@QBE?AV0@ABV0@@Z 10010ef0 f i dots.obj
 0001:0000ff30       ??GVector2D@@QBE?AV0@ABV0@@Z 10010f30 f i dots.obj
 0001:0000ff70       ??DVector2D@@QBE?AV0@M@Z   10010f70 f i dots.obj
 0001:0000ffc0       ??KVector2D@@QBE?AV0@M@Z   10010fc0 f i dots.obj
 0001:00010010       ?DrawSetColor@ISurface@@QAEXUColor@@@Z 10011010 f i dots.obj
 0001:00010060       ?DrawLine@ISurface@@QAEXHHHH@Z 10011060 f i dots.obj
 0001:000100a0       ?Line@ISurface@@QAEXHHHHUColor@@@Z 100110a0 f i dots.obj
 0001:000100e0       ??0Dot@@QAE@VVector2D@@0@Z 100110e0 f i dots.obj
 0001:00010150       ?Draw@Dot@@UAEXXZ          10011150 f i dots.obj
 0001:00010470       ?DrawBackDrop@Drop@@YAXXZ  10011470 f   dots.obj
 0001:00010920       ??M?$_Vector_const_iterator@V?$_Vector_val@U?$_Simple_types@PAVDot@@@std@@@std@@@std@@QBE_NABV01@@Z 10011920 f i dots.obj
 0001:00010960       ??9?$_Vector_const_iterator@V?$_Vector_val@U?$_Simple_types@PAVDot@@@std@@@std@@@std@@QBE_NABV01@@Z 10011960 f i dots.obj
 0001:000109a0       ??8?$_Vector_const_iterator@V?$_Vector_val@U?$_Simple_types@PAVDot@@@std@@@std@@@std@@QBE_NABV01@@Z 100119a0 f i dots.obj
 0001:000109e0       ??E?$_Vector_iterator@V?$_Vector_val@U?$_Simple_types@PAVDot@@@std@@@std@@@std@@QAE?AV01@H@Z 100119e0 f i dots.obj
 0001:00010a10       ?end@?$vector@PAVDot@@V?$allocator@PAVDot@@@std@@@std@@QAE?AV?$_Vector_iterator@V?$_Vector_val@U?$_Simple_types@PAVDot@@@std@@@std@@@2@XZ 10011a10 f i dots.obj
 0001:00010a80       ?erase@?$vector@PAVDot@@V?$allocator@PAVDot@@@std@@@std@@QAE?AV?$_Vector_iterator@V?$_Vector_val@U?$_Simple_types@PAVDot@@@std@@@std@@@2@V?$_Vector_const_iterator@V?$_Vector_val@U?$_Simple_types@PAVDot@@@std@@@std@@@2@@Z 10011a80 f i dots.obj
 0001:00010b20       ??E?$_Vector_iterator@V?$_Vector_val@U?$_Simple_types@PAVDot@@@std@@@std@@@std@@QAEAAV01@XZ 10011b20 f i dots.obj
 0001:00010b40       ??E?$_Vector_const_iterator@V?$_Vector_val@U?$_Simple_types@PAVDot@@@std@@@std@@@std@@QAEAAV01@XZ 10011b40 f i dots.obj
 0001:00010b60       ??$find@V?$_Vector_iterator@V?$_Vector_val@U?$_Simple_types@PAVDot@@@std@@@std@@@std@@PAVDot@@@std@@YA?AV?$_Vector_iterator@V?$_Vector_val@U?$_Simple_types@PAVDot@@@std@@@std@@@0@V10@V10@ABQAVDot@@@Z 10011b60 f i dots.obj
 0001:00010bd0       ??$_Get_unwrapped@V?$_Vector_iterator@V?$_Vector_val@U?$_Simple_types@PAVDot@@@std@@@std@@@std@@$0A@@std@@YAPAPAVDot@@ABV?$_Vector_iterator@V?$_Vector_val@U?$_Simple_types@PAVDot@@@std@@@std@@@0@@Z 10011bd0 f i dots.obj
 0001:00010be0       ??$_Move_unchecked@PAPAVDot@@PAPAV1@@std@@YAPAPAVDot@@PAPAV1@00@Z 10011be0 f i dots.obj
 0001:00010c20       ??$_Find_unchecked@PAPAVDot@@PAV1@@std@@YAPAPAVDot@@QAPAV1@0ABQAV1@@Z 10011c20 f i dots.obj
 0001:00010c50       ??$_Seek_wrapped@V?$_Vector_iterator@V?$_Vector_val@U?$_Simple_types@PAVDot@@@std@@@std@@@std@@PAPAVDot@@@std@@YAXAAV?$_Vector_iterator@V?$_Vector_val@U?$_Simple_types@PAVDot@@@std@@@std@@@0@ABQAPAVDot@@@Z 10011c50 f i dots.obj
 0001:00010c70       ?_Seek_to@?$_Vector_const_iterator@V?$_Vector_val@U?$_Simple_types@PAVDot@@@std@@@std@@@std@@QAEXPBQAVDot@@@Z 10011c70 f i dots.obj
 0001:00010c90       ??$_Find_unchecked1@PAPAVDot@@PAV1@@std@@YAPAPAVDot@@PAPAV1@QAPAV1@ABQAV1@U?$integral_constant@_N$0A@@0@@Z 10011c90 f i dots.obj
 0001:00010cc0       ?to_string@std@@YA?AV?$basic_string@DU?$char_traits@D@std@@V?$allocator@D@2@@1@H@Z 10011cc0 f i chams.obj
 0001:00010cf0       ?CreateMaterial@IMaterialSystem@@QAEPAVIMaterial@@PBDPAVKeyValues@@@Z 10011cf0 f i chams.obj
 0001:00010d20       ?InitKeyValues@@YAXPAVKeyValues@@V?$basic_string@DU?$char_traits@D@std@@V?$allocator@D@2@@std@@@Z 10011d20 f   chams.obj
 0001:00010de0       ?LoadFromBuffer@@YAXPAVKeyValues@@V?$basic_string@DU?$char_traits@D@std@@V?$allocator@D@2@@std@@1@Z 10011de0 f   chams.obj
 0001:00010ec0       ?create_material@chams@@QAEPAVIMaterial@@_N00@Z 10011ec0 f   chams.obj
 0001:000111f0       ?_Check_offset@?$_String_val@U?$_Simple_types@D@std@@@std@@QBEXI@Z 100121f0 f i chams.obj
 0001:00011210       ?_Xran@?$_String_val@U?$_Simple_types@D@std@@@std@@SAXXZ 10012210 f i chams.obj
 0001:00011220       ??$_Integral_to_string@DH@std@@YA?AV?$basic_string@DU?$char_traits@D@std@@V?$allocator@D@2@@0@H@Z 10012220 f i chams.obj
 0001:000112b0       ??$end@D$0BF@@std@@YAPADAAY0BF@D@Z 100122b0 f i chams.obj
 0001:000112c0       ??$?HDU?$char_traits@D@std@@V?$allocator@D@1@@std@@YA?AV?$basic_string@DU?$char_traits@D@std@@V?$allocator@D@2@@0@QBD$$QAV10@@Z 100122c0 f i chams.obj
 0001:00011300       ??$?HDU?$char_traits@D@std@@V?$allocator@D@1@@std@@YA?AV?$basic_string@DU?$char_traits@D@std@@V?$allocator@D@2@@0@$$QAV10@QBD@Z 10012300 f i chams.obj
 0001:00011340       ??$?HDU?$char_traits@D@std@@V?$allocator@D@1@@std@@YA?AV?$basic_string@DU?$char_traits@D@std@@V?$allocator@D@2@@0@$$QAV10@0@Z 10012340 f i chams.obj
 0001:000113f0       ?capacity@?$basic_string@DU?$char_traits@D@std@@V?$allocator@D@2@@std@@QBEIXZ 100123f0 f i chams.obj
 0001:00011410       ?insert@?$basic_string@DU?$char_traits@D@std@@V?$allocator@D@2@@std@@QAEAAV12@IQBD@Z 10012410 f i chams.obj
 0001:00011450       ?insert@?$basic_string@DU?$char_traits@D@std@@V?$allocator@D@2@@std@@QAEAAV12@IABV12@@Z 10012450 f i chams.obj
 0001:000114a0       ?insert@?$basic_string@DU?$char_traits@D@std@@V?$allocator@D@2@@std@@QAEAAV12@IQBDI@Z 100124a0 f i chams.obj
 0001:000115c0       ??R<lambda_4d79bb85f269e6e8002a4599002d832c>@@QBEXQADQBDII1I@Z 100125c0 f i chams.obj
 0001:00011620       ??$_UIntegral_to_buff@DI@std@@YAPADPADI@Z 10012620 f i chams.obj
 0001:000116e0       ??$?0PADX@?$basic_string@DU?$char_traits@D@std@@V?$allocator@D@2@@std@@QAE@PAD0ABV?$allocator@D@1@@Z 100126e0 f i chams.obj
 0001:00011790       ??$_Reallocate_grow_by@V<lambda_4d79bb85f269e6e8002a4599002d832c>@@IPBDI@?$basic_string@DU?$char_traits@D@std@@V?$allocator@D@2@@std@@QAEAAV01@IV<lambda_4d79bb85f269e6e8002a4599002d832c>@@IPBDI@Z 10012790 f i chams.obj
 0001:000118d0       ?_Construct@?$basic_string@DU?$char_traits@D@std@@V?$allocator@D@2@@std@@QAEXQAD0Urandom_access_iterator_tag@2@@Z 100128d0 f i chams.obj
 0001:00011910       ??0exception@std@@QAE@QBD@Z 10012910 f i Hooks.obj
 0001:00011960       ??0exception@std@@QAE@ABV01@@Z 10012960 f i Hooks.obj
 0001:000119a0       ??1exception@std@@UAE@XZ   100129a0 f i Hooks.obj
 0001:000119d0       ?what@exception@std@@UBEPBDXZ 100129d0 f i Hooks.obj
 0001:00011a00       ??_Gexception@std@@UAEPAXI@Z 10012a00 f i Hooks.obj
 0001:00011a00       ??_Eexception@std@@UAEPAXI@Z 10012a00 f i * CIL library *:* CIL module *
 0001:00011a30       __vsnprintf_l              10012a30 f i Hooks.obj
 0001:00011a90       __vsnprintf                10012a90 f i Hooks.obj
 0001:00011ab0       _sprintf_s                 10012ab0 f i Hooks.obj
 0001:00011af0       ?strstr@@YAPADQADQBD@Z     10012af0 f i Hooks.obj
 0001:00011b10       ?find@?$char_traits@D@std@@SAPBDQBDIABD@Z 10012b10 f i Hooks.obj
 0001:00011b40       ??0runtime_error@std@@QAE@PBD@Z 10012b40 f i Hooks.obj
 0001:00011b70       ??_Gruntime_error@std@@UAEPAXI@Z 10012b70 f i Hooks.obj
 0001:00011b70       ??_Eruntime_error@std@@UAEPAXI@Z 10012b70 f i * CIL library *:* CIL module *
 0001:00011ba0       ??1runtime_error@std@@UAE@XZ 10012ba0 f i Hooks.obj
 0001:00011c00       ?now@system_clock@chrono@std@@SA?AV?$time_point@Usystem_clock@chrono@std@@V?$duration@_JU?$ratio@$00$0JIJGIA@@std@@@23@@23@XZ 10012c00 f i Hooks.obj
 0001:00011c50       ??__Kms@chrono_literals@literals@std@@YA?AV?$duration@_JU?$ratio@$00$0DOI@@std@@@chrono@3@_K@Z 10012c50 f i Hooks.obj
 0001:00011c70       ?sleep_until@this_thread@std@@YAXPBUxtime@@@Z 10012c70 f i Hooks.obj
 0001:00011c90       ??0runtime_error@std@@QAE@ABV01@@Z 10012c90 f i Hooks.obj
 0001:00011cc0       ??Amatrix3x4_t@@QAEPAMH@Z  10012cc0 f i Hooks.obj
 0001:00011cc0       ??Amatrix3x4_t@@QBEPBMH@Z  10012cc0 f i Hooks.obj
 0001:00011ce0       ??0CBaseHandle@@QAE@K@Z    10012ce0 f i Hooks.obj
 0001:00011d00       ?IsUnused@CGlowObjectDefinition@@QBE_NXZ 10012d00 f i Hooks.obj
 0001:00011d30       ?GetSize@CGlowObjectManager@@QAEHXZ 10012d30 f i Hooks.obj
 0001:00011d30       ?GetName@RecvTable@@QAEPBDXZ 10012d30 f i NetvarManager.obj
 0001:00011d50       ?ClientCmd_Unrestricted@IVEngineClient@@QAEXPBD@Z 10012d50 f i Hooks.obj
 0001:00011d80       ?GetMatrix@IVEngineClient@@QAEABVmatrix3x4_t2@1@XZ 10012d80 f i Hooks.obj
 0001:00011db0       ?GetNetChannel@IVEngineClient@@QAEPAVNetChannel@@XZ 10012db0 f i Hooks.obj
 0001:00011de0       ??1?$unordered_map@V?$basic_string@DU?$char_traits@D@std@@V?$allocator@D@2@@std@@V?$shared_ptr@UNode@NetvarTree@@@2@U?$hash@V?$basic_string@DU?$char_traits@D@std@@V?$allocator@D@2@@std@@@2@U?$equal_to@V?$basic_string@DU?$char_traits@D@std@@V?$allocator@D@2@@std@@@2@V?$allocator@U?$pair@$$CBV?$basic_string@DU?$char_traits@D@std@@V?$allocator@D@2@@std@@V?$shared_ptr@UNode@NetvarTree@@@2@@std@@@2@@std@@QAE@XZ 10012de0 f i Hooks.obj
 0001:00011e00       ??1?$_Hash@V?$_Umap_traits@V?$basic_string@DU?$char_traits@D@std@@V?$allocator@D@2@@std@@V?$shared_ptr@UNode@NetvarTree@@@2@V?$_Uhash_compare@V?$basic_string@DU?$char_traits@D@std@@V?$allocator@D@2@@std@@U?$hash@V?$basic_string@DU?$char_traits@D@std@@V?$allocator@D@2@@std@@@2@U?$equal_to@V?$basic_string@DU?$char_traits@D@std@@V?$allocator@D@2@@std@@@2@@2@V?$allocator@U?$pair@$$CBV?$basic_string@DU?$char_traits@D@std@@V?$allocator@D@2@@std@@V?$shared_ptr@UNode@NetvarTree@@@2@@std@@@2@$0A@@std@@@std@@QAE@XZ 10012e00 f i Hooks.obj
 0001:00011e30       ?m_hViewModel@C_BaseEntity@@QAEHXZ 10012e30 f i Hooks.obj
 0001:00011ee0       ?defusing@C_BaseEntity@@QAE_NXZ 10012ee0 f i Hooks.obj
 0001:00011f90       ?has_defuser@C_BaseEntity@@QAE_NXZ 10012f90 f i Hooks.obj
 0001:00012040       ?IsScoped@C_BaseEntity@@QAE_NXZ 10013040 f i Hooks.obj
 0001:000120f0       ?GetViewPunchAngle@C_BaseEntity@@QAE?AVVector@@XZ 100130f0 f i Hooks.obj
 0001:00012120       ?c4_defuse_count_down@ccsbomb@@QAEMXZ 10013120 f i Hooks.obj
 0001:000121d0       ?c4_blow_time@ccsbomb@@QAEMXZ 100131d0 f i Hooks.obj
 0001:00012280       ?bomb_defused@ccsbomb@@QAEMXZ 10013280 f i Hooks.obj
 0001:00012330       ?GetName@IPanel@@QAEPBDI@Z 10013330 f i Hooks.obj
 0001:00012360       ??0Vertex_t@@QAE@XZ        10013360 f i Hooks.obj
 0001:00012390       ?UnLockCursor@ISurface@@QAEXXZ 10013390 f i Hooks.obj
 0001:000123c0       ?SetTextColor2@ISurface@@QAEXHHHH@Z 100133c0 f i Hooks.obj
 0001:00012400       ?DrawTexturedPolygon@ISurface@@QAEXHPAUVertex_t@@_N@Z 10013400 f i Hooks.obj
 0001:00012440       ?FontCreate@ISurface@@QAEKXZ 10013440 f i Hooks.obj
 0001:00012470       ?SetFontGlyphSet@ISurface@@QAEXKPBDHHHHH@Z 10013470 f i Hooks.obj
 0001:000124c0       ?RoundedFilledRect@ISurface@@QAEXHHHHMUColor@@@Z 100134c0 f i Hooks.obj
 0001:000126f0       ?draw_render_text@ISurface@@QAEXPB_WH@Z 100136f0 f i Hooks.obj
 0001:00012730       ?draw_text@ISurface@@QAEXHHKPBD_NUColor@@@Z 10013730 f i Hooks.obj
 0001:00012850       ?world_to_screen@ISurface@@QAE_NVVector@@AAV2@@Z 10013850 f i Hooks.obj
 0001:00012a90       ??1IGameEventListener3z@@UAE@XZ 10013a90 f i Hooks.obj
 0001:00012ab0       ??_EIGameEventListener3z@@UAEPAXI@Z 10013ab0 f i * CIL library *:* CIL module *
 0001:00012ab0       ??_GIGameEventListener3z@@UAEPAXI@Z 10013ab0 f i Hooks.obj
 0001:00012ae0       ??0DamageEventListener@@QAE@P6AXPAVI_Game_Event@@@Z@Z 10013ae0 f i Hooks.obj
 0001:00012b10       ?HandleGameEvent@DamageEventListener@@UAEXPAVI_Game_Event@@@Z 10013b10 f i Hooks.obj
 0001:00012b40       ?GetEventDebugID@IGameEventListener@@UAEHXZ 10013b40 f i Hooks.obj
 0001:00012b40       ?IndicateEventHandling@DamageEventListener@@UAEHXZ 10013b40 f i Hooks.obj
 0001:00012b50       ??_EDamageEventListener@@UAEPAXI@Z 10013b50 f i * CIL library *:* CIL module *
 0001:00012b50       ??_GDamageEventListener@@UAEPAXI@Z 10013b50 f i Hooks.obj
 0001:00012b80       ??1DamageEventListener@@UAE@XZ 10013b80 f i Hooks.obj
 0001:00012ba0       ??0IGameEventListener3z@@QAE@XZ 10013ba0 f i Hooks.obj
 0001:00012bc0       ??1IGameEventListener@@UAE@XZ 10013bc0 f i Hooks.obj
 0001:00012be0       ??_GIGameEventListener@@UAEPAXI@Z 10013be0 f i Hooks.obj
 0001:00012be0       ??_EIGameEventListener@@UAEPAXI@Z 10013be0 f i * CIL library *:* CIL module *
 0001:00012c10       ?ForcedMaterialOverride@CModelRender@@QAEXPAVIMaterial@@W4OverrideType_t@@@Z 10013c10 f i Hooks.obj
 0001:00012c40       ?GetModelName@IVModelInfo@@QAEPBDPBUmodel_t@@@Z 10013c40 f i Hooks.obj
 0001:00012c70       ?FindMaterial@IMaterialSystem@@QAEPAVIMaterial@@PBD0_N0@Z 10013c70 f i Hooks.obj
 0001:00012cb0       ?FirstMaterial@IMaterialSystem@@QAEGXZ 10013cb0 f i Hooks.obj
 0001:00012ce0       ?NextMaterial@IMaterialSystem@@QAEGG@Z 10013ce0 f i Hooks.obj
 0001:00012d10       ?InvalidMaterial@IMaterialSystem@@QAEGXZ 10013d10 f i Hooks.obj
 0001:00012d40       ?GetMaterial@IMaterialSystem@@QAEPAVIMaterial@@G@Z 10013d40 f i Hooks.obj
 0001:00012d70       ?Init@Event@@QAEXXZ        10013d70 f i Hooks.obj
 0001:00012da0       ??0VMTHook@@QAE@PAX@Z      10013da0 f i Hooks.obj
 0001:00012eb0       ??1VMTHook@@QAE@XZ         10013eb0 f i Hooks.obj
 0001:00012ee0       ?Hook@VMTHook@@QAEJIPAX@Z  10013ee0 f i Hooks.obj
 0001:00012f20       ?Unhook@VMTHook@@QAEJI@Z   10013f20 f i Hooks.obj
 0001:00012f70       ??0ProtectGuard@@QAE@PAXII@Z 10013f70 f i Hooks.obj
 0001:00012fd0       ??1ProtectGuard@@QAE@XZ    10013fd0 f i Hooks.obj
 0001:00013000       ??0trace_info@@QAE@VVector@@0H@Z 10014000 f i Hooks.obj
 0001:00013050       ??1ShadowVTManager@@QAE@XZ 10014050 f i Hooks.obj
 0001:000130a0       ?RestoreTable@ShadowVTManager@@QAEXXZ 100140a0 f i Hooks.obj
 0001:00013130       ?SetValue@ConVar@@QAEXM@Z  10014130 f i Hooks.obj
 0001:00013170       ?SetValue@ConVar@@QAEXH@Z  10014170 f i Hooks.obj
 0001:000131a0       ?OnCreateMove@Misc@@QAEXXZ 100141a0 f i Hooks.obj
 0001:00013210       ?slow_walk@Misc@@QAEXXZ    10014210 f i Hooks.obj
 0001:00013300       ?fakeduck@Misc@@QAEXXZ     10014300 f i Hooks.obj
 0001:000133c0       ?start_move_fix@Misc@@QAEXXZ 100143c0 f i Hooks.obj
 0001:00013400       ?end_move_fix@Misc@@QAEXXZ 10014400 f i Hooks.obj
 0001:00013600       ?ThirdPerson@Misc@@QAEXW4ClientFrameStage_t@@@Z 10014600 f i Hooks.obj
 0001:000137d0       ?DoBhop@Misc@@ABEXXZ       100147d0 f i Hooks.obj
 0001:000138b0       ?normalize_yaw@Misc@@CAMM@Z 100148b0 f i Hooks.obj
 0001:00013900       ?DoAutostrafe@Misc@@ABEXXZ 10014900 f i Hooks.obj
 0001:00013ca0       ?DoFakeLag@Misc@@AAEXXZ    10014ca0 f i Hooks.obj
 0001:00013d90       ??0Misc@@QAE@XZ            10014d90 f i Hooks.obj
 0001:00013db0       ??0Hooks@@QAE@XZ           10014db0 f i Hooks.obj
 0001:00013e60       ??1Hooks@@QAE@XZ           10014e60 f i Hooks.obj
 0001:00013ee0       ??0Event@@QAE@XZ           10014ee0 f i Hooks.obj
 0001:00013f10       ??1Event@@UAE@XZ           10014f10 f i Hooks.obj
 0001:00013f30       ??_GEvent@@UAEPAXI@Z       10014f30 f i Hooks.obj
 0001:00013f30       ??_EEvent@@UAEPAXI@Z       10014f30 f i * CIL library *:* CIL module *
 0001:00013f60       ??0IGameEventListener@@QAE@XZ 10014f60 f i Hooks.obj
 0001:00013f80       ??0store_matrix@@QAE@XZ    10014f80 f i Hooks.obj
 0001:00013fc0       ?hitgroup_name@@YA?AV?$basic_string@DU?$char_traits@D@std@@V?$allocator@D@2@@std@@H@Z 10014fc0 f   Hooks.obj
 0001:00014110       ?SayInChat@@YAXPBD@Z       10015110 f   Hooks.obj
 0001:00014150       ?GetInfo@@YA?AUPlayerInfo_s@@H@Z 10015150 f   Hooks.obj
 0001:000141a0       ?killsays@@YAXPAVI_Game_Event@@@Z 100151a0 f   Hooks.obj
 0001:000142c0       ?clean_weapon@@YA?AV?$basic_string@DU?$char_traits@D@std@@V?$allocator@D@2@@std@@V12@@Z 100152c0 f   Hooks.obj
 0001:00014400       ?purchase@@YAXPAVI_Game_Event@@@Z 10015400 f   Hooks.obj
 0001:000146b0       ?health@@YAXPAVIGameEvent@@@Z 100156b0 f   Hooks.obj
 0001:00014bd0       ?bullet_impact@@YAXPAVI_Game_Event@@@Z 10015bd0 f   Hooks.obj
 0001:00014e00       ?Init@Hooks@@SAXXZ         10015e00 f   Hooks.obj
 0001:00015570       ?Restore@Hooks@@SAXXZ      10016570 f   Hooks.obj
 0001:000156c0       ?WaitOnModuleHandle@@YAKV?$basic_string@DU?$char_traits@D@std@@V?$allocator@D@2@@std@@@Z 100166c0 f   Hooks.obj
 0001:00015710       ?bCompare@@YA_NPBE0PBD@Z   10016710 f   Hooks.obj
 0001:00015780       ?pattern_scan@@YAKV?$basic_string@DU?$char_traits@D@std@@V?$allocator@D@2@@std@@PAEPBD@Z 10016780 f   Hooks.obj
 0001:00015870       ?clan_tag@@YAXPBD@Z        10016870 f   Hooks.obj
 0001:00015950       ?animated_tag@@YAXXZ       10016950 f   Hooks.obj
 0001:00015a70       ?BulletImpacts@@YAXXZ      10016a70 f   Hooks.obj
 0001:00015bc0       ?CreateMove@Hooks@@SI_NPAVIClientMode@@PAXMPAVCUserCmd@@@Z 10016bc0 f   Hooks.obj
 0001:00016450       ?angleMatrix@@YAXVVector@@AAVmatrix3x4_t@@@Z 10017450 f   Hooks.obj
 0001:00016780       ?matrixCopy@@YAXABVmatrix3x4_t@@AAV1@@Z 10017780 f   Hooks.obj
 0001:000167f0       ?matrixMultiply@@YAXAAVmatrix3x4_t@@ABV1@@Z 100177f0 f   Hooks.obj
 0001:000172e0       ?DotProduct@@YAMPBM0@Z     100182e0 f i Hooks.obj
 0001:00017360       ?vectorRotate@@YAXPBMABVmatrix3x4_t@@PAM@Z 10018360 f   Hooks.obj
 0001:000173e0       ?vectorRotate@@YAXABVVector@@ABVmatrix3x4_t@@AAV1@@Z 100183e0 f   Hooks.obj
 0001:00017400       ?vectorRotate@@YAXABVVector@@0AAV1@@Z 10018400 f   Hooks.obj
 0001:00017450       ?DrawModelExecute@Hooks@@SIXPAX0PAVIMatRenderContext@@ABUDrawModelState_t@@ABUModelRenderInfo_t@@PAVmatrix3x4_t@@@Z 10018450 f   Hooks.obj
 0001:00017d10       ?SceneEnd@Hooks@@SIXPAX0@Z 10018d10 f   Hooks.obj
 0001:00018470       ?FrameStageNotify@Hooks@@SGXW4ClientFrameStage_t@@@Z 10019470 f   Hooks.obj
 0001:00018530       ?PaintTraverse@Hooks@@SIXPAXHI_N1@Z 10019530 f   Hooks.obj
 0001:0001b110       ?FireGameEvent@Event@@UAEXPAVIGameEvent@@@Z 1001c110 f   Hooks.obj
 0001:0001b290       ?OverrideView@Hooks@@SIXPAX0PAVCViewSetup@@@Z 1001c290 f   Hooks.obj
 0001:0001b990       ?LockCursor@Hooks@@SIXPAVISurface@@PAX@Z 1001c990 f   Hooks.obj
 0001:0001ba60       ?WndProc@Hooks@@SGJPAUHWND__@@IIJ@Z 1001ca60 f   Hooks.obj
 0001:0001bb00       ??0?$initializer_list@V?$basic_string@DU?$char_traits@D@std@@V?$allocator@D@2@@std@@@std@@QAE@PBV?$basic_string@DU?$char_traits@D@std@@V?$allocator@D@2@@1@0@Z 1001cb00 f i Menu.obj
 0001:0001bb00       ??0<lambda_498009bf6358dc471fbe163595f67980>@@QAE@ABVVector@@AAVVector2D@@@Z 1001cb00 f i ESP.obj
 0001:0001bb00       ??0?$initializer_list@PBD@std@@QAE@PBQBD0@Z 1001cb00 f i Hooks.obj
 0001:0001bb30       ??0?$vector@PBDV?$allocator@PBD@std@@@std@@QAE@V?$initializer_list@PBD@1@ABV?$allocator@PBD@1@@Z 1001cb30 f i Hooks.obj
 0001:0001bb90       ??H?$_Vector_iterator@V?$_Vector_val@U?$_Simple_types@Vtrace_info@@@std@@@std@@@std@@QBE?AV01@H@Z 1001cb90 f i Hooks.obj
 0001:0001bbc0       ?get@?$singleton@Vchams@@@@SAAAVchams@@XZ 1001cbc0 f i Hooks.obj
 0001:0001bc30       ?SetSize@?$CUtlVector@P6AXPAVConVar@@PBDM@ZV?$CUtlMemory@P6AXPAVConVar@@PBDM@ZH@@@@QAEXH@Z 1001cc30 f i Hooks.obj
 0001:0001bc50       ?at@?$vector@Vtrace_info@@V?$allocator@Vtrace_info@@@std@@@std@@QAEAAVtrace_info@@I@Z 1001cc50 f i Hooks.obj
 0001:0001bc80       ?size@?$vector@Vtrace_info@@V?$allocator@Vtrace_info@@@std@@@std@@QBEIXZ 1001cc80 f i Hooks.obj
 0001:0001bcb0       ?erase@?$vector@Vtrace_info@@V?$allocator@Vtrace_info@@@std@@@std@@QAE?AV?$_Vector_iterator@V?$_Vector_val@U?$_Simple_types@Vtrace_info@@@std@@@std@@@2@V?$_Vector_const_iterator@V?$_Vector_val@U?$_Simple_types@Vtrace_info@@@std@@@std@@@2@@Z 1001ccb0 f i Hooks.obj
 0001:0001bd50       ?push_back@?$vector@Vtrace_info@@V?$allocator@Vtrace_info@@@std@@@std@@QAEX$$QAVtrace_info@@@Z 1001cd50 f i Hooks.obj
 0001:0001bd80       ??$emplace_back@Vtrace_info@@@?$vector@Vtrace_info@@V?$allocator@Vtrace_info@@@std@@@std@@QAEAAVtrace_info@@$$QAV2@@Z 1001cd80 f i Hooks.obj
 0001:0001bdf0       ??$_Emplace_back_with_unused_capacity@Vtrace_info@@@?$vector@Vtrace_info@@V?$allocator@Vtrace_info@@@std@@@std@@AAEAAVtrace_info@@$$QAV2@@Z 1001cdf0 f i Hooks.obj
 0001:0001bea0       ??1?$vector@Vtrace_info@@V?$allocator@Vtrace_info@@@std@@@std@@QAE@XZ 1001cea0 f i Hooks.obj
 0001:0001bee0       ??A?$unique_ptr@$$BY0A@IU?$default_delete@$$BY0A@I@std@@@std@@QBEAAII@Z 1001cee0 f i Hooks.obj
 0001:0001bf00       ??1?$unique_ptr@$$BY0A@IU?$default_delete@$$BY0A@I@std@@@std@@QAE@XZ 1001cf00 f i Hooks.obj
 0001:0001bf40       ??4?$unique_ptr@$$BY0A@IU?$default_delete@$$BY0A@I@std@@@std@@QAEAAV01@$$QAV01@@Z 1001cf40 f i Hooks.obj
 0001:0001bf90       ??1?$unique_ptr@VShadowVTManager@@U?$default_delete@VShadowVTManager@@@std@@@std@@QAE@XZ 1001cf90 f i Hooks.obj
 0001:0001bfd0       ??1?$unique_ptr@VVMTHook@@U?$default_delete@VVMTHook@@@std@@@std@@QAE@XZ 1001cfd0 f i Hooks.obj
 0001:0001c010       ??4?$unique_ptr@VVMTHook@@U?$default_delete@VVMTHook@@@std@@@std@@QAEAAV01@$$QAV01@@Z 1001d010 f i Hooks.obj
 0001:0001c060       ?reset@?$unique_ptr@VNetvarTree@@U?$default_delete@VNetvarTree@@@std@@@std@@QAEXPAVNetvarTree@@@Z 1001d060 f i Hooks.obj
 0001:0001c0b0       ??1?$unique_ptr@VNetvarTree@@U?$default_delete@VNetvarTree@@@std@@@std@@QAE@XZ 1001d0b0 f i Hooks.obj
 0001:0001c0f0       ??4?$unique_ptr@VNetvarTree@@U?$default_delete@VNetvarTree@@@std@@@std@@QAEAAV01@$$QAV01@@Z 1001d0f0 f i Hooks.obj
 0001:0001c140       ??1?$list@U?$pair@$$CBV?$basic_string@DU?$char_traits@D@std@@V?$allocator@D@2@@std@@V?$shared_ptr@UNode@NetvarTree@@@2@@std@@V?$allocator@U?$pair@$$CBV?$basic_string@DU?$char_traits@D@std@@V?$allocator@D@2@@std@@V?$shared_ptr@UNode@NetvarTree@@@2@@std@@@2@@std@@QAE@XZ 1001d140 f i Hooks.obj
 0001:0001c180       ?time_since_epoch@?$time_point@Usystem_clock@chrono@std@@V?$duration@_JU?$ratio@$00$0JIJGIA@@std@@@23@@chrono@std@@QBE?AV?$duration@_JU?$ratio@$00$0JIJGIA@@std@@@23@XZ 1001d180 f i Hooks.obj
 0001:0001c1a0       ??0?$time_point@Usystem_clock@chrono@std@@V?$duration@_JU?$ratio@$00$0JIJGIA@@std@@@23@@chrono@std@@QAE@ABV?$duration@_JU?$ratio@$00$0JIJGIA@@std@@@12@@Z 1001d1a0 f i Hooks.obj
 0001:0001c1c0       ?count@?$duration@_JU?$ratio@$00$00@std@@@chrono@std@@QBE_JXZ 1001d1c0 f i Hooks.obj
 0001:0001c1c0       ?count@?$duration@_JU?$ratio@$00$0JIJGIA@@std@@@chrono@std@@QBE_JXZ 1001d1c0 f i Hooks.obj
 0001:0001c1c0       ?count@?$duration@_JU?$ratio@$00$0DOI@@std@@@chrono@std@@QBE_JXZ 1001d1c0 f i Hooks.obj
 0001:0001c1c0       ?count@?$duration@_JU?$ratio@$00$0DLJKMKAA@@std@@@chrono@std@@QBE_JXZ 1001d1c0 f i Hooks.obj
 0001:0001c1e0       ??H?$_String_iterator@V?$_String_val@U?$_Simple_types@D@std@@@std@@@std@@QBE?AV01@H@Z 1001d1e0 f i Hooks.obj
 0001:0001c210       ?find@?$basic_string@DU?$char_traits@D@std@@V?$allocator@D@2@@std@@QBEIQBDI@Z 1001d210 f i Hooks.obj
 0001:0001c290       ??A?$basic_string@DU?$char_traits@D@std@@V?$allocator@D@2@@std@@QAEAADI@Z 1001d290 f i Hooks.obj
 0001:0001c2c0       ?at@?$basic_string@DU?$char_traits@D@std@@V?$allocator@D@2@@std@@QAEAADI@Z 1001d2c0 f i Hooks.obj
 0001:0001c300       ?begin@?$basic_string@DU?$char_traits@D@std@@V?$allocator@D@2@@std@@QAE?AV?$_String_iterator@V?$_String_val@U?$_Simple_types@D@std@@@std@@@2@XZ 1001d300 f i Hooks.obj
 0001:0001c370       ?erase@?$basic_string@DU?$char_traits@D@std@@V?$allocator@D@2@@std@@QAE?AV?$_String_iterator@V?$_String_val@U?$_Simple_types@D@std@@@std@@@2@V?$_String_const_iterator@V?$_String_val@U?$_Simple_types@D@std@@@std@@@2@0@Z 1001d370 f i Hooks.obj
 0001:0001c3f0       ?erase@?$basic_string@DU?$char_traits@D@std@@V?$allocator@D@2@@std@@QAE?AV?$_String_iterator@V?$_String_val@U?$_Simple_types@D@std@@@std@@@2@V?$_String_const_iterator@V?$_String_val@U?$_Simple_types@D@std@@@std@@@2@@Z 1001d3f0 f i Hooks.obj
 0001:0001c450       ?erase@?$basic_string@DU?$char_traits@D@std@@V?$allocator@D@2@@std@@QAEAAV12@II@Z 1001d450 f i Hooks.obj
 0001:0001c4e0       ??Y?$basic_string@DU?$char_traits@D@std@@V?$allocator@D@2@@std@@QAEAAV01@D@Z 1001d4e0 f i Hooks.obj
 0001:0001c500       ??1?$_List_buy@U?$pair@$$CBV?$basic_string@DU?$char_traits@D@std@@V?$allocator@D@2@@std@@V?$shared_ptr@UNode@NetvarTree@@@2@@std@@V?$allocator@U?$pair@$$CBV?$basic_string@DU?$char_traits@D@std@@V?$allocator@D@2@@std@@V?$shared_ptr@UNode@NetvarTree@@@2@@std@@@2@@std@@QAE@XZ 1001d500 f i Hooks.obj
 0001:0001c520       ?zero@?$duration_values@_J@chrono@std@@SA_JXZ 1001d520 f i Hooks.obj
 0001:0001c530       ?GetNumProps@RecvTable@@QAEHXZ 1001d530 f i NetvarManager.obj
 0001:0001c530       ?end@?$initializer_list@PBD@std@@QBEPBQBDXZ 1001d530 f i Hooks.obj
 0001:0001c530       ?GetType@RecvProp@@QBE?AW4SendPropType@@XZ 1001d530 f i NetvarManager.obj
 0001:0001c530       ?end@?$initializer_list@V?$basic_string@DU?$char_traits@D@std@@V?$allocator@D@2@@std@@@std@@QBEPBV?$basic_string@DU?$char_traits@D@std@@V?$allocator@D@2@@2@XZ 1001d530 f i Menu.obj
 0001:0001c550       ??Y?$_Vector_iterator@V?$_Vector_val@U?$_Simple_types@Vtrace_info@@@std@@@std@@@std@@QAEAAV01@H@Z 1001d550 f i Hooks.obj
 0001:0001c570       ?_Xrange@?$vector@Vtrace_info@@V?$allocator@Vtrace_info@@@std@@@std@@CAXXZ 1001d570 f i Hooks.obj
 0001:0001c570       ?_Xrange@?$vector@V?$basic_string@DU?$char_traits@D@std@@V?$allocator@D@2@@std@@V?$allocator@V?$basic_string@DU?$char_traits@D@std@@V?$allocator@D@2@@std@@@2@@std@@CAXXZ 1001d570 f i Menu.obj
 0001:0001c580       ?_Tidy@?$vector@Vtrace_info@@V?$allocator@Vtrace_info@@@std@@@std@@AAEXXZ 1001d580 f i Hooks.obj
 0001:0001c630       ?_Delete@?$unique_ptr@$$BY0A@IU?$default_delete@$$BY0A@I@std@@@std@@AAEXXZ 1001d630 f i Hooks.obj
 0001:0001c670       ?release@?$unique_ptr@$$BY0A@IU?$default_delete@$$BY0A@I@std@@@std@@QAEPAIXZ 1001d670 f i Hooks.obj
 0001:0001c670       ?release@?$unique_ptr@VNetvarTree@@U?$default_delete@VNetvarTree@@@std@@@std@@QAEPAVNetvarTree@@XZ 1001d670 f i Hooks.obj
 0001:0001c670       ?release@?$unique_ptr@VVMTHook@@U?$default_delete@VVMTHook@@@std@@@std@@QAEPAVVMTHook@@XZ 1001d670 f i Hooks.obj
 0001:0001c6a0       ??R?$default_delete@VShadowVTManager@@@std@@QBEXPAVShadowVTManager@@@Z 1001d6a0 f i Hooks.obj
 0001:0001c6e0       ?reset@?$unique_ptr@VVMTHook@@U?$default_delete@VVMTHook@@@std@@@std@@QAEXPAVVMTHook@@@Z 1001d6e0 f i Hooks.obj
 0001:0001c730       ??R?$default_delete@VVMTHook@@@std@@QBEXPAVVMTHook@@@Z 1001d730 f i Hooks.obj
 0001:0001c770       ??R?$default_delete@VNetvarTree@@@std@@QBEXPAVNetvarTree@@@Z 1001d770 f i Hooks.obj
 0001:0001c7b0       ??1?$_List_alloc@U?$_List_base_types@U?$pair@$$CBV?$basic_string@DU?$char_traits@D@std@@V?$allocator@D@2@@std@@V?$shared_ptr@UNode@NetvarTree@@@2@@std@@V?$allocator@U?$pair@$$CBV?$basic_string@DU?$char_traits@D@std@@V?$allocator@D@2@@std@@V?$shared_ptr@UNode@NetvarTree@@@2@@std@@@2@@std@@@std@@QAE@XZ 1001d7b0 f i Hooks.obj
 0001:0001c7f0       ?_Tidy@?$list@U?$pair@$$CBV?$basic_string@DU?$char_traits@D@std@@V?$allocator@D@2@@std@@V?$shared_ptr@UNode@NetvarTree@@@2@@std@@V?$allocator@U?$pair@$$CBV?$basic_string@DU?$char_traits@D@std@@V?$allocator@D@2@@std@@V?$shared_ptr@UNode@NetvarTree@@@2@@std@@@2@@std@@QAEXXZ 1001d7f0 f i Hooks.obj
 0001:0001c810       ??G?$_String_const_iterator@V?$_String_val@U?$_Simple_types@D@std@@@std@@@std@@QBEHABV01@@Z 1001d810 f i Hooks.obj
 0001:0001c840       ??Y?$_String_iterator@V?$_String_val@U?$_Simple_types@D@std@@@std@@@std@@QAEAAV01@H@Z 1001d840 f i Hooks.obj
 0001:0001c860       ?_Clamp_suffix_size@?$_String_val@U?$_Simple_types@D@std@@@std@@QBEIII@Z 1001d860 f i Hooks.obj
 0001:0001c890       ?_Check_offset_exclusive@?$_String_val@U?$_Simple_types@D@std@@@std@@QBEXI@Z 1001d890 f i Hooks.obj
 0001:0001c8b0       ?push_back@?$basic_string@DU?$char_traits@D@std@@V?$allocator@D@2@@std@@QAEXD@Z 1001d8b0 f i Hooks.obj
 0001:0001c940       ??R<lambda_15711c68e099a15a58f4d77303cb286d>@@QBEXQADQBDID@Z 1001d940 f i Hooks.obj
 0001:0001c9a0       ??_GShadowVTManager@@QAEPAXI@Z 1001d9a0 f i Hooks.obj
 0001:0001c9d0       ??_GVMTHook@@QAEPAXI@Z     1001d9d0 f i Hooks.obj
 0001:0001ca00       ??_GNetvarTree@@QAEPAXI@Z  1001da00 f i Hooks.obj
 0001:0001ca30       ??1Node@NetvarTree@@QAE@XZ 1001da30 f i NetvarManager.obj
 0001:0001ca30       ??1NetvarTree@@QAE@XZ      1001da30 f i Hooks.obj
 0001:0001ca50       ??Y?$_Vector_const_iterator@V?$_Vector_val@U?$_Simple_types@Vtrace_info@@@std@@@std@@@std@@QAEAAV01@H@Z 1001da50 f i Hooks.obj
 0001:0001ca80       ?capacity@?$vector@Vtrace_info@@V?$allocator@Vtrace_info@@@std@@@std@@QBEIXZ 1001da80 f i Hooks.obj
 0001:0001cab0       ?_Freeheadnode@?$_List_alloc@U?$_List_base_types@U?$pair@$$CBV?$basic_string@DU?$char_traits@D@std@@V?$allocator@D@2@@std@@V?$shared_ptr@UNode@NetvarTree@@@2@@std@@V?$allocator@U?$pair@$$CBV?$basic_string@DU?$char_traits@D@std@@V?$allocator@D@2@@std@@V?$shared_ptr@UNode@NetvarTree@@@2@@std@@@2@@std@@@std@@QAEXPAU?$_List_node@U?$pair@$$CBV?$basic_string@DU?$char_traits@D@std@@V?$allocator@D@2@@std@@V?$shared_ptr@UNode@NetvarTree@@@2@@std@@PAX@2@@Z 1001dab0 f i Hooks.obj
 0001:0001cae0       ?clear@?$list@U?$pair@$$CBV?$basic_string@DU?$char_traits@D@std@@V?$allocator@D@2@@std@@V?$shared_ptr@UNode@NetvarTree@@@2@@std@@V?$allocator@U?$pair@$$CBV?$basic_string@DU?$char_traits@D@std@@V?$allocator@D@2@@std@@V?$shared_ptr@UNode@NetvarTree@@@2@@std@@@2@@std@@QAEXXZ 1001dae0 f i Hooks.obj
 0001:0001cb90       ??Y?$_String_const_iterator@V?$_String_val@U?$_Simple_types@D@std@@@std@@@std@@QAEAAV01@H@Z 1001db90 f i Hooks.obj
 0001:0001cbb0       ??$?0_KX@?$duration@_JU?$ratio@$00$0DOI@@std@@@chrono@std@@QAE@AB_K@Z 1001dbb0 f i Hooks.obj
 0001:0001cbb0       ??$?0_JX@?$duration@_JU?$ratio@$00$0DOI@@std@@@chrono@std@@QAE@AB_J@Z 1001dbb0 f i Hooks.obj
 0001:0001cbb0       ??$?0_JX@?$duration@_JU?$ratio@$00$0DLJKMKAA@@std@@@chrono@std@@QAE@AB_J@Z 1001dbb0 f i Hooks.obj
 0001:0001cbb0       ??$?0_JX@?$duration@_JU?$ratio@$00$00@std@@@chrono@std@@QAE@AB_J@Z 1001dbb0 f i Hooks.obj
 0001:0001cbb0       ??$?0_JX@?$duration@_JU?$ratio@$00$0JIJGIA@@std@@@chrono@std@@QAE@AB_J@Z 1001dbb0 f i Hooks.obj
 0001:0001cbd0       ??$?0U?$default_delete@VNetvarTree@@@std@@$0A@@?$unique_ptr@VNetvarTree@@U?$default_delete@VNetvarTree@@@std@@@std@@QAE@XZ 1001dbd0 f i NetvarManager.obj
 0001:0001cbd0       ??$?0U?$default_delete@VVMTHook@@@std@@$0A@@?$unique_ptr@VVMTHook@@U?$default_delete@VVMTHook@@@std@@@std@@QAE@XZ 1001dbd0 f i Hooks.obj
 0001:0001cbd0       ??$?0U?$default_delete@VShadowVTManager@@@std@@$0A@@?$unique_ptr@VShadowVTManager@@U?$default_delete@VShadowVTManager@@@std@@@std@@QAE@XZ 1001dbd0 f i Hooks.obj
 0001:0001cc10       ??$?0U?$default_delete@$$BY0A@I@std@@$0A@@?$unique_ptr@$$BY0A@IU?$default_delete@$$BY0A@I@std@@@std@@QAE@$$T@Z 1001dc10 f i Hooks.obj
 0001:0001cc50       ??$make_unique@$$BY0A@I$0A@@std@@YA?AV?$unique_ptr@$$BY0A@IU?$default_delete@$$BY0A@I@std@@@0@I@Z 1001dc50 f i Hooks.obj
 0001:0001ccd0       ??$min@H@std@@YAABHABH0@Z  1001dcd0 f i Hooks.obj
 0001:0001ccf0       ??$clamp_value@MH@@YAMMHH@Z 1001dcf0 f i Hooks.obj
 0001:0001cd40       ??$sprintf_s@$0PK@@@YAHAAY0PK@DPBDZZ 1001dd40 f i Hooks.obj
 0001:0001cd70       ??$?HDU?$char_traits@D@std@@V?$allocator@D@1@@std@@YA?AV?$basic_string@DU?$char_traits@D@std@@V?$allocator@D@2@@0@ABV10@0@Z 1001dd70 f i Hooks.obj
 0001:0001ce10       ??$?HDU?$char_traits@D@std@@V?$allocator@D@1@@std@@YA?AV?$basic_string@DU?$char_traits@D@std@@V?$allocator@D@2@@0@$$QAV10@ABV10@@Z 1001de10 f i Hooks.obj
 0001:0001ce50       ??$?9DU?$char_traits@D@std@@V?$allocator@D@1@@std@@YA_NABV?$basic_string@DU?$char_traits@D@std@@V?$allocator@D@2@@0@QBD@Z 1001de50 f i Hooks.obj
 0001:0001ce90       ??$sleep_for@_JU?$ratio@$00$0DOI@@std@@@this_thread@std@@YAXABV?$duration@_JU?$ratio@$00$0DOI@@std@@@chrono@1@@Z 1001de90 f i Hooks.obj
 0001:0001cef0       ??$make_unique@VNetvarTree@@$$V$0A@@std@@YA?AV?$unique_ptr@VNetvarTree@@U?$default_delete@VNetvarTree@@@std@@@0@XZ 1001def0 f i Hooks.obj
 0001:0001cf80       ??$make_unique@VVMTHook@@AAPAVIVRenderView@@$0A@@std@@YA?AV?$unique_ptr@VVMTHook@@U?$default_delete@VVMTHook@@@std@@@0@AAPAVIVRenderView@@@Z 1001df80 f i Hooks.obj
 0001:0001cf80       ??$make_unique@VVMTHook@@AAPAVIBaseClientDLL@@$0A@@std@@YA?AV?$unique_ptr@VVMTHook@@U?$default_delete@VVMTHook@@@std@@@0@AAPAVIBaseClientDLL@@@Z 1001df80 f i Hooks.obj
 0001:0001cf80       ??$make_unique@VVMTHook@@AAPAVIPanel@@$0A@@std@@YA?AV?$unique_ptr@VVMTHook@@U?$default_delete@VVMTHook@@@std@@@0@AAPAVIPanel@@@Z 1001df80 f i Hooks.obj
 0001:0001cf80       ??$make_unique@VVMTHook@@AAPAVCModelRender@@$0A@@std@@YA?AV?$unique_ptr@VVMTHook@@U?$default_delete@VVMTHook@@@std@@@0@AAPAVCModelRender@@@Z 1001df80 f i Hooks.obj
 0001:0001cf80       ??$make_unique@VVMTHook@@AAPAVISurface@@$0A@@std@@YA?AV?$unique_ptr@VVMTHook@@U?$default_delete@VVMTHook@@@std@@@0@AAPAVISurface@@@Z 1001df80 f i Hooks.obj
 0001:0001cf80       ??$make_unique@VVMTHook@@AAPAVIClientMode@@$0A@@std@@YA?AV?$unique_ptr@VVMTHook@@U?$default_delete@VVMTHook@@@std@@@0@AAPAVIClientMode@@@Z 1001df80 f i Hooks.obj
 0001:0001d020       ??$GetOriginal@P6GXW4ClientFrameStage_t@@@Z@VMTHook@@QAEP6GXW4ClientFrameStage_t@@@ZI@Z 1001e020 f i Hooks.obj
 0001:0001d020       ??$GetOriginal@P6IXPAX0PAVCViewSetup@@@Z@VMTHook@@QAEP6IXPAX0PAVCViewSetup@@@ZI@Z 1001e020 f i Hooks.obj
 0001:0001d020       ??$GetOriginal@P6IXPAX0@Z@VMTHook@@QAEP6IXPAX0@ZI@Z 1001e020 f i Hooks.obj
 0001:0001d020       ??$GetOriginal@P6I_NPAVIClientMode@@PAXMPAVCUserCmd@@@Z@VMTHook@@QAEP6I_NPAVIClientMode@@PAXMPAVCUserCmd@@@ZI@Z 1001e020 f i Hooks.obj
 0001:0001d020       ??$GetOriginal@P6EXPAXPAVIMatRenderContext@@ABUDrawModelState_t@@ABUModelRenderInfo_t@@PAVmatrix3x4_t@@@Z@VMTHook@@QAEP6EXPAXPAVIMatRenderContext@@ABUDrawModelState_t@@ABUModelRenderInfo_t@@PAVmatrix3x4_t@@@ZI@Z 1001e020 f i Hooks.obj
 0001:0001d020       ??$GetOriginal@P6IXPAVISurface@@PAX@Z@VMTHook@@QAEP6IXPAVISurface@@PAX@ZI@Z 1001e020 f i Hooks.obj
 0001:0001d020       ??$GetOriginal@P6EXPAXI_N1@Z@VMTHook@@QAEP6EXPAXI_N1@ZI@Z 1001e020 f i Hooks.obj
 0001:0001d040       ??$clamp@M@std@@YAABMABM00@Z 1001e040 f i Hooks.obj
 0001:0001d070       ??$?0ABV?$allocator@V?$_List_unchecked_iterator@V?$_List_val@U?$_List_simple_types@U?$pair@$$CBV?$basic_string@DU?$char_traits@D@std@@V?$allocator@D@2@@std@@V?$shared_ptr@UNode@NetvarTree@@@2@@std@@@std@@@std@@@std@@@std@@X@?$_Vector_alloc@U?$_Vec_base_types@V?$_List_unchecked_iterator@V?$_List_val@U?$_List_simple_types@U?$pair@$$CBV?$basic_string@DU?$char_traits@D@std@@V?$allocator@D@2@@std@@V?$shared_ptr@UNode@NetvarTree@@@2@@std@@@std@@@std@@@std@@V?$allocator@V?$_List_unchecked_iterator@V?$_List_val@U?$_List_simple_types@U?$pair@$$CBV?$basic_string@DU?$char_traits@D@std@@V?$allocator@D@2@@std@@V?$shared_ptr@UNode@NetvarTree@@@2@@std@@@std@@@std@@@std@@@2@@std@@@std@@QAE@ABV?$allocator@V?$_List_unchecked_iterator@V?$_List_val@U?$_List_simple_types@U?$pair@$$CBV?$basic_string@DU?$char_traits@D@std@@V?$allocator@D@2@@std@@V?$shared_ptr@UNode@NetvarTree@@@2@@std@@@std@@@std@@@std@@@1@@Z 1001e070 f i NetvarManager.obj
 0001:0001d070       ??$?0ABV?$allocator@V?$basic_string@DU?$char_traits@D@std@@V?$allocator@D@2@@std@@@std@@X@?$_Vector_alloc@U?$_Vec_base_types@V?$basic_string@DU?$char_traits@D@std@@V?$allocator@D@2@@std@@V?$allocator@V?$basic_string@DU?$char_traits@D@std@@V?$allocator@D@2@@std@@@2@@std@@@std@@QAE@ABV?$allocator@V?$basic_string@DU?$char_traits@D@std@@V?$allocator@D@2@@std@@@1@@Z 1001e070 f i Menu.obj
 0001:0001d070       ??$?0ABV?$allocator@PBD@std@@X@?$_Vector_alloc@U?$_Vec_base_types@PBDV?$allocator@PBD@std@@@std@@@std@@QAE@ABV?$allocator@PBD@1@@Z 1001e070 f i Hooks.obj
 0001:0001d0b0       ??$_Range_construct_or_tidy@PBQBD@?$vector@PBDV?$allocator@PBD@std@@@std@@AAEXPBQBD0Uforward_iterator_tag@1@@Z 1001e0b0 f i Hooks.obj
 0001:0001d180       ??$_Move_unchecked@PAVtrace_info@@PAV1@@std@@YAPAVtrace_info@@PAV1@00@Z 1001e180 f i Hooks.obj
 0001:0001d1c0       ??$_Emplace_reallocate@Vtrace_info@@@?$vector@Vtrace_info@@V?$allocator@Vtrace_info@@@std@@@std@@QAEPAVtrace_info@@QAV2@$$QAV2@@Z 1001e1c0 f i Hooks.obj
 0001:0001d3b0       ??$reset@PAIX@?$unique_ptr@$$BY0A@IU?$default_delete@$$BY0A@I@std@@@std@@QAEXPAI@Z 1001e3b0 f i Hooks.obj
 0001:0001d400       ??$_Traits_find@U?$char_traits@D@std@@@std@@YAIQBDII0I@Z 1001e400 f i Hooks.obj
 0001:0001d4a0       ??$?RI$0A@@?$default_delete@$$BY0A@I@std@@QBEXPAI@Z 1001e4a0 f i Hooks.obj
 0001:0001d4d0       ??$_Reallocate_grow_by@V<lambda_15711c68e099a15a58f4d77303cb286d>@@D@?$basic_string@DU?$char_traits@D@std@@V?$allocator@D@2@@std@@QAEAAV01@IV<lambda_15711c68e099a15a58f4d77303cb286d>@@D@Z 1001e4d0 f i Hooks.obj
 0001:0001d600       ?_Change_array@?$vector@Vtrace_info@@V?$allocator@Vtrace_info@@@std@@@std@@AAEXQAVtrace_info@@II@Z 1001e600 f i Hooks.obj
 0001:0001d6c0       ?_Calculate_growth@?$vector@Vtrace_info@@V?$allocator@Vtrace_info@@@std@@@std@@ABEII@Z 1001e6c0 f i Hooks.obj
 0001:0001d710       ?_Umove_if_noexcept@?$vector@Vtrace_info@@V?$allocator@Vtrace_info@@@std@@@std@@AAEXPAVtrace_info@@00@Z 1001e710 f i Hooks.obj
 0001:0001d740       ?_Umove@?$vector@Vtrace_info@@V?$allocator@Vtrace_info@@@std@@@std@@AAEPAVtrace_info@@PAV3@00@Z 1001e740 f i Hooks.obj
 0001:0001d770       ?max_size@?$vector@Vtrace_info@@V?$allocator@Vtrace_info@@@std@@@std@@QBEIXZ 1001e770 f i Hooks.obj
 0001:0001d7b0       ?_Umove_if_noexcept1@?$vector@Vtrace_info@@V?$allocator@Vtrace_info@@@std@@@std@@AAEXPAVtrace_info@@00U?$integral_constant@_N$00@2@@Z 1001e7b0 f i Hooks.obj
 0001:0001d7e0       ??$?0PAVNetvarTree@@@?$_Unique_ptr_base@VNetvarTree@@U?$default_delete@VNetvarTree@@@std@@@std@@QAE@PAVNetvarTree@@@Z 1001e7e0 f i Hooks.obj
 0001:0001d7e0       ??$?0PAI@?$_Unique_ptr_base@IU?$default_delete@$$BY0A@I@std@@@std@@QAE@PAI@Z 1001e7e0 f i Hooks.obj
 0001:0001d7e0       ??$?0PAVVMTHook@@@?$_Unique_ptr_base@VVMTHook@@U?$default_delete@VVMTHook@@@std@@@std@@QAE@PAVVMTHook@@@Z 1001e7e0 f i Hooks.obj
 0001:0001d7e0       ??$?0PAVShadowVTManager@@@?$_Unique_ptr_base@VShadowVTManager@@U?$default_delete@VShadowVTManager@@@std@@@std@@QAE@PAVShadowVTManager@@@Z 1001e7e0 f i Hooks.obj
 0001:0001d810       ??$?0PAIU?$default_delete@$$BY0A@I@std@@$0A@X@?$unique_ptr@$$BY0A@IU?$default_delete@$$BY0A@I@std@@@std@@QAE@PAI@Z 1001e810 f i Hooks.obj
 0001:0001d810       ??$?0U?$default_delete@VNetvarTree@@@std@@$0A@@?$unique_ptr@VNetvarTree@@U?$default_delete@VNetvarTree@@@std@@@std@@QAE@PAVNetvarTree@@@Z 1001e810 f i Hooks.obj
 0001:0001d810       ??$?0U?$default_delete@VVMTHook@@@std@@$0A@@?$unique_ptr@VVMTHook@@U?$default_delete@VVMTHook@@@std@@@std@@QAE@PAVVMTHook@@@Z 1001e810 f i Hooks.obj
 0001:0001d850       ??$?8DU?$char_traits@D@std@@V?$allocator@D@1@@std@@YA_NABV?$basic_string@DU?$char_traits@D@std@@V?$allocator@D@2@@0@QBD@Z 1001e850 f i Hooks.obj
 0001:0001d870       ??$_To_xtime@_JU?$ratio@$00$0DOI@@std@@@std@@YA?AUxtime@@ABV?$duration@_JU?$ratio@$00$0DOI@@std@@@chrono@0@@Z 1001e870 f i Hooks.obj
 0001:0001d960       ??$clamp@MU?$less@X@std@@@std@@YAABMABM00U?$less@X@0@@Z 1001e960 f i Hooks.obj
 0001:0001d9d0       ??$?0ABV?$allocator@V?$_List_unchecked_iterator@V?$_List_val@U?$_List_simple_types@U?$pair@$$CBV?$basic_string@DU?$char_traits@D@std@@V?$allocator@D@2@@std@@V?$shared_ptr@UNode@NetvarTree@@@2@@std@@@std@@@std@@@std@@@std@@$$V@?$_Compressed_pair@V?$allocator@V?$_List_unchecked_iterator@V?$_List_val@U?$_List_simple_types@U?$pair@$$CBV?$basic_string@DU?$char_traits@D@std@@V?$allocator@D@2@@std@@V?$shared_ptr@UNode@NetvarTree@@@2@@std@@@std@@@std@@@std@@@std@@V?$_Vector_val@U?$_Simple_types@V?$_List_unchecked_iterator@V?$_List_val@U?$_List_simple_types@U?$pair@$$CBV?$basic_string@DU?$char_traits@D@std@@V?$allocator@D@2@@std@@V?$shared_ptr@UNode@NetvarTree@@@2@@std@@@std@@@std@@@std@@@std@@@2@$00@std@@QAE@U_One_then_variadic_args_t@1@ABV?$allocator@V?$_List_unchecked_iterator@V?$_List_val@U?$_List_simple_types@U?$pair@$$CBV?$basic_string@DU?$char_traits@D@std@@V?$allocator@D@2@@std@@V?$shared_ptr@UNode@NetvarTree@@@2@@std@@@std@@@std@@@std@@@1@@Z 1001e9d0 f i NetvarManager.obj
 0001:0001d9d0       ??$?0ABV?$allocator@PBD@std@@$$V@?$_Compressed_pair@V?$allocator@PBD@std@@V?$_Vector_val@U?$_Simple_types@PBD@std@@@2@$00@std@@QAE@U_One_then_variadic_args_t@1@ABV?$allocator@PBD@1@@Z 1001e9d0 f i Hooks.obj
 0001:0001d9d0       ??$?0ABV?$allocator@V?$basic_string@DU?$char_traits@D@std@@V?$allocator@D@2@@std@@@std@@$$V@?$_Compressed_pair@V?$allocator@V?$basic_string@DU?$char_traits@D@std@@V?$allocator@D@2@@std@@@std@@V?$_Vector_val@U?$_Simple_types@V?$basic_string@DU?$char_traits@D@std@@V?$allocator@D@2@@std@@@std@@@2@$00@std@@QAE@U_One_then_variadic_args_t@1@ABV?$allocator@V?$basic_string@DU?$char_traits@D@std@@V?$allocator@D@2@@std@@@1@@Z 1001e9d0 f i Menu.obj
 0001:0001da00       ??$distance@PBQBD@std@@YAHPBQBD0@Z 1001ea00 f i Hooks.obj
 0001:0001da20       ??$_Move_unchecked1@PAVtrace_info@@PAV1@@std@@YAPAVtrace_info@@PAV1@00U_General_ptr_iterator_tag@0@@Z 1001ea20 f i Hooks.obj
 0001:0001da60       ??$_Uninitialized_move@PAVtrace_info@@PAV1@V?$allocator@Vtrace_info@@@std@@@std@@YAPAVtrace_info@@QAV1@0PAV1@AAV?$allocator@Vtrace_info@@@0@@Z 1001ea60 f i Hooks.obj
 0001:0001db20       ??$_Idl_distance@PAVtrace_info@@PAV1@@std@@YAHABQAVtrace_info@@0@Z 1001eb20 f i Hooks.obj
 0001:0001db40       ??4trace_info@@QAEAAV0@$$QAV0@@Z 1001eb40 f i Hooks.obj
 0001:0001db80       ?zero@?$duration@_JU?$ratio@$00$0DOI@@std@@@chrono@std@@SA?AV123@XZ 1001eb80 f i Hooks.obj
 0001:0001dbd0       ??Z?$duration@_JU?$ratio@$00$0DLJKMKAA@@std@@@chrono@std@@QAEAAV012@ABV012@@Z 1001ebd0 f i Hooks.obj
 0001:0001dc00       ??Y?$duration@_JU?$ratio@$00$0DLJKMKAA@@std@@@chrono@std@@QAEAAV012@ABV012@@Z 1001ec00 f i Hooks.obj
 0001:0001dc30       ?_Equal@?$basic_string@DU?$char_traits@D@std@@V?$allocator@D@2@@std@@QBE_NQBD@Z 1001ec30 f i Hooks.obj
 0001:0001dcb0       ??$?0AAPAVNetvarTree@@@?$_Compressed_pair@U?$default_delete@VNetvarTree@@@std@@PAVNetvarTree@@$00@std@@QAE@U_Zero_then_variadic_args_t@1@AAPAVNetvarTree@@@Z 1001ecb0 f i Hooks.obj
 0001:0001dcb0       ??$?0AAPAI@?$_Compressed_pair@U?$default_delete@$$BY0A@I@std@@PAI$00@std@@QAE@U_Zero_then_variadic_args_t@1@AAPAI@Z 1001ecb0 f i Hooks.obj
 0001:0001dcb0       ??$?0AAPAVShadowVTManager@@@?$_Compressed_pair@U?$default_delete@VShadowVTManager@@@std@@PAVShadowVTManager@@$00@std@@QAE@U_Zero_then_variadic_args_t@1@AAPAVShadowVTManager@@@Z 1001ecb0 f i Hooks.obj
 0001:0001dcb0       ??$?0AAPAVVMTHook@@@?$_Compressed_pair@U?$default_delete@VVMTHook@@@std@@PAVVMTHook@@$00@std@@QAE@U_Zero_then_variadic_args_t@1@AAPAVVMTHook@@@Z 1001ecb0 f i Hooks.obj
 0001:0001dce0       ??$?N_JU?$ratio@$00$0DOI@@std@@_JU01@@chrono@std@@YA_NABV?$duration@_JU?$ratio@$00$0DOI@@std@@@01@0@Z 1001ece0 f i Hooks.obj
 0001:0001dd20       ??$?0_JU?$ratio@$00$0JIJGIA@@std@@X@?$duration@_JU?$ratio@$00$0DLJKMKAA@@std@@@chrono@std@@QAE@ABV?$duration@_JU?$ratio@$00$0JIJGIA@@std@@@12@@Z 1001ed20 f i Hooks.obj
 0001:0001dd60       ??$duration_cast@V?$duration@_JU?$ratio@$00$0DLJKMKAA@@std@@@chrono@std@@_JU?$ratio@$00$0DOI@@3@X@chrono@std@@YA?AV?$duration@_JU?$ratio@$00$0DLJKMKAA@@std@@@01@ABV?$duration@_JU?$ratio@$00$0DOI@@std@@@01@@Z 1001ed60 f i Hooks.obj
 0001:0001de70       ??$duration_cast@V?$duration@_JU?$ratio@$00$00@std@@@chrono@std@@_JU?$ratio@$00$0DLJKMKAA@@3@X@chrono@std@@YA?AV?$duration@_JU?$ratio@$00$00@std@@@01@ABV?$duration@_JU?$ratio@$00$0DLJKMKAA@@std@@@01@@Z 1001ee70 f i Hooks.obj
 0001:0001df80       ??$?0_JU?$ratio@$00$00@std@@X@?$duration@_JU?$ratio@$00$0DLJKMKAA@@std@@@chrono@std@@QAE@ABV?$duration@_JU?$ratio@$00$00@std@@@12@@Z 1001ef80 f i Hooks.obj
 0001:0001dfc0       ??$?RABMABM@?$less@X@std@@QBE_NABM0@Z 1001efc0 f i Hooks.obj
 0001:0001e000       ??$_Distance1@PBQBD@std@@YAHPBQBD0Urandom_access_iterator_tag@0@@Z 1001f000 f i Hooks.obj
 0001:0001e010       ??$_Uninitialized_move_al_unchecked@PAVtrace_info@@PAV1@V?$allocator@Vtrace_info@@@std@@@std@@YAPAVtrace_info@@PAV1@QAV1@1AAV?$allocator@Vtrace_info@@@0@U_General_ptr_iterator_tag@0@U_Unused_parameter@0@@Z 1001f010 f i Hooks.obj
 0001:0001e0a0       ??$?M_JU?$ratio@$00$0DOI@@std@@_JU01@@chrono@std@@YA_NABV?$duration@_JU?$ratio@$00$0DOI@@std@@@01@0@Z 1001f0a0 f i Hooks.obj
 0001:0001e110       ??$duration_cast@V?$duration@_JU?$ratio@$00$0DLJKMKAA@@std@@@chrono@std@@_JU?$ratio@$00$0JIJGIA@@3@X@chrono@std@@YA?AV?$duration@_JU?$ratio@$00$0DLJKMKAA@@std@@@01@ABV?$duration@_JU?$ratio@$00$0JIJGIA@@std@@@01@@Z 1001f110 f i Hooks.obj
 0001:0001e210       ??$duration_cast@V?$duration@_JU?$ratio@$00$0DLJKMKAA@@std@@@chrono@std@@_JU?$ratio@$00$00@3@X@chrono@std@@YA?AV?$duration@_JU?$ratio@$00$0DLJKMKAA@@std@@@01@ABV?$duration@_JU?$ratio@$00$00@std@@@01@@Z 1001f210 f i Hooks.obj
 0001:0001e320       ??$_Emplace_back@Vtrace_info@@@?$_Uninitialized_backout_al@PAVtrace_info@@V?$allocator@Vtrace_info@@@std@@@std@@QAEX$$QAVtrace_info@@@Z 1001f320 f i Hooks.obj
 0001:0001e380       ?OnDllAttach@@YAHXZ        1001f380 f   DLLMain.obj
 0001:0001e400       _DllMain@12                1001f400 f   DLLMain.obj
 0001:0001e440       ??$?0HX@?$duration@_JU?$ratio@$00$0DOI@@std@@@chrono@std@@QAE@ABH@Z 1001f440 f i DLLMain.obj
 0001:0001e460       _fmodf                     1001f460 f i Menu.obj
 0001:0001e4a0       ?FromHSV@Color@@QAEAAU1@MMM@Z 1001f4a0 f i Menu.obj
 0001:0001e7b0       ?get_view_angles@IVEngineClient@@QAE?AVVector@@XZ 1001f7b0 f i Menu.obj
 0001:0001e800       ?observer_target@C_BaseEntity@@QAEIXZ 1001f800 f i Menu.obj
 0001:0001e8b0       ?draw_gradient_rect@ISurface@@QAEXHHHH_NMH@Z 1001f8b0 f i Menu.obj
 0001:0001e960       ?draw_gradient_rect@ISurface@@QAEXHHHHUColor@@0W4gradient_type_t@@@Z 1001f960 f i Menu.obj
 0001:0001eb40       ??R<lambda_2e7813eced8d53910bc9bc31e2c83e4c>@@QBE?AUColor@@ABU1@0M@Z 1001fb40 f i Menu.obj
 0001:0001ebf0       ?GetTextSizeRect@ISurface@@QAE?AUtagRECT@@KPBD@Z 1001fbf0 f i Menu.obj
 0001:0001ecc0       ?GetMousePosition@ISurface@@QAE?AVVector2D@@XZ 1001fcc0 f i Menu.obj
 0001:0001ed20       ?MouseInRegion@ISurface@@QAE_NHHHH@Z 1001fd20 f i Menu.obj
 0001:0001edb0       ??0Menu@@QAE@XZ            1001fdb0 f i Menu.obj
 0001:0001eef0       ??0<unnamed-type-config>@Menu@@QAE@XZ 1001fef0 f i Menu.obj
 0001:0001ef30       ??0<unnamed-type-legit>@<unnamed-type-config>@Menu@@QAE@XZ 1001ff30 f i Menu.obj
 0001:0001ef90       ??0<unnamed-type-aimbot>@<unnamed-type-config>@Menu@@QAE@XZ 1001ff90 f i Menu.obj
 0001:0001f000       ??0<unnamed-type-visuals>@<unnamed-type-config>@Menu@@QAE@XZ 10020000 f i Menu.obj
 0001:0001f370       ??0<unnamed-type-misc>@<unnamed-type-config>@Menu@@QAE@XZ 10020370 f i Menu.obj
 0001:0001f3d0       ??0<unnamed-type-Pos>@Menu@@QAE@XZ 100203d0 f i Menu.obj
 0001:0001f400       ??1Menu@@QAE@XZ            10020400 f i Menu.obj
 0001:0001f440       ?OpenCFG@@YAXXZ            10020440 f   Menu.obj
 0001:0001f530       ?Render@Menu@@QAEXXZ       10020530 f   Menu.obj
 0001:000233f0       ?spectators_list@Menu@@AAEXXZ 100243f0 f   Menu.obj
 0001:000239e0       ?draw_radar@Menu@@AAEXXZ   100249e0 f   Menu.obj
 0001:000243d0       ?Tab@Menu@@AAEXV?$basic_string@DU?$char_traits@D@std@@V?$allocator@D@2@@std@@@Z 100253d0 f   Menu.obj
 0001:000249d0       ?text@Menu@@AAEXV?$basic_string@DU?$char_traits@D@std@@V?$allocator@D@2@@std@@HH@Z 100259d0 f   Menu.obj
 0001:00024b80       ?group_box@Menu@@AAEXV?$basic_string@DU?$char_traits@D@std@@V?$allocator@D@2@@std@@HHHH@Z 10025b80 f   Menu.obj
 0001:00024f50       ?second_tabs@Menu@@AAEXV?$basic_string@DU?$char_traits@D@std@@V?$allocator@D@2@@std@@0HHHH@Z 10025f50 f   Menu.obj
 0001:00025870       ?third_tabs@Menu@@AAEXV?$basic_string@DU?$char_traits@D@std@@V?$allocator@D@2@@std@@0HHHH@Z 10026870 f   Menu.obj
 0001:00026190       ?visuals_tabs@Menu@@AAEXV?$basic_string@DU?$char_traits@D@std@@V?$allocator@D@2@@std@@0HHHH@Z 10027190 f   Menu.obj
 0001:00026ab0       ?weapon_tabs@Menu@@AAEXXZ  10027ab0 f   Menu.obj
 0001:000272b0       ?CheckBox@Menu@@AAEXV?$basic_string@DU?$char_traits@D@std@@V?$allocator@D@2@@std@@PA_N@Z 100282b0 f   Menu.obj
 0001:000279d0       ?Listbox@Menu@@AAEXV?$basic_string@DU?$char_traits@D@std@@V?$allocator@D@2@@std@@V?$vector@V?$basic_string@DU?$char_traits@D@std@@V?$allocator@D@2@@std@@V?$allocator@V?$basic_string@DU?$char_traits@D@std@@V?$allocator@D@2@@std@@@2@@3@PAH@Z 100289d0 f   Menu.obj
 0001:00028590       ?Button@Menu@@AAEXV?$basic_string@DU?$char_traits@D@std@@V?$allocator@D@2@@std@@PA_NH@Z 10029590 f   Menu.obj
 0001:00028cb0       ?Slider@Menu@@AAEXHV?$basic_string@DU?$char_traits@D@std@@V?$allocator@D@2@@std@@PAHH@Z 10029cb0 f   Menu.obj
 0001:00029ae0       ?ComboBox@Menu@@AAEXV?$basic_string@DU?$char_traits@D@std@@V?$allocator@D@2@@std@@V?$vector@V?$basic_string@DU?$char_traits@D@std@@V?$allocator@D@2@@std@@V?$allocator@V?$basic_string@DU?$char_traits@D@std@@V?$allocator@D@2@@std@@@2@@3@PAH@Z 1002aae0 f   Menu.obj
 0001:0002b190       ?MultiComboBox@Menu@@AAEXV?$basic_string@DU?$char_traits@D@std@@V?$allocator@D@2@@std@@V?$vector@V?$basic_string@DU?$char_traits@D@std@@V?$allocator@D@2@@std@@V?$allocator@V?$basic_string@DU?$char_traits@D@std@@V?$allocator@D@2@@std@@@2@@3@PA_N@Z 1002c190 f   Menu.obj
 0001:0002ca40       ?ColorPicker@Menu@@AAEXV?$basic_string@DU?$char_traits@D@std@@V?$allocator@D@2@@std@@AAUColorV2@@H@Z 1002da40 f   Menu.obj
 0001:0002d300       ?at@?$vector@V?$basic_string@DU?$char_traits@D@std@@V?$allocator@D@2@@std@@V?$allocator@V?$basic_string@DU?$char_traits@D@std@@V?$allocator@D@2@@std@@@2@@std@@QAEAAV?$basic_string@DU?$char_traits@D@std@@V?$allocator@D@2@@2@I@Z 1002e300 f i Menu.obj
 0001:0002d330       ?size@?$vector@V?$basic_string@DU?$char_traits@D@std@@V?$allocator@D@2@@std@@V?$allocator@V?$basic_string@DU?$char_traits@D@std@@V?$allocator@D@2@@std@@@2@@std@@QBEIXZ 1002e330 f i Menu.obj
 0001:0002d360       ??1?$vector@V?$basic_string@DU?$char_traits@D@std@@V?$allocator@D@2@@std@@V?$allocator@V?$basic_string@DU?$char_traits@D@std@@V?$allocator@D@2@@std@@@2@@std@@QAE@XZ 1002e360 f i Menu.obj
 0001:0002d3a0       ??0?$vector@V?$basic_string@DU?$char_traits@D@std@@V?$allocator@D@2@@std@@V?$allocator@V?$basic_string@DU?$char_traits@D@std@@V?$allocator@D@2@@std@@@2@@std@@QAE@V?$initializer_list@V?$basic_string@DU?$char_traits@D@std@@V?$allocator@D@2@@std@@@1@ABV?$allocator@V?$basic_string@DU?$char_traits@D@std@@V?$allocator@D@2@@std@@@1@@Z 1002e3a0 f i Menu.obj
 0001:0002d400       ??4?$basic_string@DU?$char_traits@D@std@@V?$allocator@D@2@@std@@QAEAAV01@QBD@Z 1002e400 f i Menu.obj
 0001:0002d420       ?_Tidy@?$vector@V?$basic_string@DU?$char_traits@D@std@@V?$allocator@D@2@@std@@V?$allocator@V?$basic_string@DU?$char_traits@D@std@@V?$allocator@D@2@@std@@@2@@std@@AAEXXZ 1002e420 f i Menu.obj
 0001:0002d4d0       ?_Destroy@?$vector@V?$basic_string@DU?$char_traits@D@std@@V?$allocator@D@2@@std@@V?$allocator@V?$basic_string@DU?$char_traits@D@std@@V?$allocator@D@2@@std@@@2@@std@@AAEXPAV?$basic_string@DU?$char_traits@D@std@@V?$allocator@D@2@@2@0@Z 1002e4d0 f i Menu.obj
 0001:0002d500       ?capacity@?$vector@V?$basic_string@DU?$char_traits@D@std@@V?$allocator@D@2@@std@@V?$allocator@V?$basic_string@DU?$char_traits@D@std@@V?$allocator@D@2@@std@@@2@@std@@QBEIXZ 1002e500 f i Menu.obj
 0001:0002d530       ?deallocate@?$allocator@V?$basic_string@DU?$char_traits@D@std@@V?$allocator@D@2@@std@@@std@@QAEXQAV?$basic_string@DU?$char_traits@D@std@@V?$allocator@D@2@@2@I@Z 1002e530 f i Menu.obj
 0001:0002d550       ??$?HDU?$char_traits@D@std@@V?$allocator@D@1@@std@@YA?AV?$basic_string@DU?$char_traits@D@std@@V?$allocator@D@2@@0@ABV10@QBD@Z 1002e550 f i Menu.obj
 0001:0002d600       ??$clamp@H@std@@YAABHABH00@Z 1002e600 f i Menu.obj
 0001:0002d630       ??$sprintf_s@$0PP@@@YAHAAY0PP@DPBDZZ 1002e630 f i Menu.obj
 0001:0002d660       ??$sprintf_s@$0BI@@@YAHAAY0BI@DPBDZZ 1002e660 f i Menu.obj
 0001:0002d690       ??$_Range_construct_or_tidy@PBV?$basic_string@DU?$char_traits@D@std@@V?$allocator@D@2@@std@@@?$vector@V?$basic_string@DU?$char_traits@D@std@@V?$allocator@D@2@@std@@V?$allocator@V?$basic_string@DU?$char_traits@D@std@@V?$allocator@D@2@@std@@@2@@std@@AAEXPBV?$basic_string@DU?$char_traits@D@std@@V?$allocator@D@2@@1@0Uforward_iterator_tag@1@@Z 1002e690 f i Menu.obj
 0001:0002d760       ??$_Destroy_range@V?$allocator@V?$basic_string@DU?$char_traits@D@std@@V?$allocator@D@2@@std@@@std@@@std@@YAXPAV?$basic_string@DU?$char_traits@D@std@@V?$allocator@D@2@@0@0AAV?$allocator@V?$basic_string@DU?$char_traits@D@std@@V?$allocator@D@2@@std@@@0@@Z 1002e760 f i Menu.obj
 0001:0002d790       ?_Buy@?$vector@V?$basic_string@DU?$char_traits@D@std@@V?$allocator@D@2@@std@@V?$allocator@V?$basic_string@DU?$char_traits@D@std@@V?$allocator@D@2@@std@@@2@@std@@AAE_NI@Z 1002e790 f i Menu.obj
 0001:0002d850       ?max_size@?$vector@V?$basic_string@DU?$char_traits@D@std@@V?$allocator@D@2@@std@@V?$allocator@V?$basic_string@DU?$char_traits@D@std@@V?$allocator@D@2@@std@@@2@@std@@QBEIXZ 1002e850 f i Menu.obj
 0001:0002d890       ?allocate@?$allocator@V?$basic_string@DU?$char_traits@D@std@@V?$allocator@D@2@@std@@@std@@QAEPAV?$basic_string@DU?$char_traits@D@std@@V?$allocator@D@2@@2@I@Z 1002e890 f i Menu.obj
 0001:0002d8c0       ?max_size@?$_Default_allocator_traits@V?$allocator@V?$basic_string@DU?$char_traits@D@std@@V?$allocator@D@2@@std@@@std@@@std@@SAIABV?$allocator@V?$basic_string@DU?$char_traits@D@std@@V?$allocator@D@2@@std@@@2@@Z 1002e8c0 f i Menu.obj
 0001:0002d8d0       ??$clamp@HU?$less@X@std@@@std@@YAABHABH00U?$less@X@0@@Z 1002e8d0 f i Menu.obj
 0001:0002d940       ??$distance@PBV?$basic_string@DU?$char_traits@D@std@@V?$allocator@D@2@@std@@@std@@YAHPBV?$basic_string@DU?$char_traits@D@std@@V?$allocator@D@2@@0@0@Z 1002e940 f i Menu.obj
 0001:0002d960       ??$_Ucopy@PBV?$basic_string@DU?$char_traits@D@std@@V?$allocator@D@2@@std@@@?$vector@V?$basic_string@DU?$char_traits@D@std@@V?$allocator@D@2@@std@@V?$allocator@V?$basic_string@DU?$char_traits@D@std@@V?$allocator@D@2@@std@@@2@@std@@AAEPAV?$basic_string@DU?$char_traits@D@std@@V?$allocator@D@2@@1@PBV21@0PAV21@@Z 1002e960 f i Menu.obj
 0001:0002d990       ??$_Destroy_range1@V?$allocator@V?$basic_string@DU?$char_traits@D@std@@V?$allocator@D@2@@std@@@std@@@std@@YAXPAV?$basic_string@DU?$char_traits@D@std@@V?$allocator@D@2@@0@0AAV?$allocator@V?$basic_string@DU?$char_traits@D@std@@V?$allocator@D@2@@std@@@0@U?$integral_constant@_N$0A@@0@@Z 1002e990 f i Menu.obj
 0001:0002d9d0       ??$_Get_size_of_n@$0BI@@std@@YAII@Z 1002e9d0 f i Menu.obj
 0001:0002da00       ??$?RABHABH@?$less@X@std@@QBE_NABH0@Z 1002ea00 f i Menu.obj
 0001:0002da30       ??$_Distance1@PBV?$basic_string@DU?$char_traits@D@std@@V?$allocator@D@2@@std@@@std@@YAHPBV?$basic_string@DU?$char_traits@D@std@@V?$allocator@D@2@@0@0Urandom_access_iterator_tag@0@@Z 1002ea30 f i Menu.obj
 0001:0002da50       ??$_Uninitialized_copy@PBV?$basic_string@DU?$char_traits@D@std@@V?$allocator@D@2@@std@@PAV12@V?$allocator@V?$basic_string@DU?$char_traits@D@std@@V?$allocator@D@2@@std@@@2@@std@@YAPAV?$basic_string@DU?$char_traits@D@std@@V?$allocator@D@2@@0@QBV10@0PAV10@AAV?$allocator@V?$basic_string@DU?$char_traits@D@std@@V?$allocator@D@2@@std@@@0@@Z 1002ea50 f i Menu.obj
 0001:0002db10       ??$_Idl_distance@PAV?$basic_string@DU?$char_traits@D@std@@V?$allocator@D@2@@std@@PAV12@@std@@YAHABQAV?$basic_string@DU?$char_traits@D@std@@V?$allocator@D@2@@0@0@Z 1002eb10 f i ESP.obj
 0001:0002db10       ??$_Idl_distance@PBV?$basic_string@DU?$char_traits@D@std@@V?$allocator@D@2@@std@@PBV12@@std@@YAHABQBV?$basic_string@DU?$char_traits@D@std@@V?$allocator@D@2@@0@0@Z 1002eb10 f i Menu.obj
 0001:0002db30       ??$destroy@V?$basic_string@DU?$char_traits@D@std@@V?$allocator@D@2@@std@@@?$_Default_allocator_traits@V?$allocator@V?$basic_string@DU?$char_traits@D@std@@V?$allocator@D@2@@std@@@std@@@std@@SAXAAV?$allocator@V?$basic_string@DU?$char_traits@D@std@@V?$allocator@D@2@@std@@@1@QAV?$basic_string@DU?$char_traits@D@std@@V?$allocator@D@2@@1@@Z 1002eb30 f i Menu.obj
 0001:0002db40       ??_G?$basic_string@DU?$char_traits@D@std@@V?$allocator@D@2@@std@@QAEPAXI@Z 1002eb40 f i Menu.obj
 0001:0002db70       ??$_Uninitialized_copy_al_unchecked@PBV?$basic_string@DU?$char_traits@D@std@@V?$allocator@D@2@@std@@PAV12@V?$allocator@V?$basic_string@DU?$char_traits@D@std@@V?$allocator@D@2@@std@@@2@@std@@YAPAV?$basic_string@DU?$char_traits@D@std@@V?$allocator@D@2@@0@PBV10@QBV10@QAV10@AAV?$allocator@V?$basic_string@DU?$char_traits@D@std@@V?$allocator@D@2@@std@@@0@U_General_ptr_iterator_tag@0@U_Unused_parameter@0@@Z 1002eb70 f i Menu.obj
 0001:0002dbf0       ??1?$_Uninitialized_backout_al@PAV?$basic_string@DU?$char_traits@D@std@@V?$allocator@D@2@@std@@V?$allocator@V?$basic_string@DU?$char_traits@D@std@@V?$allocator@D@2@@std@@@2@@std@@QAE@XZ 1002ebf0 f i Menu.obj
 0001:0002dc40       ??$_Emplace_back@ABV?$basic_string@DU?$char_traits@D@std@@V?$allocator@D@2@@std@@@?$_Uninitialized_backout_al@PAV?$basic_string@DU?$char_traits@D@std@@V?$allocator@D@2@@std@@V?$allocator@V?$basic_string@DU?$char_traits@D@std@@V?$allocator@D@2@@std@@@2@@std@@QAEXABV?$basic_string@DU?$char_traits@D@std@@V?$allocator@D@2@@1@@Z 1002ec40 f i Menu.obj
 0001:0002dca0       ??$construct@V?$basic_string@DU?$char_traits@D@std@@V?$allocator@D@2@@std@@ABV12@@?$_Default_allocator_traits@V?$allocator@V?$basic_string@DU?$char_traits@D@std@@V?$allocator@D@2@@std@@@std@@@std@@SAXAAV?$allocator@V?$basic_string@DU?$char_traits@D@std@@V?$allocator@D@2@@std@@@1@QAV?$basic_string@DU?$char_traits@D@std@@V?$allocator@D@2@@1@ABV31@@Z 1002eca0 f i Menu.obj
 0001:0002dce0       __vscprintf_l              1002ece0 f i cfgsaving.obj
 0001:0002dd30       __scprintf                 1002ed30 f i cfgsaving.obj
 0001:0002dd60       ?assign@?$char_traits@D@std@@SAPADQADID@Z 1002ed60 f i cfgsaving.obj
 0001:0002dd80       ?to_string@std@@YA?AV?$basic_string@DU?$char_traits@D@std@@V?$allocator@D@2@@1@M@Z 1002ed80 f i cfgsaving.obj
 0001:0002ddc0       ??0CConfig@@QAE@XZ         1002edc0 f i cfgsaving.obj
 0001:0002de30       ?Setup@CConfig@@QAEXXZ     1002ee30 f   cfgsaving.obj
 0001:0002ef00       ?SetupValue@CConfig@@AAEXAAHHV?$basic_string@DU?$char_traits@D@std@@V?$allocator@D@2@@std@@@Z 1002ff00 f   cfgsaving.obj
 0001:0002efc0       ?SetupValue@CConfig@@AAEXAA_N_NV?$basic_string@DU?$char_traits@D@std@@V?$allocator@D@2@@std@@@Z 1002ffc0 f   cfgsaving.obj
 0001:0002f080       ?SetupValue@CConfig@@AAEXAAUColorV2@@MV?$basic_string@DU?$char_traits@D@std@@V?$allocator@D@2@@std@@@Z 10030080 f   cfgsaving.obj
 0001:0002f2d0       ?SetupValue@CConfig@@AAEXPA_N_NHV?$basic_string@DU?$char_traits@D@std@@V?$allocator@D@2@@std@@@Z 100302d0 f   cfgsaving.obj
 0001:0002f3f0       ?Save@CConfig@@QAEXXZ      100303f0 f   cfgsaving.obj
 0001:0002f840       ?Load@CConfig@@QAEXXZ      10030840 f   cfgsaving.obj
 0001:0002fda0       ??0?$ConfigValue@_N@@QAE@V?$basic_string@DU?$char_traits@D@std@@V?$allocator@D@2@@std@@PA_N@Z 10030da0 f i cfgsaving.obj
 0001:0002fda0       ??0?$ConfigValue@H@@QAE@V?$basic_string@DU?$char_traits@D@std@@V?$allocator@D@2@@std@@PAH@Z 10030da0 f i cfgsaving.obj
 0001:0002fda0       ??0?$ConfigValue@M@@QAE@V?$basic_string@DU?$char_traits@D@std@@V?$allocator@D@2@@std@@PAM@Z 10030da0 f i cfgsaving.obj
 0001:0002fe10       ??0?$basic_string@DU?$char_traits@D@std@@V?$allocator@D@2@@std@@QAE@ID@Z 10030e10 f i cfgsaving.obj
 0001:0002fe70       ?assign@?$basic_string@DU?$char_traits@D@std@@V?$allocator@D@2@@std@@QAEAAV12@ID@Z 10030e70 f i cfgsaving.obj
 0001:0002ff00       ??R<lambda_c6753c90be971fc9cc00b4f35f237a75>@@QBEXQADID@Z 10030f00 f i cfgsaving.obj
 0001:0002ff40       ??$_Floating_to_string@M@std@@YA?AV?$basic_string@DU?$char_traits@D@std@@V?$allocator@D@2@@0@PBDM@Z 10030f40 f i cfgsaving.obj
 0001:00030000       ??$_Reallocate_for@V<lambda_c6753c90be971fc9cc00b4f35f237a75>@@D@?$basic_string@DU?$char_traits@D@std@@V?$allocator@D@2@@std@@QAEAAV01@IV<lambda_c6753c90be971fc9cc00b4f35f237a75>@@D@Z 10031000 f i cfgsaving.obj
 0001:000300e0       ?GetName@C_BaseCombatWeapon@@QAE?AV?$basic_string@DU?$char_traits@D@std@@V?$allocator@D@2@@std@@XZ 100310e0 f i CEntity.obj
 0001:00030120       ?GetHitbox@mstudiohitboxset_t@@QBEPAUmstudiobbox_t@@H@Z 10031120 f i CEntity.obj
 0001:00030140       ?GetHitboxSet@studiohdr_t@@QBEPAUmstudiohitboxset_t@@H@Z 10031140 f i CEntity.obj
 0001:00030170       ?GetStudiomodel@IVModelInfo@@QAEPAUstudiohdr_t@@PBUmodel_t@@@Z 10031170 f i CEntity.obj
 0001:000301a0       ?GetHitboxPosition@C_BaseEntity@@QAE?AVVector@@HPAVmatrix3x4_t@@PAM@Z 100311a0 f   CEntity.obj
 0001:00030320       ?GetHitboxPosition@C_BaseEntity@@QAE?AVVector@@HPAVmatrix3x4_t@@@Z 10031320 f   CEntity.obj
 0001:00030490       ?FixSetupBones@C_BaseEntity@@QAEXPAVmatrix3x4_t@@@Z 10031490 f   CEntity.obj
 0001:00030560       ?SetAbsAngles@C_BaseEntity@@QAEXVVector@@@Z 10031560 f   CEntity.obj
 0001:00030610       ?SetAbsOrigin@C_BaseEntity@@QAEXVVector@@@Z 10031610 f   CEntity.obj
 0001:000306c0       ?IsNade@C_BaseEntity@@QAE_NXZ 100316c0 f   CEntity.obj
 0001:00030890       ?IsKnife@C_BaseEntity@@QAE_NXZ 10031890 f   CEntity.obj
 0001:00030950       ?FireRate@C_BaseEntity@@QAEMXZ 10031950 f   CEntity.obj
 0001:000311b0       ?Init@interfaces@@YAXXZ    100321b0 f   Interfaces.obj
 0001:00031780       ?empty@?$basic_string@DU?$char_traits@D@std@@V?$allocator@D@2@@std@@QBE_NXZ 10032780 f i Interfaces.obj
 0001:000317b0       ??$FindClass@VIBaseClientDLL@@@interfaces@@YAPAVIBaseClientDLL@@V?$basic_string@DU?$char_traits@D@std@@V?$allocator@D@2@@std@@0_N@Z 100327b0 f i Interfaces.obj
 0001:00031940       ??$FindClass@VIClientEntityList@@@interfaces@@YAPAVIClientEntityList@@V?$basic_string@DU?$char_traits@D@std@@V?$allocator@D@2@@std@@0_N@Z 10032940 f i Interfaces.obj
 0001:00031ad0       ??$FindClass@VIVEngineClient@@@interfaces@@YAPAVIVEngineClient@@V?$basic_string@DU?$char_traits@D@std@@V?$allocator@D@2@@std@@0_N@Z 10032ad0 f i Interfaces.obj
 0001:00031c60       ??$FindClass@VIInputSystem@@@interfaces@@YAPAVIInputSystem@@V?$basic_string@DU?$char_traits@D@std@@V?$allocator@D@2@@std@@0_N@Z 10032c60 f i Interfaces.obj
 0001:00031df0       ??$FindClass@VCPrediction@@@interfaces@@YAPAVCPrediction@@V?$basic_string@DU?$char_traits@D@std@@V?$allocator@D@2@@std@@0_N@Z 10032df0 f i Interfaces.obj
 0001:00031f80       ??$FindClass@VIGameMovement@@@interfaces@@YAPAVIGameMovement@@V?$basic_string@DU?$char_traits@D@std@@V?$allocator@D@2@@std@@0_N@Z 10032f80 f i Interfaces.obj
 0001:00032110       ??$CaptureInterface@VIGameEventManager@@@interfaces@@YAPAVIGameEventManager@@PBD0@Z 10033110 f i Interfaces.obj
 0001:000321b0       ??$CaptureInterface@VIGameEventManager2@@@interfaces@@YAPAVIGameEventManager2@@PBD0@Z 100331b0 f i Interfaces.obj
 0001:00032250       ??$FindClass@VISurface@@@interfaces@@YAPAVISurface@@V?$basic_string@DU?$char_traits@D@std@@V?$allocator@D@2@@std@@0_N@Z 10033250 f i Interfaces.obj
 0001:000323e0       ??$FindClass@VIEngineTrace@@@interfaces@@YAPAVIEngineTrace@@V?$basic_string@DU?$char_traits@D@std@@V?$allocator@D@2@@std@@0_N@Z 100333e0 f i Interfaces.obj
 0001:00032570       ??$FindClass@VIPhysicsSurfaceProps@@@interfaces@@YAPAVIPhysicsSurfaceProps@@V?$basic_string@DU?$char_traits@D@std@@V?$allocator@D@2@@std@@0_N@Z 10033570 f i Interfaces.obj
 0001:00032700       ??$FindClass@VICVar@@@interfaces@@YAPAVICVar@@V?$basic_string@DU?$char_traits@D@std@@V?$allocator@D@2@@std@@0_N@Z 10033700 f i Interfaces.obj
 0001:00032890       ??$FindClass@VIPanel@@@interfaces@@YAPAVIPanel@@V?$basic_string@DU?$char_traits@D@std@@V?$allocator@D@2@@std@@0_N@Z 10033890 f i Interfaces.obj
 0001:00032a20       ??$FindClass@VIVModelInfo@@@interfaces@@YAPAVIVModelInfo@@V?$basic_string@DU?$char_traits@D@std@@V?$allocator@D@2@@std@@0_N@Z 10033a20 f i Interfaces.obj
 0001:00032bb0       ??$FindClass@VCModelRender@@@interfaces@@YAPAVCModelRender@@V?$basic_string@DU?$char_traits@D@std@@V?$allocator@D@2@@std@@0_N@Z 10033bb0 f i Interfaces.obj
 0001:00032d40       ??$FindClass@VIMaterialSystem@@@interfaces@@YAPAVIMaterialSystem@@V?$basic_string@DU?$char_traits@D@std@@V?$allocator@D@2@@std@@0_N@Z 10033d40 f i Interfaces.obj
 0001:00032ed0       ??$FindClass@VIVRenderView@@@interfaces@@YAPAVIVRenderView@@V?$basic_string@DU?$char_traits@D@std@@V?$allocator@D@2@@std@@0_N@Z 10033ed0 f i Interfaces.obj
 0001:00033060       ??$sprintf_s@$0BAA@@@YAHAAY0BAA@DPBDZZ 10034060 f i Interfaces.obj
 0001:00033090       ?fpclassify@@YAHM@Z        10034090 f i Math.obj
 0001:000330b0       ?round@@YAMM@Z             100340b0 f i Math.obj
 0001:000330d0       ?DotProduct@@YAMABVVector@@0@Z 100340d0 f i Math.obj
 0001:00033120       ?CalcAngle@Math@@QAE?AVVector@@ABV2@0@Z 10034120 f   Math.obj
 0001:00033370       ?VectorTransform@Math@@QAEXVVector@@Vmatrix3x4_t@@AAV2@@Z 10034370 f   Math.obj
 0001:000335e0       ?VectorNormalize@Math@@QAEMAAVVector@@@Z 100345e0 f   Math.obj
 0001:00033650       ?AngleVectors@Math@@QAEXABVVector@@PAV2@@Z 10034650 f   Math.obj
 0001:00033750       ?NormalizeAngles@Math@@QAEXAAVVector@@@Z 10034750 f   Math.obj
 0001:00033800       ?NormalizeYaw@Math@@QAEMM@Z 10034800 f   Math.obj
 0001:000338a0       ?ClampAngles@Math@@QAEXAAVVector@@@Z 100348a0 f   Math.obj
 0001:00033940       ?Clamp@Math@@QAE_NAAVVector@@@Z 10034940 f   Math.obj
 0001:00033a30       ?GRD_TO_BOG@Math@@QAEMM@Z  10034a30 f   Math.obj
 0001:00033a60       ?Distance@Math@@QAEMVVector2D@@0@Z 10034a60 f   Math.obj
 0001:00033ac0       ??$isnan@M@@YA_NM@Z        10034ac0 f i Math.obj
 0001:00033b00       ??$isinf@M@@YA_NM@Z        10034b00 f i Math.obj
 0001:00033b40       ??0_Ref_count_base@std@@IAE@XZ 10034b40 f i NetvarManager.obj
 0001:00033b70       ?_Incref@_Ref_count_base@std@@QAEXXZ 10034b70 f i NetvarManager.obj
 0001:00033b90       ?_Get_deleter@_Ref_count_base@std@@UBEPAXABVtype_info@@@Z 10034b90 f i NetvarManager.obj
 0001:00033ba0       ?GetProp@RecvTable@@QAEPAVRecvProp@@H@Z 10034ba0 f i NetvarManager.obj
 0001:00033bc0       ?GetDataTable@RecvProp@@QBEPAVRecvTable@@XZ 10034bc0 f i NetvarManager.obj
 0001:00033be0       ?GetOffset@RecvProp@@QBEHXZ 10034be0 f i NetvarManager.obj
 0001:00033c00       ??0Node@NetvarTree@@QAE@H@Z 10034c00 f i NetvarManager.obj
 0001:00033c30       ??0NetvarTree@@QAE@XZ      10034c30 f   NetvarManager.obj
 0001:00033d10       ?PopulateNodes@NetvarTree@@AAEXPAVRecvTable@@PAV?$unordered_map@V?$basic_string@DU?$char_traits@D@std@@V?$allocator@D@2@@std@@V?$shared_ptr@UNode@NetvarTree@@@2@U?$hash@V?$basic_string@DU?$char_traits@D@std@@V?$allocator@D@2@@std@@@2@U?$equal_to@V?$basic_string@DU?$char_traits@D@std@@V?$allocator@D@2@@std@@@2@V?$allocator@U?$pair@$$CBV?$basic_string@DU?$char_traits@D@std@@V?$allocator@D@2@@std@@V?$shared_ptr@UNode@NetvarTree@@@2@@std@@@2@@std@@@Z 10034d10 f   NetvarManager.obj
 0001:00033e00       ??0?$unordered_map@V?$basic_string@DU?$char_traits@D@std@@V?$allocator@D@2@@std@@V?$shared_ptr@UNode@NetvarTree@@@2@U?$hash@V?$basic_string@DU?$char_traits@D@std@@V?$allocator@D@2@@std@@@2@U?$equal_to@V?$basic_string@DU?$char_traits@D@std@@V?$allocator@D@2@@std@@@2@V?$allocator@U?$pair@$$CBV?$basic_string@DU?$char_traits@D@std@@V?$allocator@D@2@@std@@V?$shared_ptr@UNode@NetvarTree@@@2@@std@@@2@@std@@QAE@XZ 10034e00 f i NetvarManager.obj
 0001:00033e40       ??0?$_Hash@V?$_Umap_traits@V?$basic_string@DU?$char_traits@D@std@@V?$allocator@D@2@@std@@V?$shared_ptr@UNode@NetvarTree@@@2@V?$_Uhash_compare@V?$basic_string@DU?$char_traits@D@std@@V?$allocator@D@2@@std@@U?$hash@V?$basic_string@DU?$char_traits@D@std@@V?$allocator@D@2@@std@@@2@U?$equal_to@V?$basic_string@DU?$char_traits@D@std@@V?$allocator@D@2@@std@@@2@@2@V?$allocator@U?$pair@$$CBV?$basic_string@DU?$char_traits@D@std@@V?$allocator@D@2@@std@@V?$shared_ptr@UNode@NetvarTree@@@2@@std@@@2@$0A@@std@@@std@@QAE@ABV?$_Uhash_compare@V?$basic_string@DU?$char_traits@D@std@@V?$allocator@D@2@@std@@U?$hash@V?$basic_string@DU?$char_traits@D@std@@V?$allocator@D@2@@std@@@2@U?$equal_to@V?$basic_string@DU?$char_traits@D@std@@V?$allocator@D@2@@std@@@2@@1@ABV?$allocator@U?$pair@$$CBV?$basic_string@DU?$char_traits@D@std@@V?$allocator@D@2@@std@@V?$shared_ptr@UNode@NetvarTree@@@2@@std@@@1@@Z 10034e40 f i NetvarManager.obj
 0001:00033ef0       ??0?$_Uhash_compare@V?$basic_string@DU?$char_traits@D@std@@V?$allocator@D@2@@std@@U?$hash@V?$basic_string@DU?$char_traits@D@std@@V?$allocator@D@2@@std@@@2@U?$equal_to@V?$basic_string@DU?$char_traits@D@std@@V?$allocator@D@2@@std@@@2@@std@@QAE@U?$hash@V?$basic_string@DU?$char_traits@D@std@@V?$allocator@D@2@@std@@@1@U?$equal_to@V?$basic_string@DU?$char_traits@D@std@@V?$allocator@D@2@@std@@@1@@Z 10034ef0 f i NetvarManager.obj
 0001:00033f30       ??0?$vector@V?$_List_unchecked_iterator@V?$_List_val@U?$_List_simple_types@U?$pair@$$CBV?$basic_string@DU?$char_traits@D@std@@V?$allocator@D@2@@std@@V?$shared_ptr@UNode@NetvarTree@@@2@@std@@@std@@@std@@@std@@V?$allocator@V?$_List_unchecked_iterator@V?$_List_val@U?$_List_simple_types@U?$pair@$$CBV?$basic_string@DU?$char_traits@D@std@@V?$allocator@D@2@@std@@V?$shared_ptr@UNode@NetvarTree@@@2@@std@@@std@@@std@@@std@@@2@@std@@QAE@ABV?$allocator@V?$_List_unchecked_iterator@V?$_List_val@U?$_List_simple_types@U?$pair@$$CBV?$basic_string@DU?$char_traits@D@std@@V?$allocator@D@2@@std@@V?$shared_ptr@UNode@NetvarTree@@@2@@std@@@std@@@std@@@std@@@1@@Z 10034f30 f i NetvarManager.obj
 0001:00033f70       ??0?$list@U?$pair@$$CBV?$basic_string@DU?$char_traits@D@std@@V?$allocator@D@2@@std@@V?$shared_ptr@UNode@NetvarTree@@@2@@std@@V?$allocator@U?$pair@$$CBV?$basic_string@DU?$char_traits@D@std@@V?$allocator@D@2@@std@@V?$shared_ptr@UNode@NetvarTree@@@2@@std@@@2@@std@@QAE@ABV?$allocator@U?$pair@$$CBV?$basic_string@DU?$char_traits@D@std@@V?$allocator@D@2@@std@@V?$shared_ptr@UNode@NetvarTree@@@2@@std@@@1@@Z 10034f70 f i NetvarManager.obj
 0001:00033f90       ??0?$_Umap_traits@V?$basic_string@DU?$char_traits@D@std@@V?$allocator@D@2@@std@@V?$shared_ptr@UNode@NetvarTree@@@2@V?$_Uhash_compare@V?$basic_string@DU?$char_traits@D@std@@V?$allocator@D@2@@std@@U?$hash@V?$basic_string@DU?$char_traits@D@std@@V?$allocator@D@2@@std@@@2@U?$equal_to@V?$basic_string@DU?$char_traits@D@std@@V?$allocator@D@2@@std@@@2@@2@V?$allocator@U?$pair@$$CBV?$basic_string@DU?$char_traits@D@std@@V?$allocator@D@2@@std@@V?$shared_ptr@UNode@NetvarTree@@@2@@std@@@2@$0A@@std@@QAE@ABV?$_Uhash_compare@V?$basic_string@DU?$char_traits@D@std@@V?$allocator@D@2@@std@@U?$hash@V?$basic_string@DU?$char_traits@D@std@@V?$allocator@D@2@@std@@@2@U?$equal_to@V?$basic_string@DU?$char_traits@D@std@@V?$allocator@D@2@@std@@@2@@1@@Z 10034f90 f i NetvarManager.obj
 0001:00033fb0       ??$make_shared@UNode@NetvarTree@@H@std@@YA?AV?$shared_ptr@UNode@NetvarTree@@@0@$$QAH@Z 10034fb0 f i NetvarManager.obj
 0001:00034080       ??$emplace@PBDABV?$shared_ptr@UNode@NetvarTree@@@std@@@?$_Hash@V?$_Umap_traits@V?$basic_string@DU?$char_traits@D@std@@V?$allocator@D@2@@std@@V?$shared_ptr@UNode@NetvarTree@@@2@V?$_Uhash_compare@V?$basic_string@DU?$char_traits@D@std@@V?$allocator@D@2@@std@@U?$hash@V?$basic_string@DU?$char_traits@D@std@@V?$allocator@D@2@@std@@@2@U?$equal_to@V?$basic_string@DU?$char_traits@D@std@@V?$allocator@D@2@@std@@@2@@2@V?$allocator@U?$pair@$$CBV?$basic_string@DU?$char_traits@D@std@@V?$allocator@D@2@@std@@V?$shared_ptr@UNode@NetvarTree@@@2@@std@@@2@$0A@@std@@@std@@QAE?AU?$pair@V?$_List_iterator@V?$_List_val@U?$_List_simple_types@U?$pair@$$CBV?$basic_string@DU?$char_traits@D@std@@V?$allocator@D@2@@std@@V?$shared_ptr@UNode@NetvarTree@@@2@@std@@@std@@@std@@@std@@_N@1@$$QAPBDABV?$shared_ptr@UNode@NetvarTree@@@1@@Z 10035080 f i NetvarManager.obj
 0001:00034100       ??$emplace_front@PBDABV?$shared_ptr@UNode@NetvarTree@@@std@@@?$list@U?$pair@$$CBV?$basic_string@DU?$char_traits@D@std@@V?$allocator@D@2@@std@@V?$shared_ptr@UNode@NetvarTree@@@2@@std@@V?$allocator@U?$pair@$$CBV?$basic_string@DU?$char_traits@D@std@@V?$allocator@D@2@@std@@V?$shared_ptr@UNode@NetvarTree@@@2@@std@@@2@@std@@QAEAAU?$pair@$$CBV?$basic_string@DU?$char_traits@D@std@@V?$allocator@D@2@@std@@V?$shared_ptr@UNode@NetvarTree@@@2@@1@$$QAPBDABV?$shared_ptr@UNode@NetvarTree@@@1@@Z 10035100 f i NetvarManager.obj
 0001:00034170       ??$?0AAU?$hash@V?$basic_string@DU?$char_traits@D@std@@V?$allocator@D@2@@std@@@std@@U_One_then_variadic_args_t@1@AAU?$equal_to@V?$basic_string@DU?$char_traits@D@std@@V?$allocator@D@2@@std@@@1@M@?$_Compressed_pair@U?$hash@V?$basic_string@DU?$char_traits@D@std@@V?$allocator@D@2@@std@@@std@@V?$_Compressed_pair@U?$equal_to@V?$basic_string@DU?$char_traits@D@std@@V?$allocator@D@2@@std@@@std@@M$00@2@$00@std@@QAE@U_One_then_variadic_args_t@1@AAU?$hash@V?$basic_string@DU?$char_traits@D@std@@V?$allocator@D@2@@std@@@1@$$QAU21@AAU?$equal_to@V?$basic_string@DU?$char_traits@D@std@@V?$allocator@D@2@@std@@@1@$$QAM@Z 10035170 f i NetvarManager.obj
 0001:000341e0       ??$?0ABV?$allocator@U?$pair@$$CBV?$basic_string@DU?$char_traits@D@std@@V?$allocator@D@2@@std@@V?$shared_ptr@UNode@NetvarTree@@@2@@std@@@std@@X@?$_List_buy@U?$pair@$$CBV?$basic_string@DU?$char_traits@D@std@@V?$allocator@D@2@@std@@V?$shared_ptr@UNode@NetvarTree@@@2@@std@@V?$allocator@U?$pair@$$CBV?$basic_string@DU?$char_traits@D@std@@V?$allocator@D@2@@std@@V?$shared_ptr@UNode@NetvarTree@@@2@@std@@@2@@std@@QAE@ABV?$allocator@U?$pair@$$CBV?$basic_string@DU?$char_traits@D@std@@V?$allocator@D@2@@std@@V?$shared_ptr@UNode@NetvarTree@@@2@@std@@@1@@Z 100351e0 f i NetvarManager.obj
 0001:00034210       ?_Delete_this@?$_Ref_count_obj@UNode@NetvarTree@@@std@@EAEXXZ 10035210 f i NetvarManager.obj
 0001:00034250       ?_Destroy@?$_Ref_count_obj@UNode@NetvarTree@@@std@@EAEXXZ 10035250 f i NetvarManager.obj
 0001:000342a0       ?_Getptr@?$_Ref_count_obj@UNode@NetvarTree@@@std@@QAEPAUNode@NetvarTree@@XZ 100352a0 f i NetvarManager.obj
 0001:000342c0       ??0?$shared_ptr@UNode@NetvarTree@@@std@@QAE@$$QAV01@@Z 100352c0 f i NetvarManager.obj
 0001:00034310       ??_GNode@NetvarTree@@QAEPAXI@Z 10035310 f i NetvarManager.obj
 0001:00034340       ??$?0H@?$_Ref_count_obj@UNode@NetvarTree@@@std@@QAE@$$QAH@Z 10035340 f i NetvarManager.obj
 0001:000343d0       ??$_Set_ptr_rep_and_enable_shared@UNode@NetvarTree@@@?$shared_ptr@UNode@NetvarTree@@@std@@AAEXPAUNode@NetvarTree@@PAV_Ref_count_base@1@@Z 100353d0 f i NetvarManager.obj
 0001:00034400       ??$_Insert@PBDABV?$shared_ptr@UNode@NetvarTree@@@std@@@?$list@U?$pair@$$CBV?$basic_string@DU?$char_traits@D@std@@V?$allocator@D@2@@std@@V?$shared_ptr@UNode@NetvarTree@@@2@@std@@V?$allocator@U?$pair@$$CBV?$basic_string@DU?$char_traits@D@std@@V?$allocator@D@2@@std@@V?$shared_ptr@UNode@NetvarTree@@@2@@std@@@2@@std@@QAEXV?$_List_unchecked_const_iterator@V?$_List_val@U?$_List_simple_types@U?$pair@$$CBV?$basic_string@DU?$char_traits@D@std@@V?$allocator@D@2@@std@@V?$shared_ptr@UNode@NetvarTree@@@2@@std@@@std@@@std@@U_Iterator_base0@2@@1@$$QAPBDABV?$shared_ptr@UNode@NetvarTree@@@1@@Z 10035400 f i NetvarManager.obj
 0001:00034480       ??$?0AAU?$equal_to@V?$basic_string@DU?$char_traits@D@std@@V?$allocator@D@2@@std@@@std@@M@?$_Compressed_pair@U?$equal_to@V?$basic_string@DU?$char_traits@D@std@@V?$allocator@D@2@@std@@@std@@M$00@std@@QAE@U_One_then_variadic_args_t@1@AAU?$equal_to@V?$basic_string@DU?$char_traits@D@std@@V?$allocator@D@2@@std@@@1@$$QAM@Z 10035480 f i NetvarManager.obj
 0001:000344b0       ??$?0ABV?$allocator@U?$pair@$$CBV?$basic_string@DU?$char_traits@D@std@@V?$allocator@D@2@@std@@V?$shared_ptr@UNode@NetvarTree@@@2@@std@@@std@@X@?$_List_alloc@U?$_List_base_types@U?$pair@$$CBV?$basic_string@DU?$char_traits@D@std@@V?$allocator@D@2@@std@@V?$shared_ptr@UNode@NetvarTree@@@2@@std@@V?$allocator@U?$pair@$$CBV?$basic_string@DU?$char_traits@D@std@@V?$allocator@D@2@@std@@V?$shared_ptr@UNode@NetvarTree@@@2@@std@@@2@@std@@@std@@QAE@ABV?$allocator@U?$pair@$$CBV?$basic_string@DU?$char_traits@D@std@@V?$allocator@D@2@@std@@V?$shared_ptr@UNode@NetvarTree@@@2@@std@@@1@@Z 100354b0 f i NetvarManager.obj
 0001:00034510       ??$_Move_construct_from@UNode@NetvarTree@@@?$_Ptr_base@UNode@NetvarTree@@@std@@IAEX$$QAV01@@Z 10035510 f i NetvarManager.obj
 0001:00034550       ??_G?$_Ref_count_obj@UNode@NetvarTree@@@std@@UAEPAXI@Z 10035550 f i NetvarManager.obj
 0001:00034550       ??_E?$_Ref_count_obj@UNode@NetvarTree@@@std@@UAEPAXI@Z 10035550 f i * CIL library *:* CIL module *
 0001:00034580       ?_Set_ptr_rep@?$_Ptr_base@UNode@NetvarTree@@@std@@IAEXPAUNode@NetvarTree@@PAV_Ref_count_base@2@@Z 10035580 f i NetvarManager.obj
 0001:000345a0       ?_Buyheadnode@?$_List_alloc@U?$_List_base_types@U?$pair@$$CBV?$basic_string@DU?$char_traits@D@std@@V?$allocator@D@2@@std@@V?$shared_ptr@UNode@NetvarTree@@@2@@std@@V?$allocator@U?$pair@$$CBV?$basic_string@DU?$char_traits@D@std@@V?$allocator@D@2@@std@@V?$shared_ptr@UNode@NetvarTree@@@2@@std@@@2@@std@@@std@@QAEPAU?$_List_node@U?$pair@$$CBV?$basic_string@DU?$char_traits@D@std@@V?$allocator@D@2@@std@@V?$shared_ptr@UNode@NetvarTree@@@2@@std@@PAX@2@XZ 100355a0 f i NetvarManager.obj
 0001:000345c0       ??$_Enable_shared_from_this@UNode@NetvarTree@@U12@@std@@YAXABV?$shared_ptr@UNode@NetvarTree@@@0@PAUNode@NetvarTree@@@Z 100355c0 f i NetvarManager.obj
 0001:000345f0       ??$_Buynode@PBDABV?$shared_ptr@UNode@NetvarTree@@@std@@@?$_List_buy@U?$pair@$$CBV?$basic_string@DU?$char_traits@D@std@@V?$allocator@D@2@@std@@V?$shared_ptr@UNode@NetvarTree@@@2@@std@@V?$allocator@U?$pair@$$CBV?$basic_string@DU?$char_traits@D@std@@V?$allocator@D@2@@std@@V?$shared_ptr@UNode@NetvarTree@@@2@@std@@@2@@std@@QAEPAU?$_List_node@U?$pair@$$CBV?$basic_string@DU?$char_traits@D@std@@V?$allocator@D@2@@std@@V?$shared_ptr@UNode@NetvarTree@@@2@@std@@PAX@1@PAU21@0$$QAPBDABV?$shared_ptr@UNode@NetvarTree@@@1@@Z 100355f0 f i NetvarManager.obj
 0001:000346d0       ??$?0ABV?$allocator@U?$pair@$$CBV?$basic_string@DU?$char_traits@D@std@@V?$allocator@D@2@@std@@V?$shared_ptr@UNode@NetvarTree@@@2@@std@@@std@@$$V@?$_Compressed_pair@V?$allocator@U?$_List_node@U?$pair@$$CBV?$basic_string@DU?$char_traits@D@std@@V?$allocator@D@2@@std@@V?$shared_ptr@UNode@NetvarTree@@@2@@std@@PAX@std@@@std@@V?$_List_val@U?$_List_simple_types@U?$pair@$$CBV?$basic_string@DU?$char_traits@D@std@@V?$allocator@D@2@@std@@V?$shared_ptr@UNode@NetvarTree@@@2@@std@@@std@@@2@$00@std@@QAE@U_One_then_variadic_args_t@1@ABV?$allocator@U?$pair@$$CBV?$basic_string@DU?$char_traits@D@std@@V?$allocator@D@2@@std@@V?$shared_ptr@UNode@NetvarTree@@@2@@std@@@1@@Z 100356d0 f i NetvarManager.obj
 0001:00034700       ??$construct@U?$pair@$$CBV?$basic_string@DU?$char_traits@D@std@@V?$allocator@D@2@@std@@V?$shared_ptr@UNode@NetvarTree@@@2@@std@@PBDABV?$shared_ptr@UNode@NetvarTree@@@2@@?$_Default_allocator_traits@V?$allocator@U?$_List_node@U?$pair@$$CBV?$basic_string@DU?$char_traits@D@std@@V?$allocator@D@2@@std@@V?$shared_ptr@UNode@NetvarTree@@@2@@std@@PAX@std@@@std@@@std@@SAXAAV?$allocator@U?$_List_node@U?$pair@$$CBV?$basic_string@DU?$char_traits@D@std@@V?$allocator@D@2@@std@@V?$shared_ptr@UNode@NetvarTree@@@2@@std@@PAX@std@@@1@QAU?$pair@$$CBV?$basic_string@DU?$char_traits@D@std@@V?$allocator@D@2@@std@@V?$shared_ptr@UNode@NetvarTree@@@2@@1@$$QAPBDABV?$shared_ptr@UNode@NetvarTree@@@1@@Z 10035700 f i NetvarManager.obj
 0001:00034750       ??$?0PBDABV?$shared_ptr@UNode@NetvarTree@@@std@@$0A@@?$pair@$$CBV?$basic_string@DU?$char_traits@D@std@@V?$allocator@D@2@@std@@V?$shared_ptr@UNode@NetvarTree@@@2@@std@@QAE@$$QAPBDABV?$shared_ptr@UNode@NetvarTree@@@1@@Z 10035750 f i NetvarManager.obj
 0001:000347a0       ??0?$shared_ptr@UNode@NetvarTree@@@std@@QAE@ABV01@@Z 100357a0 f i NetvarManager.obj
 0001:000347f0       ??$_Copy_construct_from@UNode@NetvarTree@@@?$_Ptr_base@UNode@NetvarTree@@@std@@IAEXABV?$shared_ptr@UNode@NetvarTree@@@1@@Z 100357f0 f i NetvarManager.obj
 0001:00034830       ??YVector2D@@QAEAAV0@ABV0@@Z 10035830 f i ESP.obj
 0001:00034870       ??ZVector2D@@QAEAAV0@ABV0@@Z 10035870 f i ESP.obj
 0001:000348b0       ?WorldToScreen@Utils@@SA_NABVVector@@AAVVector2D@@@Z 100358b0 f i ESP.obj
 0001:00034960       ??R<lambda_498009bf6358dc471fbe163595f67980>@@QBE_NXZ 10035960 f i ESP.obj
 0001:00034c00       ?duck_amount@C_BaseEntity@@QAEHXZ 10035c00 f i ESP.obj
 0001:00034cb0       ?GetAmmo@C_BaseCombatWeapon@@QAEHXZ 10035cb0 f i ESP.obj
 0001:00034d60       ?m_iPrimaryReserveAmmoCount@C_BaseCombatWeapon@@QAEHXZ 10035d60 f i ESP.obj
 0001:00034e10       ??0Vertex_t@@QAE@ABVVector2D@@0@Z 10035e10 f i ESP.obj
 0001:00034e50       ??0ESP@@QAE@XZ             10035e50 f i ESP.obj
 0001:00034e80       ?clean_name@@YA?AV?$basic_string@DU?$char_traits@D@std@@V?$allocator@D@2@@std@@V12@@Z 10035e80 f   ESP.obj
 0001:00034fc0       ?RenderBox@ESP@@AAEXHH@Z   10035fc0 f   ESP.obj
 0001:00035270       ?rotate_arrow@@YAXAAV?$array@VVector2D@@$02@std@@M@Z 10036270 f   ESP.obj
 0001:000353d0       ?draw_filled_triangle@@YAXV?$array@VVector2D@@$02@std@@UColor@@@Z 100363d0 f   ESP.obj
 0001:000354d0       ?fov_arrow@ESP@@AAEXPAVC_BaseEntity@@H@Z 100364d0 f   ESP.obj
 0001:00035a10       ??0?$array@VVector2D@@$02@std@@QAE@ABV01@@Z 10036a10 f i ESP.obj
 0001:00035a40       ??__G@YGXPAX0IIP6EPAX00@Z@Z 10036a40 f i ESP.obj
 0001:00035a90       ?RenderName@ESP@@AAEXPAVC_BaseEntity@@HHH@Z 10036a90 f   ESP.obj
 0001:00035bd0       ?RenderWeaponName@ESP@@AAEXPAVC_BaseEntity@@HH@Z 10036bd0 f   ESP.obj
 0001:00035f00       ?RenderHealth@ESP@@AAEXPAVC_BaseEntity@@HH@Z 10036f00 f   ESP.obj
 0001:000364b0       ?ammo@ESP@@AAEXPAVC_BaseEntity@@HH@Z 100374b0 f   ESP.obj
 0001:00036850       ?player_flags@ESP@@AAEXPAVC_BaseEntity@@HH@Z 10037850 f   ESP.obj
 0001:00036c90       ?BoundBox@ESP@@AAEXPAVC_BaseEntity@@HH@Z 10037c90 f   ESP.obj
 0001:00036e00       ?RenderSkeleton@ESP@@AAEXPAVC_BaseEntity@@@Z 10037e00 f   ESP.obj
 0001:000376e0       ?Render@ESP@@QAEXXZ        100386e0 f   ESP.obj
 0001:00037b00       ?at@?$array@VVector2D@@$02@std@@QAEAAVVector2D@@I@Z 10038b00 f i ESP.obj
 0001:00037b30       ?_Unchecked_end@?$array@VVector2D@@$02@std@@QAEPAVVector2D@@XZ 10038b30 f i ESP.obj
 0001:00037b50       ?push_back@?$vector@V?$basic_string@DU?$char_traits@D@std@@V?$allocator@D@2@@std@@V?$allocator@V?$basic_string@DU?$char_traits@D@std@@V?$allocator@D@2@@std@@@2@@std@@QAEX$$QAV?$basic_string@DU?$char_traits@D@std@@V?$allocator@D@2@@2@@Z 10038b50 f i ESP.obj
 0001:00037b80       ??$emplace_back@V?$basic_string@DU?$char_traits@D@std@@V?$allocator@D@2@@std@@@?$vector@V?$basic_string@DU?$char_traits@D@std@@V?$allocator@D@2@@std@@V?$allocator@V?$basic_string@DU?$char_traits@D@std@@V?$allocator@D@2@@std@@@2@@std@@QAEAAV?$basic_string@DU?$char_traits@D@std@@V?$allocator@D@2@@1@$$QAV21@@Z 10038b80 f i ESP.obj
 0001:00037bf0       ??$_Emplace_back_with_unused_capacity@V?$basic_string@DU?$char_traits@D@std@@V?$allocator@D@2@@std@@@?$vector@V?$basic_string@DU?$char_traits@D@std@@V?$allocator@D@2@@std@@V?$allocator@V?$basic_string@DU?$char_traits@D@std@@V?$allocator@D@2@@std@@@2@@std@@AAEAAV?$basic_string@DU?$char_traits@D@std@@V?$allocator@D@2@@1@$$QAV21@@Z 10038bf0 f i ESP.obj
 0001:00037ca0       ?end@?$basic_string@DU?$char_traits@D@std@@V?$allocator@D@2@@std@@QAE?AV?$_String_iterator@V?$_String_val@U?$_Simple_types@D@std@@@std@@@2@XZ 10038ca0 f i ESP.obj
 0001:00037d10       ?_Xran@?$array@VVector2D@@$02@std@@QBEXXZ 10038d10 f i ESP.obj
 0001:00037d30       ??$_Get_unwrapped@V?$_String_iterator@V?$_String_val@U?$_Simple_types@D@std@@@std@@@std@@$0A@@std@@YAPADABV?$_String_iterator@V?$_String_val@U?$_Simple_types@D@std@@@std@@@0@@Z 10038d30 f i ESP.obj
 0001:00037d40       ??$transform@V?$_String_iterator@V?$_String_val@U?$_Simple_types@D@std@@@std@@@std@@V12@P6AHH@Z@std@@YA?AV?$_String_iterator@V?$_String_val@U?$_Simple_types@D@std@@@std@@@0@V10@0V10@P6AHH@Z@Z 10038d40 f i ESP.obj
 0001:00037df0       ??$_Idl_distance@V?$_String_iterator@V?$_String_val@U?$_Simple_types@D@std@@@std@@@std@@PAD@std@@YAHABQAD0@Z 10038df0 f i ESP.obj
 0001:00037e00       ??$_Get_unwrapped_n@V?$_String_iterator@V?$_String_val@U?$_Simple_types@D@std@@@std@@@std@@H$0A@@std@@YAPADABV?$_String_iterator@V?$_String_val@U?$_Simple_types@D@std@@@std@@@0@H@Z 10038e00 f i ESP.obj
 0001:00037e30       ??$sprintf_s@$0CAH@@@YAHAAY0CAH@DPBDZZ 10038e30 f i ESP.obj
 0001:00037e60       ??$construct@V?$basic_string@DU?$char_traits@D@std@@V?$allocator@D@2@@std@@V12@@?$_Default_allocator_traits@V?$allocator@V?$basic_string@DU?$char_traits@D@std@@V?$allocator@D@2@@std@@@std@@@std@@SAXAAV?$allocator@V?$basic_string@DU?$char_traits@D@std@@V?$allocator@D@2@@std@@@1@QAV?$basic_string@DU?$char_traits@D@std@@V?$allocator@D@2@@1@$$QAV31@@Z 10038e60 f i ESP.obj
 0001:00037ea0       ??$_Emplace_reallocate@V?$basic_string@DU?$char_traits@D@std@@V?$allocator@D@2@@std@@@?$vector@V?$basic_string@DU?$char_traits@D@std@@V?$allocator@D@2@@std@@V?$allocator@V?$basic_string@DU?$char_traits@D@std@@V?$allocator@D@2@@std@@@2@@std@@QAEPAV?$basic_string@DU?$char_traits@D@std@@V?$allocator@D@2@@1@QAV21@$$QAV21@@Z 10038ea0 f i ESP.obj
 0001:00038090       ?_Change_array@?$vector@V?$basic_string@DU?$char_traits@D@std@@V?$allocator@D@2@@std@@V?$allocator@V?$basic_string@DU?$char_traits@D@std@@V?$allocator@D@2@@std@@@2@@std@@AAEXQAV?$basic_string@DU?$char_traits@D@std@@V?$allocator@D@2@@2@II@Z 10039090 f i ESP.obj
 0001:00038150       ?_Calculate_growth@?$vector@V?$basic_string@DU?$char_traits@D@std@@V?$allocator@D@2@@std@@V?$allocator@V?$basic_string@DU?$char_traits@D@std@@V?$allocator@D@2@@std@@@2@@std@@ABEII@Z 10039150 f i ESP.obj
 0001:000381a0       ?_Umove_if_noexcept@?$vector@V?$basic_string@DU?$char_traits@D@std@@V?$allocator@D@2@@std@@V?$allocator@V?$basic_string@DU?$char_traits@D@std@@V?$allocator@D@2@@std@@@2@@std@@AAEXPAV?$basic_string@DU?$char_traits@D@std@@V?$allocator@D@2@@2@00@Z 100391a0 f i ESP.obj
 0001:000381d0       ?_Umove@?$vector@V?$basic_string@DU?$char_traits@D@std@@V?$allocator@D@2@@std@@V?$allocator@V?$basic_string@DU?$char_traits@D@std@@V?$allocator@D@2@@std@@@2@@std@@AAEPAV?$basic_string@DU?$char_traits@D@std@@V?$allocator@D@2@@2@PAV32@00@Z 100391d0 f i ESP.obj
 0001:00038200       ?_Unwrapped@?$_String_iterator@V?$_String_val@U?$_Simple_types@D@std@@@std@@@std@@QBEPADXZ 10039200 f i ESP.obj
 0001:00038220       ?_Umove_if_noexcept1@?$vector@V?$basic_string@DU?$char_traits@D@std@@V?$allocator@D@2@@std@@V?$allocator@V?$basic_string@DU?$char_traits@D@std@@V?$allocator@D@2@@std@@@2@@std@@AAEXPAV?$basic_string@DU?$char_traits@D@std@@V?$allocator@D@2@@2@00U?$integral_constant@_N$00@2@@Z 10039220 f i ESP.obj
 0001:00038250       ??$_Seek_wrapped@V?$_String_iterator@V?$_String_val@U?$_Simple_types@D@std@@@std@@@std@@PAD@std@@YAXAAV?$_String_iterator@V?$_String_val@U?$_Simple_types@D@std@@@std@@@0@ABQAD@Z 10039250 f i ESP.obj
 0001:00038270       ??$_Uninitialized_move@PAV?$basic_string@DU?$char_traits@D@std@@V?$allocator@D@2@@std@@PAV12@V?$allocator@V?$basic_string@DU?$char_traits@D@std@@V?$allocator@D@2@@std@@@2@@std@@YAPAV?$basic_string@DU?$char_traits@D@std@@V?$allocator@D@2@@0@QAV10@0PAV10@AAV?$allocator@V?$basic_string@DU?$char_traits@D@std@@V?$allocator@D@2@@std@@@0@@Z 10039270 f i ESP.obj
 0001:00038330       ?_Seek_to@?$_String_const_iterator@V?$_String_val@U?$_Simple_types@D@std@@@std@@@std@@QAEXPBD@Z 10039330 f i ESP.obj
 0001:00038350       ??$_Uninitialized_move_al_unchecked@PAV?$basic_string@DU?$char_traits@D@std@@V?$allocator@D@2@@std@@PAV12@V?$allocator@V?$basic_string@DU?$char_traits@D@std@@V?$allocator@D@2@@std@@@2@@std@@YAPAV?$basic_string@DU?$char_traits@D@std@@V?$allocator@D@2@@0@PAV10@QAV10@1AAV?$allocator@V?$basic_string@DU?$char_traits@D@std@@V?$allocator@D@2@@std@@@0@U_General_ptr_iterator_tag@0@U_Unused_parameter@0@@Z 10039350 f i ESP.obj
 0001:000383e0       ??$_Emplace_back@V?$basic_string@DU?$char_traits@D@std@@V?$allocator@D@2@@std@@@?$_Uninitialized_backout_al@PAV?$basic_string@DU?$char_traits@D@std@@V?$allocator@D@2@@std@@V?$allocator@V?$basic_string@DU?$char_traits@D@std@@V?$allocator@D@2@@std@@@2@@std@@QAEX$$QAV?$basic_string@DU?$char_traits@D@std@@V?$allocator@D@2@@1@@Z 100393e0 f i ESP.obj
 0001:00038440       ?SetCurrentCommand@C_BaseEntity@@QAEXPAVCUserCmd@@@Z 10039440 f i engine_prediction.obj
 0001:00038500       ?AccuracyPenalty@C_BaseCombatWeapon@@QAEXXZ 10039500 f i engine_prediction.obj
 0001:00038530       ?SetHost@IMoveHelper@@QAEXPAVC_BaseEntity@@@Z 10039530 f i engine_prediction.obj
 0001:00038550       ?RunEnginePred@engine_prediction@@YAXXZ 10039550 f   engine_prediction.obj
 0001:00038780       ?EndEnginePred@engine_prediction@@YAXXZ 10039780 f   engine_prediction.obj
 0001:00038840       ??$CallVFunc@$00XPAVC_BaseEntity@@@Utils@@SAXPAXPAVC_BaseEntity@@@Z 10039840 f i engine_prediction.obj
 0001:0003888c       ??$__crt_fast_encode_pointer@P6GHPAU_RTL_CONDITION_VARIABLE@@PAU_RTL_CRITICAL_SECTION@@K@Z@@YAP6GHPAU_RTL_CONDITION_VARIABLE@@PAU_RTL_CRITICAL_SECTION@@K@ZQ6GH01K@Z@Z 1003988c f i MSVCRT:thread_safe_statics.obj
 0001:0003888c       ??$__crt_fast_encode_pointer@P6GXPAU_RTL_CONDITION_VARIABLE@@@Z@@YAP6GXPAU_RTL_CONDITION_VARIABLE@@@ZQ6GX0@Z@Z 1003988c f i MSVCRT:thread_safe_statics.obj
 0001:000389b4       __Init_thread_abort        100399b4 f   MSVCRT:thread_safe_statics.obj
 0001:000389d8       __Init_thread_footer       100399d8 f   MSVCRT:thread_safe_statics.obj
 0001:00038a22       __Init_thread_header       10039a22 f   MSVCRT:thread_safe_statics.obj
 0001:00038a74       __Init_thread_notify       10039a74 f   MSVCRT:thread_safe_statics.obj
 0001:00038ab6       __Init_thread_wait         10039ab6 f   MSVCRT:thread_safe_statics.obj
 0001:00038b16       ??2@YAPAXI@Z               10039b16 f   MSVCRT:new_scalar.obj
 0001:00038b46       ??_M@YGXPAXIIP6EX0@Z@Z     10039b46 f   MSVCRT:ehvecdtr.obj
 0001:00038bcb       ?__ArrayUnwind@@YGXPAXIIP6EX0@Z@Z 10039bcb f   MSVCRT:ehvecdtr.obj
 0001:00038c88       ___scrt_acquire_startup_lock 10039c88 f   MSVCRT:utility.obj
 0001:00038cba       ___scrt_dllmain_after_initialize_c 10039cba f   MSVCRT:utility.obj
 0001:00038ce5       ___scrt_dllmain_before_initialize_c 10039ce5 f   MSVCRT:utility.obj
 0001:00038cf3       ___scrt_dllmain_crt_thread_attach 10039cf3 f   MSVCRT:utility.obj
 0001:00038d12       ___scrt_dllmain_crt_thread_detach 10039d12 f   MSVCRT:utility.obj
 0001:00038d1f       ___scrt_dllmain_exception_filter 10039d1f f   MSVCRT:utility.obj
 0001:00038d53       ___scrt_dllmain_uninitialize_c 10039d53 f   MSVCRT:utility.obj
 0001:00038d76       ___scrt_dllmain_uninitialize_critical 10039d76 f   MSVCRT:utility.obj
 0001:00038d83       ___scrt_initialize_crt     10039d83 f   MSVCRT:utility.obj
 0001:00038dbc       ___scrt_initialize_onexit_tables 10039dbc f   MSVCRT:utility.obj
 0001:00038e61       ___scrt_is_nonwritable_in_current_image 10039e61 f   MSVCRT:utility.obj
 0001:00038ef5       ___scrt_release_startup_lock 10039ef5 f   MSVCRT:utility.obj
 0001:00038f12       ___scrt_uninitialize_crt   10039f12 f   MSVCRT:utility.obj
 0001:00038f3a       __onexit                   10039f3a f   MSVCRT:utility.obj
 0001:00038f75       _atexit                    10039f75 f   MSVCRT:utility.obj
 0001:00038f8a       ??3@YAXPAXI@Z              10039f8a f   MSVCRT:delete_scalar_size.obj
 0001:00038f98       ??_L@YGXPAXIIP6EX0@Z1@Z    10039f98 f   MSVCRT:ehvecctr.obj
 0001:0003900c       ??_U@YAPAXI@Z              1003a00c f   MSVCRT:new_array.obj
 0001:00039015       ??_Etype_info@@UAEPAXI@Z   1003a015 f i MSVCRT:std_type_info_static.obj
 0001:00039015       ??_Gtype_info@@UAEPAXI@Z   1003a015 f i MSVCRT:std_type_info_static.obj
 0001:00039038       ??_V@YAXPAX@Z              1003a038 f   MSVCRT:delete_array.obj
 0001:0003935d       __DllMainCRTStartup@12     1003a35d f   MSVCRT:dll_dllmain.obj
 0001:00039380       ___scrt_fastfail           1003a380 f   MSVCRT:utility_desktop.obj
 0001:0003949a       __crt_debugger_hook        1003a49a f   MSVCRT:utility_desktop.obj
 0001:000394a2       @__security_check_cookie@4 1003a4a2 f   MSVCRT:secchk.obj
 0001:000394b3       @_guard_check_icall_nop@4  1003a4b3 f i MSVCRT:guard_support.obj
 0001:000394b4       ??0bad_alloc@std@@QAE@ABV01@@Z 1003a4b4 f i MSVCRT:throw_bad_alloc.obj
 0001:000394cf       ??0bad_alloc@std@@QAE@XZ   1003a4cf f i MSVCRT:throw_bad_alloc.obj
 0001:000394e7       ??0bad_array_new_length@std@@QAE@ABV01@@Z 1003a4e7 f i MSVCRT:throw_bad_alloc.obj
 0001:00039502       ??0bad_array_new_length@std@@QAE@XZ 1003a502 f i MSVCRT:throw_bad_alloc.obj
 0001:0003951a       ??1bad_array_new_length@std@@UAE@XZ 1003a51a f i MSVCRT:throw_bad_alloc.obj
 0001:0003951a       ??1bad_alloc@std@@UAE@XZ   1003a51a f i MSVCRT:throw_bad_alloc.obj
 0001:0003952b       ??_Ebad_array_new_length@std@@UAEPAXI@Z 1003a52b f i MSVCRT:throw_bad_alloc.obj
 0001:0003952b       ??_Gbad_alloc@std@@UAEPAXI@Z 1003a52b f i MSVCRT:throw_bad_alloc.obj
 0001:0003952b       ??_Gbad_array_new_length@std@@UAEPAXI@Z 1003a52b f i MSVCRT:throw_bad_alloc.obj
 0001:0003952b       ??_Ebad_alloc@std@@UAEPAXI@Z 1003a52b f i MSVCRT:throw_bad_alloc.obj
 0001:00039558       ?__scrt_throw_std_bad_alloc@@YAXXZ 1003a558 f   MSVCRT:throw_bad_alloc.obj
 0001:00039575       ?__scrt_throw_std_bad_array_new_length@@YAXXZ 1003a575 f   MSVCRT:throw_bad_alloc.obj
 0001:000395a0       __SEH_prolog4              1003a5a0 f   MSVCRT:sehprolg4.obj
 0001:000395e6       __SEH_epilog4              1003a5e6 f   MSVCRT:sehprolg4.obj
 0001:000395fb       __except_handler4          1003a5fb f   MSVCRT:chandler4gs.obj
 0001:0003961e       ___isa_available_init      1003a61e f   MSVCRT:cpu_disp.obj
 0001:000397b5       __get_startup_argv_mode    1003a7b5 f   MSVCRT:argv_mode.obj
 0001:000397b9       ___scrt_is_ucrt_dll_in_use 1003a7b9 f   MSVCRT:ucrt_detection.obj
 0001:000397c5       ??3@YAXPAX@Z               1003a7c5 f   MSVCRT:delete_scalar.obj
 0001:00039817       ___security_init_cookie    1003a817 f   MSVCRT:gs_support.obj
 0001:00039862       ?__scrt_initialize_type_info@@YAXXZ 1003a862 f   MSVCRT:tncleanup.obj
 0001:0003986e       ?__scrt_uninitialize_type_info@@YAXXZ 1003a86e f   MSVCRT:tncleanup.obj
 0001:0003987a       ___local_stdio_scanf_options 1003a87a f i MSVCRT:default_local_stdio_options.obj
 0001:00039880       ___scrt_initialize_default_local_stdio_options 1003a880 f   MSVCRT:default_local_stdio_options.obj
 0001:0003989d       ___scrt_get_dyn_tls_init_callback 1003a89d f   MSVCRT:dyn_tls_init.obj
 0001:000398a3       __RTC_Initialize           1003a8a3 f   MSVCRT:initsect.obj
 0001:000398cf       __RTC_Terminate            1003a8cf f   MSVCRT:initsect.obj
 0001:000398fb       ___raise_securityfailure   1003a8fb f   MSVCRT:gs_report.obj
 0001:00039923       ___report_gsfailure        1003a923 f   MSVCRT:gs_report.obj
 0001:00039a1c       ___CxxFrameHandler3        1003aa1c f   vcruntime:VCRUNTIME140.dll
 0001:00039a22       __purecall                 1003aa22 f   vcruntime:VCRUNTIME140.dll
 0001:00039a28       ___std_exception_destroy   1003aa28 f   vcruntime:VCRUNTIME140.dll
 0001:00039a2e       _memset                    1003aa2e f   vcruntime:VCRUNTIME140.dll
 0001:00039a34       __CxxThrowException@8      1003aa34 f   vcruntime:VCRUNTIME140.dll
 0001:00039a3a       __except_handler4_common   1003aa3a f   vcruntime:VCRUNTIME140.dll
 0001:00039a40       ___std_type_info_destroy_list 1003aa40 f   vcruntime:VCRUNTIME140.dll
 0001:00039a46       _malloc                    1003aa46 f   ucrt:api-ms-win-crt-heap-l1-1-0.dll
 0001:00039a4c       __callnewh                 1003aa4c f   ucrt:api-ms-win-crt-heap-l1-1-0.dll
 0001:00039a52       _terminate                 1003aa52 f   ucrt:api-ms-win-crt-runtime-l1-1-0.dll
 0001:00039a58       __seh_filter_dll           1003aa58 f   ucrt:api-ms-win-crt-runtime-l1-1-0.dll
 0001:00039a5e       __configure_narrow_argv    1003aa5e f   ucrt:api-ms-win-crt-runtime-l1-1-0.dll
 0001:00039a64       __initialize_narrow_environment 1003aa64 f   ucrt:api-ms-win-crt-runtime-l1-1-0.dll
 0001:00039a6a       __initialize_onexit_table  1003aa6a f   ucrt:api-ms-win-crt-runtime-l1-1-0.dll
 0001:00039a70       __register_onexit_function 1003aa70 f   ucrt:api-ms-win-crt-runtime-l1-1-0.dll
 0001:00039a76       __execute_onexit_table     1003aa76 f   ucrt:api-ms-win-crt-runtime-l1-1-0.dll
 0001:00039a7c       __crt_atexit               1003aa7c f   ucrt:api-ms-win-crt-runtime-l1-1-0.dll
 0001:00039a82       __cexit                    1003aa82 f   ucrt:api-ms-win-crt-runtime-l1-1-0.dll
 0001:00039a88       __initterm                 1003aa88 f   ucrt:api-ms-win-crt-runtime-l1-1-0.dll
 0001:00039a8e       __initterm_e               1003aa8e f   ucrt:api-ms-win-crt-runtime-l1-1-0.dll
 0001:00039a94       _free                      1003aa94 f   ucrt:api-ms-win-crt-heap-l1-1-0.dll
 0001:00039a9a       _IsProcessorFeaturePresent@4 1003aa9a f   kernel32:KERNEL32.dll
 0001:00039aa0       ___scrt_stub_for_acrt_uninitialize 1003aaa0 f   MSVCRT:ucrt_stubs.obj
 0001:00039aa0       ___vcrt_uninitialize_critical 1003aaa0 f   MSVCRT:ucrt_stubs.obj
 0001:00039aa0       ___vcrt_initialize         1003aaa0 f   MSVCRT:ucrt_stubs.obj
 0001:00039aa0       ___acrt_thread_attach      1003aaa0 f   MSVCRT:ucrt_stubs.obj
 0001:00039aa0       ___acrt_thread_detach      1003aaa0 f   MSVCRT:ucrt_stubs.obj
 0001:00039aa0       ___scrt_stub_for_acrt_thread_detach 1003aaa0 f   MSVCRT:ucrt_stubs.obj
 0001:00039aa0       ___vcrt_thread_detach      1003aaa0 f   MSVCRT:ucrt_stubs.obj
 0001:00039aa0       ___acrt_initialize         1003aaa0 f   MSVCRT:ucrt_stubs.obj
 0001:00039aa0       ___scrt_stub_for_acrt_uninitialize_critical 1003aaa0 f   MSVCRT:ucrt_stubs.obj
 0001:00039aa0       ___vcrt_uninitialize       1003aaa0 f   MSVCRT:ucrt_stubs.obj
 0001:00039aa0       ___scrt_stub_for_acrt_thread_attach 1003aaa0 f   MSVCRT:ucrt_stubs.obj
 0001:00039aa0       ___acrt_uninitialize_critical 1003aaa0 f   MSVCRT:ucrt_stubs.obj
 0001:00039aa0       ___vcrt_thread_attach      1003aaa0 f   MSVCRT:ucrt_stubs.obj
 0001:00039aa0       ___acrt_uninitialize       1003aaa0 f   MSVCRT:ucrt_stubs.obj
 0001:00039aa0       ___scrt_stub_for_acrt_initialize 1003aaa0 f   MSVCRT:ucrt_stubs.obj
 0001:00039aa3       __is_c_termination_complete 1003aaa3 f   MSVCRT:ucrt_stubs.obj
 0001:00039aa3       ___scrt_stub_for_is_c_termination_complete 1003aaa3 f   MSVCRT:ucrt_stubs.obj
 0001:00039ab0       __alldiv                   1003aab0 f   MSVCRT:lldiv.obj
 0001:00039b60       __allmul                   1003ab60 f   MSVCRT:llmul.obj
 0001:00039ba0       __chkstk                   1003aba0 f   MSVCRT:chkstk.obj
 0001:00039ba0       __alloca_probe             1003aba0 f   MSVCRT:chkstk.obj
 0001:00039bd0       __ftoui3                   1003abd0 f   MSVCRT:ftol3.obj
 0001:00039bdf       __ftoul3                   1003abdf f   MSVCRT:ftol3.obj
 0001:00039bee       __ftol3                    1003abee f   MSVCRT:ftol3.obj
 0001:00039bfb       __ftol3_NaN                1003abfb f   MSVCRT:ftol3.obj
 0001:00039c13       __ftol3_work               1003ac13 f   MSVCRT:ftol3.obj
 0001:00039c99       __ftol3_common             1003ac99 f   MSVCRT:ftol3.obj
 0001:00039d5b       __ftol3_arg_error          1003ad5b f   MSVCRT:ftol3.obj
 0001:00039d6d       __ftol3_except             1003ad6d f   MSVCRT:ftol3.obj
 0001:00039db1       __dtoui3                   1003adb1 f   MSVCRT:ftol3.obj
 0001:00039dc0       __dtoul3                   1003adc0 f   MSVCRT:ftol3.obj
 0001:00039dcf       __dtol3                    1003adcf f   MSVCRT:ftol3.obj
 0001:00039ddc       __dtol3_NaN                1003addc f   MSVCRT:ftol3.obj
 0001:00039df9       __dtol3_work               1003adf9 f   MSVCRT:ftol3.obj
 0001:00039ee0       __ultod3                   1003aee0 f   MSVCRT:ftol3.obj
 0001:00039f20       __ltod3                    1003af20 f   MSVCRT:ftol3.obj
 0001:00039f47       _memchr                    1003af47 f   vcruntime:VCRUNTIME140.dll
 0001:00039f4d       _memcmp                    1003af4d f   vcruntime:VCRUNTIME140.dll
 0001:00039f53       _memcpy                    1003af53 f   vcruntime:VCRUNTIME140.dll
 0001:00039f59       _memmove                   1003af59 f   vcruntime:VCRUNTIME140.dll
 0001:00039f5f       __CIatan2                  1003af5f f   ucrt:api-ms-win-crt-math-l1-1-0.dll
 0001:00039f65       __CIfmod                   1003af65 f   ucrt:api-ms-win-crt-math-l1-1-0.dll
 0001:00039f6b       __libm_sse2_atan_precise   1003af6b f   ucrt:api-ms-win-crt-math-l1-1-0.dll
 0001:00039f71       __libm_sse2_cos_precise    1003af71 f   ucrt:api-ms-win-crt-math-l1-1-0.dll
 0001:00039f77       __libm_sse2_pow_precise    1003af77 f   ucrt:api-ms-win-crt-math-l1-1-0.dll
 0001:00039f7d       __libm_sse2_sin_precise    1003af7d f   ucrt:api-ms-win-crt-math-l1-1-0.dll
 0001:00039f83       __libm_sse2_sqrt_precise   1003af83 f   ucrt:api-ms-win-crt-math-l1-1-0.dll
 0001:00039f89       __except1                  1003af89 f   ucrt:api-ms-win-crt-math-l1-1-0.dll
 0001:0003b790       ??__Finst@?1??get@?$singleton@Vchams@@@@SAAAVchams@@XZ@YAXXZ 1003c790 f i Hooks.obj
 0002:00000000       __imp__GetCurrentProcess@0 1003d000     kernel32:KERNEL32.dll
 0002:00000004       __imp__GetModuleHandleA@4  1003d004     kernel32:KERNEL32.dll
 0002:00000008       __imp__K32GetModuleInformation@16 1003d008     kernel32:KERNEL32.dll
 0002:0000000c       __imp__VirtualProtect@16   1003d00c     kernel32:KERNEL32.dll
 0002:00000010       __imp__MultiByteToWideChar@24 1003d010     kernel32:KERNEL32.dll
 0002:00000014       __imp__Sleep@4             1003d014     kernel32:KERNEL32.dll
 0002:00000018       __imp__FreeLibraryAndExitThread@8 1003d018     kernel32:KERNEL32.dll
 0002:0000001c       __imp__CreateThread@24     1003d01c     kernel32:KERNEL32.dll
 0002:00000020       __imp__WritePrivateProfileStringA@16 1003d020     kernel32:KERNEL32.dll
 0002:00000024       __imp__CreateDirectoryA@8  1003d024     kernel32:KERNEL32.dll
 0002:00000028       __imp__GetPrivateProfileStringA@24 1003d028     kernel32:KERNEL32.dll
 0002:0000002c       __imp__GetProcAddress@8    1003d02c     kernel32:KERNEL32.dll
 0002:00000030       __imp__EnterCriticalSection@4 1003d030     kernel32:KERNEL32.dll
 0002:00000034       __imp__LeaveCriticalSection@4 1003d034     kernel32:KERNEL32.dll
 0002:00000038       __imp__InitializeCriticalSectionAndSpinCount@8 1003d038     kernel32:KERNEL32.dll
 0002:0000003c       __imp__DeleteCriticalSection@4 1003d03c     kernel32:KERNEL32.dll
 0002:00000040       __imp__SetEvent@4          1003d040     kernel32:KERNEL32.dll
 0002:00000044       __imp__ResetEvent@4        1003d044     kernel32:KERNEL32.dll
 0002:00000048       __imp__WaitForSingleObjectEx@12 1003d048     kernel32:KERNEL32.dll
 0002:0000004c       __imp__CreateEventW@16     1003d04c     kernel32:KERNEL32.dll
 0002:00000050       __imp__GetModuleHandleW@4  1003d050     kernel32:KERNEL32.dll
 0002:00000054       __imp__IsDebuggerPresent@0 1003d054     kernel32:KERNEL32.dll
 0002:00000058       __imp__UnhandledExceptionFilter@4 1003d058     kernel32:KERNEL32.dll
 0002:0000005c       __imp__SetUnhandledExceptionFilter@4 1003d05c     kernel32:KERNEL32.dll
 0002:00000060       __imp__IsProcessorFeaturePresent@4 1003d060     kernel32:KERNEL32.dll
 0002:00000064       __imp__QueryPerformanceCounter@4 1003d064     kernel32:KERNEL32.dll
 0002:00000068       __imp__GetCurrentProcessId@0 1003d068     kernel32:KERNEL32.dll
 0002:0000006c       __imp__GetCurrentThreadId@0 1003d06c     kernel32:KERNEL32.dll
 0002:00000070       __imp__GetSystemTimeAsFileTime@4 1003d070     kernel32:KERNEL32.dll
 0002:00000074       __imp__InitializeSListHead@4 1003d074     kernel32:KERNEL32.dll
 0002:00000078       __imp__TerminateProcess@8  1003d078     kernel32:KERNEL32.dll
 0002:0000007c       __imp__CloseHandle@4       1003d07c     kernel32:KERNEL32.dll
 0002:00000080       \177KERNEL32_NULL_THUNK_DATA 1003d080     kernel32:KERNEL32.dll
 0002:00000084       __imp___Xtime_get_ticks    1003d084     msvcprt:MSVCP140.dll
 0002:00000088       __imp___Thrd_sleep         1003d088     msvcprt:MSVCP140.dll
 0002:0000008c       __imp_?_Xout_of_range@std@@YAXPBD@Z 1003d08c     msvcprt:MSVCP140.dll
 0002:00000090       __imp_?_Xlength_error@std@@YAXPBD@Z 1003d090     msvcprt:MSVCP140.dll
 0002:00000094       \177MSVCP140_NULL_THUNK_DATA 1003d094     msvcprt:MSVCP140.dll
 0002:00000098       __imp__SHGetFolderPathA@20 1003d098     shell32:SHELL32.dll
 0002:0000009c       __imp__ShellExecuteA@24    1003d09c     shell32:SHELL32.dll
 0002:000000a0       \177SHELL32_NULL_THUNK_DATA 1003d0a0     shell32:SHELL32.dll
 0002:000000a4       __imp__GetAsyncKeyState@4  1003d0a4     user32:USER32.dll
 0002:000000a8       __imp__ScreenToClient@8    1003d0a8     user32:USER32.dll
 0002:000000ac       __imp__GetCursorPos@4      1003d0ac     user32:USER32.dll
 0002:000000b0       __imp__SetWindowLongA@12   1003d0b0     user32:USER32.dll
 0002:000000b4       __imp__CallWindowProcA@20  1003d0b4     user32:USER32.dll
 0002:000000b8       __imp__FindWindowA@8       1003d0b8     user32:USER32.dll
 0002:000000bc       __imp__GetKeyState@4       1003d0bc     user32:USER32.dll
 0002:000000c0       \177USER32_NULL_THUNK_DATA 1003d0c0     user32:USER32.dll
 0002:000000c4       __imp__strstr              1003d0c4     vcruntime:VCRUNTIME140.dll
 0002:000000c8       __imp__memset              1003d0c8     vcruntime:VCRUNTIME140.dll
 0002:000000cc       __imp___CxxThrowException@8 1003d0cc     vcruntime:VCRUNTIME140.dll
 0002:000000d0       __imp___purecall           1003d0d0     vcruntime:VCRUNTIME140.dll
 0002:000000d4       __imp____CxxFrameHandler3  1003d0d4     vcruntime:VCRUNTIME140.dll
 0002:000000d8       __imp___except_handler4_common 1003d0d8     vcruntime:VCRUNTIME140.dll
 0002:000000dc       __imp__memchr              1003d0dc     vcruntime:VCRUNTIME140.dll
 0002:000000e0       __imp__memcmp              1003d0e0     vcruntime:VCRUNTIME140.dll
 0002:000000e4       __imp____std_exception_copy 1003d0e4     vcruntime:VCRUNTIME140.dll
 0002:000000e8       __imp__memcpy              1003d0e8     vcruntime:VCRUNTIME140.dll
 0002:000000ec       __imp__memmove             1003d0ec     vcruntime:VCRUNTIME140.dll
 0002:000000f0       __imp____std_exception_destroy 1003d0f0     vcruntime:VCRUNTIME140.dll
 0002:000000f4       __imp____std_type_info_destroy_list 1003d0f4     vcruntime:VCRUNTIME140.dll
 0002:000000f8       \177VCRUNTIME140_NULL_THUNK_DATA 1003d0f8     vcruntime:VCRUNTIME140.dll
 0002:000000fc       __imp__mbstowcs_s          1003d0fc     ucrt:api-ms-win-crt-convert-l1-1-0.dll
 0002:00000100       __imp__atoi                1003d100     ucrt:api-ms-win-crt-convert-l1-1-0.dll
 0002:00000104       __imp__atof                1003d104     ucrt:api-ms-win-crt-convert-l1-1-0.dll
 0002:00000108       \177api-ms-win-crt-convert-l1-1-0_NULL_THUNK_DATA 1003d108     ucrt:api-ms-win-crt-convert-l1-1-0.dll
 0002:0000010c       __imp__malloc              1003d10c     ucrt:api-ms-win-crt-heap-l1-1-0.dll
 0002:00000110       __imp__free                1003d110     ucrt:api-ms-win-crt-heap-l1-1-0.dll
 0002:00000114       __imp___callnewh           1003d114     ucrt:api-ms-win-crt-heap-l1-1-0.dll
 0002:00000118       \177api-ms-win-crt-heap-l1-1-0_NULL_THUNK_DATA 1003d118     ucrt:api-ms-win-crt-heap-l1-1-0.dll
 0002:0000011c       __imp___libm_sse2_sqrt_precise 1003d11c     ucrt:api-ms-win-crt-math-l1-1-0.dll
 0002:00000120       __imp___libm_sse2_atan_precise 1003d120     ucrt:api-ms-win-crt-math-l1-1-0.dll
 0002:00000124       __imp___CIfmod             1003d124     ucrt:api-ms-win-crt-math-l1-1-0.dll
 0002:00000128       __imp___CIatan2            1003d128     ucrt:api-ms-win-crt-math-l1-1-0.dll
 0002:0000012c       __imp___libm_sse2_pow_precise 1003d12c     ucrt:api-ms-win-crt-math-l1-1-0.dll
 0002:00000130       __imp___libm_sse2_sin_precise 1003d130     ucrt:api-ms-win-crt-math-l1-1-0.dll
 0002:00000134       __imp__fmaxf               1003d134     ucrt:api-ms-win-crt-math-l1-1-0.dll
 0002:00000138       __imp___libm_sse2_cos_precise 1003d138     ucrt:api-ms-win-crt-math-l1-1-0.dll
 0002:0000013c       __imp__roundf              1003d13c     ucrt:api-ms-win-crt-math-l1-1-0.dll
 0002:00000140       __imp___fdtest             1003d140     ucrt:api-ms-win-crt-math-l1-1-0.dll
 0002:00000144       __imp___except1            1003d144     ucrt:api-ms-win-crt-math-l1-1-0.dll
 0002:00000148       \177api-ms-win-crt-math-l1-1-0_NULL_THUNK_DATA 1003d148     ucrt:api-ms-win-crt-math-l1-1-0.dll
 0002:0000014c       __imp__terminate           1003d14c     ucrt:api-ms-win-crt-runtime-l1-1-0.dll
 0002:00000150       __imp___initialize_narrow_environment 1003d150     ucrt:api-ms-win-crt-runtime-l1-1-0.dll
 0002:00000154       __imp___seh_filter_dll     1003d154     ucrt:api-ms-win-crt-runtime-l1-1-0.dll
 0002:00000158       __imp___configure_narrow_argv 1003d158     ucrt:api-ms-win-crt-runtime-l1-1-0.dll
 0002:0000015c       __imp___initialize_onexit_table 1003d15c     ucrt:api-ms-win-crt-runtime-l1-1-0.dll
 0002:00000160       __imp___register_onexit_function 1003d160     ucrt:api-ms-win-crt-runtime-l1-1-0.dll
 0002:00000164       __imp___execute_onexit_table 1003d164     ucrt:api-ms-win-crt-runtime-l1-1-0.dll
 0002:00000168       __imp___initterm           1003d168     ucrt:api-ms-win-crt-runtime-l1-1-0.dll
 0002:0000016c       __imp___cexit              1003d16c     ucrt:api-ms-win-crt-runtime-l1-1-0.dll
 0002:00000170       __imp___invalid_parameter_noinfo_noreturn 1003d170     ucrt:api-ms-win-crt-runtime-l1-1-0.dll
 0002:00000174       __imp___crt_atexit         1003d174     ucrt:api-ms-win-crt-runtime-l1-1-0.dll
 0002:00000178       __imp___initterm_e         1003d178     ucrt:api-ms-win-crt-runtime-l1-1-0.dll
 0002:0000017c       \177api-ms-win-crt-runtime-l1-1-0_NULL_THUNK_DATA 1003d17c     ucrt:api-ms-win-crt-runtime-l1-1-0.dll
 0002:00000180       __imp____stdio_common_vsprintf 1003d180     ucrt:api-ms-win-crt-stdio-l1-1-0.dll
 0002:00000184       __imp____stdio_common_vsprintf_s 1003d184     ucrt:api-ms-win-crt-stdio-l1-1-0.dll
 0002:00000188       \177api-ms-win-crt-stdio-l1-1-0_NULL_THUNK_DATA 1003d188     ucrt:api-ms-win-crt-stdio-l1-1-0.dll
 0002:0000018c       __imp__toupper             1003d18c     ucrt:api-ms-win-crt-string-l1-1-0.dll
 0002:00000190       \177api-ms-win-crt-string-l1-1-0_NULL_THUNK_DATA 1003d190     ucrt:api-ms-win-crt-string-l1-1-0.dll
 0002:00000194       __imp___time64             1003d194     ucrt:api-ms-win-crt-time-l1-1-0.dll
 0002:00000198       __imp___ctime64            1003d198     ucrt:api-ms-win-crt-time-l1-1-0.dll
 0002:0000019c       \177api-ms-win-crt-time-l1-1-0_NULL_THUNK_DATA 1003d19c     ucrt:api-ms-win-crt-time-l1-1-0.dll
 0002:000001a0       __imp__rand                1003d1a0     ucrt:api-ms-win-crt-utility-l1-1-0.dll
 0002:000001a4       \177api-ms-win-crt-utility-l1-1-0_NULL_THUNK_DATA 1003d1a4     ucrt:api-ms-win-crt-utility-l1-1-0.dll
 0002:000001a8       ___guard_check_icall_fptr  1003d1a8     MSVCRT:guard_support.obj
 0002:000001ac       ___xc_a                    1003d1ac     MSVCRT:initializers.obj
 0002:00000298       ___xc_z                    1003d298     MSVCRT:initializers.obj
 0002:0000029c       ___xi_a                    1003d29c     MSVCRT:initializers.obj
 0002:000002a4       ___xi_z                    1003d2a4     MSVCRT:initializers.obj
 0002:000002a8       ___xl_a                    1003d2a8     MSVCRT:tlssup.obj
 0002:000002ac       ___xl_z                    1003d2ac     MSVCRT:tlssup.obj
 0002:000002b0       ___xp_a                    1003d2b0     MSVCRT:initializers.obj
 0002:000002b4       ___xp_z                    1003d2b4     MSVCRT:initializers.obj
 0002:000002b8       ___xt_a                    1003d2b8     MSVCRT:initializers.obj
 0002:000002bc       ___xt_z                    1003d2bc     MSVCRT:initializers.obj
 0002:000002c0       ??_C@_1EC@JIJBPKFM@?$AAa?$AAp?$AAi?$AA?9?$AAm?$AAs?$AA?9?$AAw?$AAi?$AAn?$AA?9?$AAc?$AAo?$AAr?$AAe@ 1003d2c0     MSVCRT:thread_safe_statics.obj
 0002:00000304       ??_C@_1BK@MGMFAEKH@?$AAk?$AAe?$AAr?$AAn?$AAe?$AAl?$AA3?$AA2?$AA?4?$AAd?$AAl?$AAl@ 1003d304     MSVCRT:thread_safe_statics.obj
 0002:00000320       ??_C@_0BM@HLJJNPAH@InitializeConditionVariable@ 1003d320     MSVCRT:thread_safe_statics.obj
 0002:0000033c       ??_C@_0BJ@JEBJOJFJ@SleepConditionVariableCS@ 1003d33c     MSVCRT:thread_safe_statics.obj
 0002:00000358       ??_C@_0BJ@PGPPEPCC@WakeAllConditionVariable@ 1003d358     MSVCRT:thread_safe_statics.obj
 0002:00000378       ??_7type_info@@6B@         1003d378     MSVCRT:std_type_info_static.obj
 0002:0000037c       __pRawDllMain              1003d37c     MSVCRT:dll_dllmain.obj
 0002:0000037c       __pDefaultRawDllMain       1003d37c     MSVCRT:dll_dllmain.obj
 0002:00000384       ??_7exception@std@@6B@     1003d384     MSVCRT:throw_bad_alloc.obj
 0002:00000390       ??_7bad_alloc@std@@6B@     1003d390     MSVCRT:throw_bad_alloc.obj
 0002:00000398       ??_C@_0P@GHFPNOJB@bad?5allocation@ 1003d398     MSVCRT:throw_bad_alloc.obj
 0002:000003ac       ??_7bad_array_new_length@std@@6B@ 1003d3ac     MSVCRT:throw_bad_alloc.obj
 0002:000003b4       ??_C@_0BF@KINCDENJ@bad?5array?5new?5length@ 1003d3b4     MSVCRT:throw_bad_alloc.obj
 0002:000003d4       ??_C@_0O@KNDKHNCF@DT_BasePlayer@ 1003d3d4     backtacking.obj
 0002:000003e4       ??_C@_0O@NDBNDAKG@DT_BaseEntity@ 1003d3e4     backtacking.obj
 0002:000003f4       ??_C@_0L@OEKNBODE@m_iTeamNum@ 1003d3f4     backtacking.obj
 0002:00000400       ??_C@_0BD@IDNCLOOB@m_flSimulationTime@ 1003d400     backtacking.obj
 0002:00000414       ??_C@_09FOIALPOM@m_iHealth@ 1003d414     backtacking.obj
 0002:00000420       ??_C@_0BC@KBDMBKEH@deque?$DMT?$DO?5too?5long@ 1003d420     backtacking.obj
 0002:00000434       ??_C@_0BD@OLBABOEK@vector?$DMT?$DO?5too?5long@ 1003d434     backtacking.obj
 0002:00000448       ??_C@_0BA@JFNIOLAK@string?5too?5long@ 1003d448     backtacking.obj
 0002:00000458       ??_C@_0BB@MOGOBHAF@list?$DMT?$DO?5too?5long@ 1003d458     backtacking.obj
 0002:00000469       ?piecewise_construct@std@@3Upiecewise_construct_t@1@B 1003d469     backtacking.obj
 0002:0000046c       ??_C@_0M@LGBCIIFJ@DT_CSPlayer@ 1003d46c     Legitbot.obj
 0002:00000478       ??_C@_0BA@MIGFFMNM@m_hActiveWeapon@ 1003d478     Legitbot.obj
 0002:00000488       ??_C@_0BH@EFEKCINC@DT_BaseCombatCharacter@ 1003d488     Legitbot.obj
 0002:000004a0       ??_C@_0BD@IHDNKCCD@m_bGunGameImmunity@ 1003d4a0     Legitbot.obj
 0002:00002844       ??_C@_08JPGJABNM@m_fFlags@ 1003f844     Aimbot.obj
 0002:00002850       ??_C@_0M@GDCAJHLF@m_lifeState@ 1003f850     Aimbot.obj
 0002:0000285c       ??_C@_0M@MBFMJJPI@m_nTickBase@ 1003f85c     Aimbot.obj
 0002:00002868       ??_C@_09JINBMJKL@localdata@ 1003f868     Aimbot.obj
 0002:00002874       ??_C@_0P@PAJMEMKA@m_angEyeAngles@ 1003f874     Aimbot.obj
 0002:00002884       ??_C@_0M@BAFECOKC@m_vecOrigin@ 1003f884     Aimbot.obj
 0002:00002890       ??_C@_0BB@CHJEEOLK@m_vecVelocity?$FL0?$FN@ 1003f890     Aimbot.obj
 0002:000028a4       ??_C@_0BH@BLPCDECE@m_iItemDefinitionIndex@ 1003f8a4     Aimbot.obj
 0002:000028bc       ??_C@_06FKNLKGFE@m_Item@   1003f8bc     Aimbot.obj
 0002:000028c4       ??_C@_0BD@JKKKGNKL@m_AttributeManager@ 1003f8c4     Aimbot.obj
 0002:000028d8       ??_C@_0BI@KDIKOMBE@DT_BaseAttributableItem@ 1003f8d8     Aimbot.obj
 0002:000028f0       ??_C@_0BE@OBECLDDP@DT_BaseCombatWeapon@ 1003f8f0     Aimbot.obj
 0002:00002904       ??_C@_0BA@GJLMCNFJ@DT_WeaponCSBase@ 1003f904     Aimbot.obj
 0002:00002914       ??_C@_0BA@PHEHCCBG@m_fLastShotTime@ 1003f914     Aimbot.obj
 0002:00002924       ??_C@_0BG@IBOJPCLN@m_flNextPrimaryAttack@ 1003f924     Aimbot.obj
 0002:0000293c       ??_C@_0BG@JBGBGMFE@LocalActiveWeaponData@ 1003f93c     Aimbot.obj
 0002:00002954       ??_C@_0BL@KOKKEGGO@invalid?5deque?$DMT?$DO?5subscript@ 1003f954     Aimbot.obj
 0002:00002974       ??_7ITraceFilter@@6B@      1003f974     Autowall.obj
 0002:00002980       ??_7C_TraceFilter@@6B@     1003f980     Autowall.obj
 0002:00002988       ??_C@_0N@IIBEIILJ@m_ArmorValue@ 1003f988     Autowall.obj
 0002:00002998       ??_C@_0N@KELFAIEF@m_bHasHelmet@ 1003f998     Autowall.obj
 0002:000029a8       ??_C@_0O@CGPADDIF@m_nRenderMode@ 1003f9a8     AntiAim.obj
 0002:000029bc       ??_7Dot@@6B@               1003f9bc     dots.obj
 0002:000029c0       ??_C@_0BI@CFPLBAOH@invalid?5string?5position@ 1003f9c0     chams.obj
 0002:000029d8       ??_C@_0BC@EOODALEL@Unknown?5exception@ 1003f9d8     Hooks.obj
 0002:000029ec       ??_C@_0BA@FDOKDFE@m_hViewModel?$FL0?$FN@ 1003f9ec     Hooks.obj
 0002:000029fc       ??_C@_0O@HHNOFAMN@m_bIsDefusing@ 1003f9fc     Hooks.obj
 0002:00002a0c       ??_C@_0O@NFCJDAAN@m_bHasDefuser@ 1003fa0c     Hooks.obj
 0002:00002a1c       ??_C@_0M@PPOAODEA@m_bIsScoped@ 1003fa1c     Hooks.obj
 0002:00002a28       ??_C@_0BE@GMKOIPKK@m_flDefuseCountDown@ 1003fa28     Hooks.obj
 0002:00002a3c       ??_C@_0N@CBNMHOGE@DT_PlantedC4@ 1003fa3c     Hooks.obj
 0002:00002a4c       ??_C@_0L@HFCEAPNC@m_flC4Blow@ 1003fa4c     Hooks.obj
 0002:00002a58       ??_C@_0P@GNBFDCEN@m_bBombDefused@ 1003fa58     Hooks.obj
 0002:00002a68       ??_C@_0M@GPCKBPEK@player_hurt@ 1003fa68     Hooks.obj
 0002:00002a74       ??_C@_0BK@ILCFOOBA@Failed?5to?5protect?5region?$CB@ 1003fa74     Hooks.obj
 0002:00002a90       ??_C@_09NFOPKLIK@sv_cheats@ 1003fa90     Hooks.obj
 0002:00002a9c       ??_C@_0M@BIELKGOF@thirdperson@ 1003fa9c     Hooks.obj
 0002:00002aa8       ??_C@_0M@INGIFFDB@firstperson@ 1003faa8     Hooks.obj
 0002:00002ab4       ??_C@_0O@IBNPLBFH@cam_idealdist@ 1003fab4     Hooks.obj
 0002:00002ac4       ??_C@_0N@NCCMPMBI@cl_sidespeed@ 1003fac4     Hooks.obj
 0002:00002ad4       ??_C@_0BM@NMJKDPPO@invalid?5vector?$DMT?$DO?5subscript@ 1003fad4     Hooks.obj
 0002:00002af4       ??_7IGameEventListener3z@@6B@ 1003faf4     Hooks.obj
 0002:00002b04       ??_7runtime_error@std@@6B@ 1003fb04     Hooks.obj
 0002:00002b10       ??_7IGameEventListener@@6B@ 1003fb10     Hooks.obj
 0002:00002b20       ??_7DamageEventListener@@6B@ 1003fb20     Hooks.obj
 0002:00002b30       ??_7Event@@6B@             1003fb30     Hooks.obj
 0002:00002b3c       ??_C@_0BC@JPEKIGDH@m_hObserverTarget@ 1003fb3c     Menu.obj
 0002:00002b50       ??_C@_0CB@PJCPBMCH@Counter?9Strike?3?5Global?5Offensiv@ 1003fb50     Menu.obj
 0002:00002b74       ??_C@_08DOMFCGKP@Config?51@ 1003fb74     Menu.obj
 0002:00002b80       ??_C@_08BFOIHFGM@Config?52@ 1003fb80     Menu.obj
 0002:00002b8c       ??_C@_08MPDEECN@Config?53@ 1003fb8c     Menu.obj
 0002:00002b98       ??_C@_02NJPGOMH@?$CFf@     1003fb98     cfgsaving.obj
 0002:00002ba0       ??_7?$_Ref_count_obj@UNode@NetvarTree@@@std@@6B@ 1003fba0     NetvarManager.obj
 0002:00002bb0       ??_C@_0BE@FJNGABL@client_panorama?4dll@ 1003fbb0     ESP.obj
 0002:00002bc4       ??_C@_0CC@KGCKDAPP@0F?510?505?5?$DP?5?$DP?5?$DP?5?$DP?58D?585?5?$DP?5?$DP?5?$DP?5?$DP?5@ 1003fbc4     ESP.obj
 0002:00002be8       ??_C@_0P@OCNMDNAI@m_flDuckAmount@ 1003fbe8     ESP.obj
 0002:00002bf8       ??_C@_08CHHOFABL@m_iClip1@ 1003fbf8     ESP.obj
 0002:00002c04       ??_C@_0BL@GKAMNBOO@m_iPrimaryReserveAmmoCount@ 1003fc04     ESP.obj
 0002:00002c20       ??_C@_0BO@IMBPEJAE@invalid?5array?$DMT?0?5N?$DO?5subscript@ 1003fc20     ESP.obj
 0002:00002c40       ??_C@_0BE@HFJPMIJB@m_hConstraintEntity@ 1003fc40     engine_prediction.obj
 0002:00002c54       __real@00000000            1003fc54     Math.obj
 0002:00002c58       __real@0000000000000000    1003fc58     Hooks.obj
 0002:00002c60       __real@33d6bf95            1003fc60     Aimbot.obj
 0002:00002c64       __real@358637bd            1003fc64     backtacking.obj
 0002:00002c68       __real@3a51b717            1003fc68     CEntity.obj
 0002:00002c6c       __real@3a83126f            1003fc6c     ESP.obj
 0002:00002c70       __real@3c23d70a            1003fc70     Hooks.obj
 0002:00002c74       __real@3c8efa35            1003fc74     ESP.obj
 0002:00002c78       __real@3d4ccccd            1003fc78     Autowall.obj
 0002:00002c7c       __real@3d8f5c29            1003fc7c     CEntity.obj
 0002:00002c80       __real@3d99999a            1003fc80     CEntity.obj
 0002:00002c84       __real@3da3d70a            1003fc84     CEntity.obj
 0002:00002c88       __real@3db645a2            1003fc88     CEntity.obj
 0002:00002c8c       __real@3dcccccd            1003fc8c     Autowall.obj
 0002:00002c90       __real@3df5c28f            1003fc90     CEntity.obj
 0002:00002c94       __real@3e124925            1003fc94     ESP.obj
 0002:00002c98       __real@3e19999a            1003fc98     CEntity.obj
 0002:00002c9c       __real@3e23d70a            1003fc9c     Autowall.obj
 0002:00002ca0       __real@3e2aaaab            1003fca0     Menu.obj
 0002:00002ca4       __real@3e2d0e56            1003fca4     CEntity.obj
 0002:00002ca8       __real@3e4ccccd            1003fca8     LagComp.obj
 0002:00002cac       __real@3e656042            1003fcac     CEntity.obj
 0002:00002cb0       __real@3e800000            1003fcb0     CEntity.obj
 0002:00002cb4       __real@3e99999a            1003fcb4     dots.obj
 0002:00002cb8       __real@3eb33333            1003fcb8     CEntity.obj
 0002:00002cbc       __real@3ec8f5c3            1003fcbc     Hooks.obj
 0002:00002cc0       __real@3ee66663            1003fcc0     Hooks.obj
 0002:00002cc4       __real@3f000000            1003fcc4     AntiAim.obj
 0002:00002cc8       __real@3f400000            1003fcc8     Autowall.obj
 0002:00002cd0       __real@3f50624dd2f1a9fc    1003fcd0     Hooks.obj
 0002:00002cd8       __real@3f5851ec            1003fcd8     CEntity.obj
 0002:00002ce0       __real@3f60624dd2f1a9fc    1003fce0     Autowall.obj
 0002:00002ce8       __real@3f61cac1            1003fce8     CEntity.obj
 0002:00002cec       __real@3f666666            1003fcec     ESP.obj
 0002:00002cf0       __real@3f800000            1003fcf0     dots.obj
 0002:00002cf8       __real@3f847ae147ae147b    1003fcf8     Hooks.obj
 0002:00002d00       __real@3f91df46a2529d39    1003fd00     Math.obj
 0002:00002d08       __real@3fa00000            1003fd08     Autowall.obj
 0002:00002d0c       __real@3fb6db6e            1003fd0c     Menu.obj
 0002:00002d10       __real@3fb999999999999a    1003fd10     AntiAim.obj
 0002:00002d18       __real@3fbb4396            1003fd18     CEntity.obj
 0002:00002d20       __real@3fc9999984200ab7    1003fd20     AntiAim.obj
 0002:00002d28       __real@3fcc28f5c28f5c29    1003fd28     AntiAim.obj
 0002:00002d30       __real@3fd5c28f5c28f5c3    1003fd30     Hooks.obj
 0002:00002d38       __real@3fe00000            1003fd38     Hooks.obj
 0002:00002d40       __real@3fe0000000000000    1003fd40     Hooks.obj
 0002:00002d48       __real@3fe3333333333333    1003fd48     ESP.obj
 0002:00002d50       __real@3ff0000000000000    1003fd50     Menu.obj
 0002:00002d58       __real@3ff199999999999a    1003fd58     AntiAim.obj
 0002:00002d60       __real@3ff3333333333333    1003fd60     ESP.obj
 0002:00002d68       __real@40000000            1003fd68     Hooks.obj
 0002:00002d70       __real@4000000000000000    1003fd70     Hooks.obj
 0002:00002d78       __real@4000cccccccccccd    1003fd78     Menu.obj
 0002:00002d80       __real@4004000000000000    1003fd80     Hooks.obj
 0002:00002d88       __real@400921fb54442d18    1003fd88     Aimbot.obj
 0002:00002d90       __real@40200000            1003fd90     Hooks.obj
 0002:00002d98       __real@4032800000000000    1003fd98     Menu.obj
 0002:00002da0       __real@403c3c3c            1003fda0     Aimbot.obj
 0002:00002da4       __real@40400000            1003fda4     Menu.obj
 0002:00002da8       __real@40490fdb            1003fda8     backtacking.obj
 0002:00002db0       __real@404ca5dc1a63c1f8    1003fdb0     Math.obj
 0002:00002db8       __real@40600000            1003fdb8     Hooks.obj
 0002:00002dbc       __real@40800000            1003fdbc     Autowall.obj
 0002:00002dc0       __real@40a00000            1003fdc0     Menu.obj
 0002:00002dc4       __real@40c00000            1003fdc4     ESP.obj
 0002:00002dc8       __real@40c8f5c3            1003fdc8     Hooks.obj
 0002:00002dcc       __real@41000000            1003fdcc     ESP.obj
 0002:00002dd0       __real@41200000            1003fdd0     ESP.obj
 0002:00002dd4       __real@41500000            1003fdd4     Menu.obj
 0002:00002dd8       __real@41700000            1003fdd8     Hooks.obj
 0002:00002ddc       __real@41800000            1003fddc     ESP.obj
 0002:00002de0       __real@41880000            1003fde0     Menu.obj
 0002:00002de4       __real@41980000            1003fde4     Menu.obj
 0002:00002de8       __real@41a00000            1003fde8     Menu.obj
 0002:00002dec       __real@41a80000            1003fdec     Menu.obj
 0002:00002df0       __real@41b00000            1003fdf0     Menu.obj
 0002:00002df4       __real@41b80000            1003fdf4     Menu.obj
 0002:00002df8       __real@41c00000            1003fdf8     Autowall.obj
 0002:00002dfc       __real@41c80000            1003fdfc     Aimbot.obj
 0002:00002e00       __real@41e80000            1003fe00     Aimbot.obj
 0002:00002e04       __real@41f00000            1003fe04     Aimbot.obj
 0002:00002e08       __real@420c0000            1003fe08     Hooks.obj
 0002:00002e0c       __real@42200000            1003fe0c     Menu.obj
 0002:00002e10       __real@42340000            1003fe10     AntiAim.obj
 0002:00002e14       __real@42400000            1003fe14     Menu.obj
 0002:00002e18       __real@42480000            1003fe18     AntiAim.obj
 0002:00002e1c       __real@42652ee0            1003fe1c     Hooks.obj
 0002:00002e20       __real@42680000            1003fe20     Hooks.obj
 0002:00002e24       __real@42800000            1003fe24     Menu.obj
 0002:00002e28       __real@42820000            1003fe28     Menu.obj
 0002:00002e2c       __real@42a00000            1003fe2c     Menu.obj
 0002:00002e30       __real@42aa0000            1003fe30     AntiAim.obj
 0002:00002e34       __real@42ac0000            1003fe34     Menu.obj
 0002:00002e38       __real@42b20000            1003fe38     Math.obj
 0002:00002e3c       __real@42b40000            1003fe3c     Menu.obj
 0002:00002e40       __real@42c00000            1003fe40     Menu.obj
 0002:00002e44       __real@42c20000            1003fe44     Menu.obj
 0002:00002e48       __real@42c40000            1003fe48     Menu.obj
 0002:00002e4c       __real@42c80000            1003fe4c     Hooks.obj
 0002:00002e50       __real@43000000            1003fe50     dots.obj
 0002:00002e54       __real@43070000            1003fe54     Menu.obj
 0002:00002e58       __real@43160000            1003fe58     Menu.obj
 0002:00002e5c       __real@43330000            1003fe5c     AntiAim.obj
 0002:00002e60       __real@43340000            1003fe60     Math.obj
 0002:00002e64       __real@43480000            1003fe64     Menu.obj
 0002:00002e68       __real@43700000            1003fe68     Menu.obj
 0002:00002e6c       __real@437f0000            1003fe6c     Menu.obj
 0002:00002e70       __real@43870000            1003fe70     Aimbot.obj
 0002:00002e74       __real@43a18000            1003fe74     Menu.obj
 0002:00002e78       __real@43b40000            1003fe78     Hooks.obj
 0002:00002e7c       __real@43c80000            1003fe7c     Hooks.obj
 0002:00002e80       __real@43fa0000            1003fe80     Menu.obj
 0002:00002e84       __real@453b8000            1003fe84     Autowall.obj
 0002:00002e88       __real@45b6d000            1003fe88     Hooks.obj
 0002:00002e8c       __real@46001000            1003fe8c     Autowall.obj
 0002:00002e90       __real@47c35000            1003fe90     ESP.obj
 0002:00002e94       __real@4f800000            1003fe94     Hooks.obj
 0002:00002e98       __real@7f7fffff            1003fe98     backtacking.obj
 0002:00002ea0       __real@bfd333333deffaa4    1003fea0     AntiAim.obj
 0002:00002ea8       __real@c1800000            1003fea8     dots.obj
 0002:00002eac       __real@c1a00000            1003feac     dots.obj
 0002:00002eb0       __real@c1c00000            1003feb0     Hooks.obj
 0002:00002eb4       __real@c2b20000            1003feb4     Math.obj
 0002:00002eb8       __real@c3340000            1003feb8     Math.obj
 0002:00002ebc       __real@c3b40000            1003febc     Math.obj
 0002:00002ec0       __real@c3c80000            1003fec0     Hooks.obj
 0002:00002ec4       __real@c4070000            1003fec4     AntiAim.obj
 0002:00002ec8       __real@ffc00000            1003fec8     Hooks.obj
 0002:00002ed0       __xmm@41f00000000000000000000000000000 1003fed0     backtacking.obj
 0002:00002ee0       __xmm@7fffffffffffffff7fffffffffffffff 1003fee0     Aimbot.obj
 0002:00002ef0       __xmm@80000000800000008000000080000000 1003fef0     Math.obj
 0002:00002fe8       __load_config_used         1003ffe8     MSVCRT:loadcfg.obj
 0002:00003088       __tls_used                 10040088     MSVCRT:tlssup.obj
 0002:000030a0       ??_R4type_info@@6B@        100400a0     MSVCRT:std_type_info_static.obj
 0002:000030b4       ??_R3type_info@@8          100400b4     MSVCRT:std_type_info_static.obj
 0002:000030c4       ??_R2type_info@@8          100400c4     MSVCRT:std_type_info_static.obj
 0002:000030cc       ??_R1A@?0A@EA@type_info@@8 100400cc     MSVCRT:std_type_info_static.obj
 0002:000030e8       ??_R4bad_alloc@std@@6B@    100400e8     MSVCRT:throw_bad_alloc.obj
 0002:000030fc       ??_R3bad_alloc@std@@8      100400fc     MSVCRT:throw_bad_alloc.obj
 0002:0000310c       ??_R2bad_alloc@std@@8      1004010c     MSVCRT:throw_bad_alloc.obj
 0002:00003118       ??_R1A@?0A@EA@bad_alloc@std@@8 10040118     MSVCRT:throw_bad_alloc.obj
 0002:00003134       ??_R4bad_array_new_length@std@@6B@ 10040134     MSVCRT:throw_bad_alloc.obj
 0002:00003148       ??_R3bad_array_new_length@std@@8 10040148     MSVCRT:throw_bad_alloc.obj
 0002:00003158       ??_R2bad_array_new_length@std@@8 10040158     MSVCRT:throw_bad_alloc.obj
 0002:00003168       ??_R1A@?0A@EA@bad_array_new_length@std@@8 10040168     MSVCRT:throw_bad_alloc.obj
 0002:00003184       ??_R3C_TraceFilter@@8      10040184     Autowall.obj
 0002:00003194       ??_R4C_TraceFilter@@6B@    10040194     Autowall.obj
 0002:000031a8       ??_R3ITraceFilter@@8       100401a8     Autowall.obj
 0002:000031b8       ??_R2C_TraceFilter@@8      100401b8     Autowall.obj
 0002:000031c4       ??_R1A@?0A@EA@ITraceFilter@@8 100401c4     Autowall.obj
 0002:000031e0       ??_R4ITraceFilter@@6B@     100401e0     Autowall.obj
 0002:000031f4       ??_R2ITraceFilter@@8       100401f4     Autowall.obj
 0002:000031fc       ??_R1A@?0A@EA@C_TraceFilter@@8 100401fc     Autowall.obj
 0002:00003218       ??_R3Dot@@8                10040218     dots.obj
 0002:00003228       ??_R4Dot@@6B@              10040228     dots.obj
 0002:0000323c       ??_R2Dot@@8                1004023c     dots.obj
 0002:00003244       ??_R1A@?0A@EA@Dot@@8       10040244     dots.obj
 0002:00003260       ??_R4exception@std@@6B@    10040260     Hooks.obj
 0002:00003274       ??_R1A@?0A@EA@DamageEventListener@@8 10040274     Hooks.obj
 0002:00003290       ??_R2DamageEventListener@@8 10040290     Hooks.obj
 0002:0000329c       ??_R4IGameEventListener3z@@6B@ 1004029c     Hooks.obj
 0002:000032b0       ??_R4runtime_error@std@@6B@ 100402b0     Hooks.obj
 0002:000032c4       ??_R4Event@@6B@            100402c4     Hooks.obj
 0002:000032d8       ??_R1A@?0A@EA@IGameEventListener3z@@8 100402d8     Hooks.obj
 0002:000032f4       ??_R1A@?0A@EA@runtime_error@std@@8 100402f4     Hooks.obj
 0002:00003310       ??_R1A@?0A@EA@Event@@8     10040310     Hooks.obj
 0002:0000332c       ??_R1A@?0A@EA@exception@std@@8 1004032c     Hooks.obj
 0002:00003348       ??_R2IGameEventListener@@8 10040348     Hooks.obj
 0002:00003350       ??_R3DamageEventListener@@8 10040350     Hooks.obj
 0002:00003360       ??_R2exception@std@@8      10040360     Hooks.obj
 0002:00003368       ??_R3IGameEventListener3z@@8 10040368     Hooks.obj
 0002:00003378       ??_R4DamageEventListener@@6B@ 10040378     Hooks.obj
 0002:0000338c       ??_R4IGameEventListener@@6B@ 1004038c     Hooks.obj
 0002:000033a0       ??_R3exception@std@@8      100403a0     Hooks.obj
 0002:000033b0       ??_R3Event@@8              100403b0     Hooks.obj
 0002:000033c0       ??_R2runtime_error@std@@8  100403c0     Hooks.obj
 0002:000033cc       ??_R2IGameEventListener3z@@8 100403cc     Hooks.obj
 0002:000033d4       ??_R1A@?0A@EA@IGameEventListener@@8 100403d4     Hooks.obj
 0002:000033f0       ??_R3IGameEventListener@@8 100403f0     Hooks.obj
 0002:00003400       ??_R2Event@@8              10040400     Hooks.obj
 0002:0000340c       ??_R3runtime_error@std@@8  1004040c     Hooks.obj
 0002:0000341c       ??_R1A@?0A@EA@_Ref_count_base@std@@8 1004041c     NetvarManager.obj
 0002:00003438       ??_R4?$_Ref_count_obj@UNode@NetvarTree@@@std@@6B@ 10040438     NetvarManager.obj
 0002:0000344c       ??_R2?$_Ref_count_obj@UNode@NetvarTree@@@std@@8 1004044c     NetvarManager.obj
 0002:00003458       ??_R3_Ref_count_base@std@@8 10040458     NetvarManager.obj
 0002:00003468       ??_R3?$_Ref_count_obj@UNode@NetvarTree@@@std@@8 10040468     NetvarManager.obj
 0002:00003478       ??_R2_Ref_count_base@std@@8 10040478     NetvarManager.obj
 0002:00003480       ??_R1A@?0A@EA@?$_Ref_count_obj@UNode@NetvarTree@@@std@@8 10040480     NetvarManager.obj
 0002:000034a0       ___safe_se_handler_table   100404a0     <linker-defined>
 0002:000039f8       ___rtc_iaa                 100409f8     MSVCRT:initsect.obj
 0002:000039fc       ___rtc_izz                 100409fc     MSVCRT:initsect.obj
 0002:00003a00       ___rtc_taa                 10040a00     MSVCRT:initsect.obj
 0002:00003a04       ___rtc_tzz                 10040a04     MSVCRT:initsect.obj
 0002:00003a08       __tls_start                10040a08     MSVCRT:tlssup.obj
 0002:00003a0c       __Init_thread_epoch        10040a0c     MSVCRT:thread_safe_statics.obj
 0002:00003a10       __tls_end                  10040a10     MSVCRT:tlssup.obj
 0002:0000595c       __TI2?AVbad_alloc@std@@    1004295c     MSVCRT:throw_bad_alloc.obj
 0002:0000596c       __CTA2?AVbad_alloc@std@@   1004296c     MSVCRT:throw_bad_alloc.obj
 0002:00005978       __CT??_R0?AVbad_alloc@std@@@8??0bad_alloc@std@@QAE@ABV01@@Z12 10042978     MSVCRT:throw_bad_alloc.obj
 0002:00005994       __TI3?AVbad_array_new_length@std@@ 10042994     MSVCRT:throw_bad_alloc.obj
 0002:000059a4       __CTA3?AVbad_array_new_length@std@@ 100429a4     MSVCRT:throw_bad_alloc.obj
 0002:000059b4       __CT??_R0?AVbad_array_new_length@std@@@8??0bad_array_new_length@std@@QAE@ABV01@@Z12 100429b4     MSVCRT:throw_bad_alloc.obj
 0002:000059d0       __TI2?AVruntime_error@std@@ 100429d0     Hooks.obj
 0002:000059e0       __CT??_R0?AVruntime_error@std@@@8??0runtime_error@std@@QAE@ABV01@@Z12 100429e0     Hooks.obj
 0002:000059fc       __CT??_R0?AVexception@std@@@8??0exception@std@@QAE@ABV01@@Z12 100429fc     Hooks.obj
 0002:00005a18       __CTA2?AVruntime_error@std@@ 10042a18     Hooks.obj
 0002:00005a24       __IMPORT_DESCRIPTOR_KERNEL32 10042a24     kernel32:KERNEL32.dll
 0002:00005a38       __IMPORT_DESCRIPTOR_USER32 10042a38     user32:USER32.dll
 0002:00005a4c       __IMPORT_DESCRIPTOR_SHELL32 10042a4c     shell32:SHELL32.dll
 0002:00005a60       __IMPORT_DESCRIPTOR_MSVCP140 10042a60     msvcprt:MSVCP140.dll
 0002:00005a74       __IMPORT_DESCRIPTOR_VCRUNTIME140 10042a74     vcruntime:VCRUNTIME140.dll
 0002:00005a88       __IMPORT_DESCRIPTOR_api-ms-win-crt-heap-l1-1-0 10042a88     ucrt:api-ms-win-crt-heap-l1-1-0.dll
 0002:00005a9c       __IMPORT_DESCRIPTOR_api-ms-win-crt-runtime-l1-1-0 10042a9c     ucrt:api-ms-win-crt-runtime-l1-1-0.dll
 0002:00005ab0       __IMPORT_DESCRIPTOR_api-ms-win-crt-stdio-l1-1-0 10042ab0     ucrt:api-ms-win-crt-stdio-l1-1-0.dll
 0002:00005ac4       __IMPORT_DESCRIPTOR_api-ms-win-crt-convert-l1-1-0 10042ac4     ucrt:api-ms-win-crt-convert-l1-1-0.dll
 0002:00005ad8       __IMPORT_DESCRIPTOR_api-ms-win-crt-math-l1-1-0 10042ad8     ucrt:api-ms-win-crt-math-l1-1-0.dll
 0002:00005aec       __IMPORT_DESCRIPTOR_api-ms-win-crt-utility-l1-1-0 10042aec     ucrt:api-ms-win-crt-utility-l1-1-0.dll
 0002:00005b00       __IMPORT_DESCRIPTOR_api-ms-win-crt-time-l1-1-0 10042b00     ucrt:api-ms-win-crt-time-l1-1-0.dll
 0002:00005b14       __IMPORT_DESCRIPTOR_api-ms-win-crt-string-l1-1-0 10042b14     ucrt:api-ms-win-crt-string-l1-1-0.dll
 0002:00005b28       __NULL_IMPORT_DESCRIPTOR   10042b28     kernel32:KERNEL32.dll
 0003:00000000       __Init_global_epoch        10044000     MSVCRT:thread_safe_statics.obj
 0003:00000004       ___scrt_native_dllmain_reason 10044004     MSVCRT:utility.obj
 0003:00000008       ___security_cookie_complement 10044008     MSVCRT:gs_cookie.obj
 0003:0000000c       ___security_cookie         1004400c     MSVCRT:gs_cookie.obj
 0003:00000010       ___isa_enabled             10044010     MSVCRT:cpu_disp.obj
 0003:00000014       ___scrt_ucrt_dll_is_in_use 10044014     MSVCRT:ucrt_stubs.obj
 0003:00000050       ?bSendPacket@g@@3_NA       10044050     GlobalVars.obj
 0003:00000054       ?TargetIndex@g@@3HA        10044054     GlobalVars.obj
 0003:00000060       __fltused                  10044060     MSVCRT:fltused.obj
 0003:00000064       ??_R0?AVtype_info@@@8      10044064     MSVCRT:std_type_info_static.obj
 0003:0000007c       ??_R0?AVbad_alloc@std@@@8  1004407c     MSVCRT:throw_bad_alloc.obj
 0003:00000098       ??_R0?AVbad_array_new_length@std@@@8 10044098     MSVCRT:throw_bad_alloc.obj
 0003:000000c0       ??_R0?AVITraceFilter@@@8   100440c0     Autowall.obj
 0003:000000dc       ??_R0?AVC_TraceFilter@@@8  100440dc     Autowall.obj
 0003:000000f8       ??_R0?AVDot@@@8            100440f8     dots.obj
 0003:0000010c       ??_R0?AVruntime_error@std@@@8 1004410c     Hooks.obj
 0003:0000012c       ??_R0?AVIGameEventListener3z@@@8 1004412c     Hooks.obj
 0003:00000150       ??_R0?AVIGameEventListener@@@8 10044150     Hooks.obj
 0003:00000174       ??_R0?AVexception@std@@@8  10044174     Hooks.obj
 0003:00000190       ??_R0?AVDamageEventListener@@@8 10044190     Hooks.obj
 0003:000001b4       ??_R0?AVEvent@@@8          100441b4     Hooks.obj
 0003:000001c8       ??_R0?AV?$_Ref_count_obj@UNode@NetvarTree@@@std@@@8 100441c8     NetvarManager.obj
 0003:00000200       ??_R0?AV_Ref_count_base@std@@@8 10044200     NetvarManager.obj
 0003:00000250       ___scrt_current_native_startup_state 10044250     MSVCRT:utility.obj
 0003:00000254       ___scrt_native_startup_lock 10044254     MSVCRT:utility.obj
 0003:00000278       ___scrt_debugger_hook_flag 10044278     MSVCRT:utility_desktop.obj
 0003:0000027c       __tls_index                1004427c     MSVCRT:tlssup.obj
 0003:00000280       ___isa_available           10044280     MSVCRT:cpu_disp.obj
 0003:00000284       ___favor                   10044284     MSVCRT:cpu_disp.obj
 0003:00000288       ?__type_info_root_node@@3U__type_info_node@@A 10044288     MSVCRT:tncleanup.obj
 0003:00000290       ?_OptionsStorage@?1??__local_stdio_scanf_options@@9@4_KA 10044290     MSVCRT:default_local_stdio_options.obj
 0003:000005b4       ?m_flSimulationTime@?1??GetSimulationTime@C_BaseEntity@@QAEMXZ@4HA 100445b4     backtacking.obj
 0003:000005b8       ?$TSS0@?1??GetSimulationTime@C_BaseEntity@@QAEMXZ@4HA 100445b8     backtacking.obj
 0003:000005bc       ?$TSS0@?1??GetHealth@C_BaseEntity@@QAEHXZ@4HA 100445bc     backtacking.obj
 0003:000005c0       ?$TSS0@?4??GetTeam@C_BaseEntity@@QAEHXZ@4HA 100445c0     backtacking.obj
 0003:000005c4       ?m_iTeamNum@?4??GetTeam@C_BaseEntity@@QAEHXZ@4HA 100445c4     backtacking.obj
 0003:000005c8       ?m_iHealth@?1??GetHealth@C_BaseEntity@@QAEHXZ@4HA 100445c8     backtacking.obj
 0003:000005cc       ?m_hActiveWeapon@?4??GetActiveWeapon@C_BaseEntity@@QAEPAVC_BaseCombatWeapon@@XZ@4HA 100445cc     Legitbot.obj
 0003:000005d0       ?m_bGunGameImmunity@?1??IsImmune@C_BaseEntity@@QAE_NXZ@4HA 100445d0     Legitbot.obj
 0003:000005d4       ?$TSS0@?1??IsImmune@C_BaseEntity@@QAE_NXZ@4HA 100445d4     Legitbot.obj
 0003:000005d8       ?$TSS0@?4??GetActiveWeapon@C_BaseEntity@@QAEPAVC_BaseCombatWeapon@@XZ@4HA 100445d8     Legitbot.obj
 0003:000005e0       ?_OptionsStorage@?1??__local_stdio_printf_options@@9@4_KA 100445e0     Event Logs.obj
 0003:000005e8       ?m_flNextPrimaryAttack@?1??GetNextPrimaryAttack@C_BaseCombatWeapon@@QAEMXZ@4HA 100445e8     Aimbot.obj
 0003:000005ec       ?m_iItemDefinitionIndex@?1??GetItemDefinitionIndex@C_BaseCombatWeapon@@QAE?AW4ItemDefinitionIndex@@XZ@4HA 100445ec     Aimbot.obj
 0003:000005f0       ?m_angEyeAngles@?1??GetEyeAngles@C_BaseEntity@@QAE?AVVector@@XZ@4HA 100445f0     Aimbot.obj
 0003:000005f4       ?$TSS0@?1??GetNextPrimaryAttack@C_BaseCombatWeapon@@QAEMXZ@4HA 100445f4     Aimbot.obj
 0003:000005f8       ?$TSS0@?1??GetFlags@C_BaseEntity@@QAE?AW4EntityFlags@@XZ@4HA 100445f8     Aimbot.obj
 0003:000005fc       ?m_fLastShotTime@?1??GetLastShotTime@C_BaseCombatWeapon@@QAEMXZ@4HA 100445fc     Aimbot.obj
 0003:00000600       ?m_lifeState@?1??GetLifeState@C_BaseEntity@@QAE_NXZ@4HA 10044600     Aimbot.obj
 0003:00000604       ?m_nTickBase@?1??GetTickBase@C_BaseEntity@@QAEHXZ@4HA 10044604     Aimbot.obj
 0003:00000608       ?$TSS0@?1??GetEyeAngles@C_BaseEntity@@QAE?AVVector@@XZ@4HA 10044608     Aimbot.obj
 0003:0000060c       ?$TSS0@?1??GetItemDefinitionIndex@C_BaseCombatWeapon@@QAE?AW4ItemDefinitionIndex@@XZ@4HA 1004460c     Aimbot.obj
 0003:00000610       ?$TSS0@?1??GetTickBase@C_BaseEntity@@QAEHXZ@4HA 10044610     Aimbot.obj
 0003:00000614       ?m_fFlags@?1??GetFlags@C_BaseEntity@@QAE?AW4EntityFlags@@XZ@4HA 10044614     Aimbot.obj
 0003:00000618       ?$TSS0@?1??GetLifeState@C_BaseEntity@@QAE_NXZ@4HA 10044618     Aimbot.obj
 0003:0000061c       ?m_vecOrigin@?1??GetOrigin@C_BaseEntity@@QAE?AVVector@@XZ@4HA 1004461c     Aimbot.obj
 0003:00000620       ?$TSS0@?1??GetLastShotTime@C_BaseCombatWeapon@@QAEMXZ@4HA 10044620     Aimbot.obj
 0003:00000624       ?$TSS0@?1??GetVelocity@C_BaseEntity@@QAE?AVVector@@XZ@4HA 10044624     Aimbot.obj
 0003:00000628       ?$TSS0@?1??GetOrigin@C_BaseEntity@@QAE?AVVector@@XZ@4HA 10044628     Aimbot.obj
 0003:0000062c       ?m_vecVelocity@?1??GetVelocity@C_BaseEntity@@QAE?AVVector@@XZ@4HA 1004462c     Aimbot.obj
 0003:00000630       ?m_bHasHelmet@?1??HasHelmet@C_BaseEntity@@QAE_NXZ@4HA 10044630     Autowall.obj
 0003:00000634       ?m_ArmorValue@?1??ArmorValue@C_BaseEntity@@QAEHXZ@4HA 10044634     Autowall.obj
 0003:00000638       ?$TSS0@?1??ArmorValue@C_BaseEntity@@QAEHXZ@4HA 10044638     Autowall.obj
 0003:0000063c       ?$TSS0@?1??HasHelmet@C_BaseEntity@@QAE_NXZ@4HA 1004463c     Autowall.obj
 0003:00000640       ?g_Autowall@@3VAutowall@@A 10044640     Autowall.obj
 0003:00000641       ?m_bBreakLowerBody@@3_NA   10044641     AntiAim.obj
 0003:00000642       ?g_AntiAim@@3VAntiAim@@A   10044642     AntiAim.obj
 0003:00000643       ?g_Resolver@@3VResolver@@A 10044643     Resolver.obj
 0003:00000644       ?m_flNextBodyUpdate@@3MA   10044644     AntiAim.obj
 0003:00000648       ?DamageListener@@3PAVDamageEventListener@@A 10044648     Hooks.obj
 0003:0000064c       ?bulletimpact@@3PAVDamageEventListener@@A 1004464c     Hooks.obj
 0003:00000650       ?BuyListener@@3PAVDamageEventListener@@A 10044650     Hooks.obj
 0003:00000654       ?hit_time@@3MA             10044654     Hooks.obj
 0003:00000658       ?HThisModule@@3PAUHINSTANCE__@@A 10044658     DLLMain.obj
 0003:0000065c       ?misc_font@g@@3KA          1004465c     GlobalVars.obj
 0003:00000660       ?local@g@@3PAVC_BaseEntity@@A 10044660     GlobalVars.obj
 0003:00000664       ?cmd@g@@3PAVCUserCmd@@A    10044664     GlobalVars.obj
 0003:00000668       ?uRandomSeed@g@@3IA        10044668     GlobalVars.obj
 0003:0000066c       ?fake_duck@g@@3_NA         1004466c     GlobalVars.obj
 0003:0000066d       ?g_Math@@3VMath@@A         1004466d     Math.obj
 0003:00000670       ?money_font@g@@3KA         10044670     GlobalVars.obj
 0003:00000674       ?menu_font2@g@@3KA         10044674     GlobalVars.obj
 0003:00000678       ?menu_font@g@@3KA          10044678     GlobalVars.obj
 0003:0000067c       ?esp_font@g@@3KA           1004467c     GlobalVars.obj
 0003:00000680       ?Verdana@g@@3KA            10044680     GlobalVars.obj
 0003:00000684       ?tab_font@g@@3KA           10044684     GlobalVars.obj
 0003:00000688       ?subtab_font@g@@3KA        10044688     GlobalVars.obj
 0003:0000068c       ?Tahoma@g@@3KA             1004468c     GlobalVars.obj
 0003:00000690       ?choked_commands@g@@3HA    10044690     GlobalVars.obj
 0003:00000694       ?icon_font@g@@3KA          10044694     GlobalVars.obj
 0003:00000698       ?Hit@g@@3PA_NA             10044698     GlobalVars.obj
 0003:000006dc       ?balance@g@@3HA            100446dc     GlobalVars.obj
 0003:000006e0       ?title_font@g@@3KA         100446e0     GlobalVars.obj
 0003:000006e4       ?CourierNew@g@@3KA         100446e4     GlobalVars.obj
 0003:000006e8       ?pose_param_11@g@@3PAMA    100446e8     GlobalVars.obj
 0003:000007ec       ?esp_font2@g@@3KA          100447ec     GlobalVars.obj
 0003:000007f0       ?g_pTrace@@3PAVIEngineTrace@@A 100447f0     Interfaces.obj
 0003:000007f4       ?g_pSurfaceData@@3PAVIPhysicsSurfaceProps@@A 100447f4     Interfaces.obj
 0003:000007f8       ?g_pClientState@@3PAVi_client_state@@A 100447f8     Interfaces.obj
 0003:000007fc       ?g_pModelInfo@@3PAVIVModelInfo@@A 100447fc     Interfaces.obj
 0003:00000800       ?g_pSurface@@3PAVISurface@@A 10044800     Interfaces.obj
 0003:00000804       ?g_pEngine@@3PAVIVEngineClient@@A 10044804     Interfaces.obj
 0003:00000808       ?g_pGlobalVars@@3PAVCGlobalVarsBase@@A 10044808     Interfaces.obj
 0003:0000080c       ?g_pEntityList@@3PAVIClientEntityList@@A 1004480c     Interfaces.obj
 0003:00000810       ?g_pPrediction@@3PAVCPrediction@@A 10044810     Interfaces.obj
 0003:00000814       ?g_pEventManager2@@3PAVIGameEventManager2@@A 10044814     Interfaces.obj
 0003:00000818       ?g_pEventManager@@3PAVIGameEventManager@@A 10044818     Interfaces.obj
 0003:0000081c       ?g_pClientDll@@3PAVIBaseClientDLL@@A 1004481c     Interfaces.obj
 0003:00000820       ?g_pModelRender@@3PAVCModelRender@@A 10044820     Interfaces.obj
 0003:00000824       ?g_pPanel@@3PAVIPanel@@A   10044824     Interfaces.obj
 0003:00000828       ?g_pRenderView@@3PAVIVRenderView@@A 10044828     Interfaces.obj
 0003:0000082c       ?g_GlowObject@@3PAVCGlowObjectManager@@A 1004482c     Interfaces.obj
 0003:00000830       ?g_pClientMode@@3PAVIClientMode@@A 10044830     Interfaces.obj
 0003:00000834       ?g_pCvar@@3PAVICVar@@A     10044834     Interfaces.obj
 0003:00000838       ?g_pMoveHelper@@3PAVIMoveHelper@@A 10044838     Interfaces.obj
 0003:0000083c       ?g_pInputSystem@@3PAVIInputSystem@@A 1004483c     Interfaces.obj
 0003:00000840       ?g_pMovement@@3PAVIGameMovement@@A 10044840     Interfaces.obj
 0003:00000844       ?g_pview_renderbeams@@3PAVi_viewrender_beams@@A 10044844     Interfaces.obj
 0003:00000848       ?g_pMaterialSys@@3PAVIMaterialSystem@@A 10044848     Interfaces.obj
 0003:0000084c       ?flOldCurtime@@3MA         1004484c     engine_prediction.obj
 0003:00000850       ?m_pSetPredictionPlayer@@3PAHA 10044850     engine_prediction.obj
 0003:00000854       ?flOldFrametime@@3MA       10044854     engine_prediction.obj
 0003:00000858       ?m_nPredictionRandomSeed@@3PAHA 10044858     engine_prediction.obj
 0003:00000864       ?messages@events@@3V?$vector@VCMessage@@V?$allocator@VCMessage@@@std@@@std@@A 10044864     Event Logs.obj
 0003:00000870       ?backtrack@@3PAY0M@Ubacktrack_tick@@A 10044870     backtacking.obj
 0003:00005c70       ?player_records@@3V?$array@V?$deque@Ulc_record@@V?$allocator@Ulc_record@@@std@@@std@@$0EA@@std@@A 10049c70     backtacking.obj
 0003:00006170       ?matrix@@3PAY0IA@Vmatrix3x4_t@@A 1004a170     Legitbot.obj
 0003:00067978       ?localmatrix@@3PAY0IA@Vmatrix3x4_t@@A 100ab978     Legitbot.obj
 0003:000c91a0       ?g_Aimbot@@3VAimbot@@A     1010d1a0     Aimbot.obj
 0003:0012aa50       ?g_LagComp@@3VLagComp@@A   1016ea50     LagComp.obj
 0003:0012b078       ?Dots@@3V?$vector@PAVDot@@V?$allocator@PAVDot@@@std@@@std@@A 1016f078     dots.obj
 0003:0012b09c       ?trace_logs@@3V?$vector@Vtrace_info@@V?$allocator@Vtrace_info@@@std@@@std@@A 1016f09c     Hooks.obj
 0003:0012b0a8       ?g_Misc@@3VMisc@@A         1016f0a8     Hooks.obj
 0003:0012b0c0       ?str_matrix@@3Vstore_matrix@@A 1016f0c0     Hooks.obj
 0003:0018e0c8       ?local_last_bone_matrix@@3PAVmatrix3x4_t@@A 101d20c8     Hooks.obj
 0003:0018f8cc       ?g_Event@@3VEvent@@A       101d38cc     Hooks.obj
 0003:0018f8d4       ?real_angle@@3VVector@@A   101d38d4     Hooks.obj
 0003:0018f8e0       ?fake_angle@@3VVector@@A   101d38e0     Hooks.obj
 0003:0018f908       ?g_Hooks@@3VHooks@@A       101d3908     Hooks.obj
 0003:0018fa38       ?g_menu@@3VMenu@@A         101d3a38     Menu.obj
 0003:0018ff4c       ?g_Config@@3PAVCConfig@@A  101d3f4c     cfgsaving.obj
 0003:0018ff58       ?FakeAngle@g@@3VVector@@A  101d3f58     GlobalVars.obj
 0003:0018ff64       ?stored_angles@g@@3VVector@@A 101d3f64     GlobalVars.obj
 0003:0018ff70       ?OriginalView@g@@3VVector@@A 101d3f70     GlobalVars.obj
 0003:0018ff7c       ?RealAngle@g@@3VVector@@A  101d3f7c     GlobalVars.obj
 0003:0018ff88       ?AimbotHitbox@g@@3PAY0BM@VVector@@A 101d3f88     GlobalVars.obj
 0003:001954e0       ?EnemyEyeAngs@g@@3PAVVector@@A 101d94e0     GlobalVars.obj
 0003:001957fc       ?g_pNetvars@@3V?$unique_ptr@VNetvarTree@@U?$default_delete@VNetvarTree@@@std@@@std@@A 101d97fc     NetvarManager.obj
 0003:00195808       ?g_ESP@@3VESP@@A           101d9808     ESP.obj
 0003:00195a60       ?$TSS0@?1??GetMoveType@C_BaseEntity@@QAE?AW4MoveType_t@@XZ@4HA 101d9a60     AntiAim.obj
 0003:00195a64       ?m_Movetype@?1??GetMoveType@C_BaseEntity@@QAE?AW4MoveType_t@@XZ@4HA 101d9a64     AntiAim.obj
 0003:00195a6c       ?$TSS0@?1??defusing@C_BaseEntity@@QAE_NXZ@4HA 101d9a6c     Hooks.obj
 0003:00195a70       ?m_bIsDefusing@?1??defusing@C_BaseEntity@@QAE_NXZ@4HA 101d9a70     Hooks.obj
 0003:00195a78       ?$TSS0@?1??RoundedFilledRect@ISurface@@QAEXHHHHMUColor@@@Z@4HA 101d9a78     Hooks.obj
 0003:00195a80       ?$TSS0@?1??bomb_defused@ccsbomb@@QAEMXZ@4HA 101d9a80     Hooks.obj
 0003:00195a84       ?m_bIsScoped@?1??IsScoped@C_BaseEntity@@QAE_NXZ@4HA 101d9a84     Hooks.obj
 0003:00195a88       ?$TSS0@?1??has_defuser@C_BaseEntity@@QAE_NXZ@4HA 101d9a88     Hooks.obj
 0003:00195a8c       ?bLastJumped@?1??DoBhop@Misc@@ABEXXZ@4_NA 101d9a8c     Hooks.obj
 0003:00195a90       ?m_flDefuseCountDown@?1??c4_defuse_count_down@ccsbomb@@QAEMXZ@4HA 101d9a90     Hooks.obj
 0003:00195a94       ?m_flC4Blow@?1??c4_blow_time@ccsbomb@@QAEMXZ@4HA 101d9a94     Hooks.obj
 0003:00195a98       ?bShouldFake@?1??DoBhop@Misc@@ABEXXZ@4_NA 101d9a98     Hooks.obj
 0003:00195a9c       ?$TSS0@?1??c4_blow_time@ccsbomb@@QAEMXZ@4HA 101d9a9c     Hooks.obj
 0003:00195aa0       ?verts@?1??RoundedFilledRect@ISurface@@QAEXHHHHMUColor@@@Z@4PAUVertex_t@@A 101d9aa0     Hooks.obj
 0003:00195c28       ?$TSS0@?1??c4_defuse_count_down@ccsbomb@@QAEMXZ@4HA 101d9c28     Hooks.obj
 0003:00195c2c       ?init@?1??ThirdPerson@Misc@@QAEXW4ClientFrameStage_t@@@Z@4_NA 101d9c2c     Hooks.obj
 0003:00195c30       ?m_hViewModel@?1??0C_BaseEntity@@QAEHXZ@4HA 101d9c30     Hooks.obj
 0003:00195c34       ?choked@?1??DoFakeLag@Misc@@AAEXXZ@4HA 101d9c34     Hooks.obj
 0003:00195c38       ?$TSS0@?1??IsScoped@C_BaseEntity@@QAE_NXZ@4HA 101d9c38     Hooks.obj
 0003:00195c40       ?m_bHasDefuser@?1??has_defuser@C_BaseEntity@@QAE_NXZ@4HA 101d9c40     Hooks.obj
 0003:00195c44       ?$TSS0@?1??m_hViewModel@C_BaseEntity@@QAEHXZ@4HA 101d9c44     Hooks.obj
 0003:00195c48       ?m_bBombDefused@?1??bomb_defused@ccsbomb@@QAEMXZ@4HA 101d9c48     Hooks.obj
 0003:00195c54       ?blend@?1??draw_gradient_rect@ISurface@@QAEXHHHHUColor@@0W4gradient_type_t@@@Z@4V<lambda>@@A 101d9c54     Menu.obj
 0003:00195c58       ?m_hObserverTarget@?1??observer_target@C_BaseEntity@@QAEIXZ@4HA 101d9c58     Menu.obj
 0003:00195c5c       ?$TSS0@?1??observer_target@C_BaseEntity@@QAEIXZ@4HA 101d9c5c     Menu.obj
 0003:00195c60       ?$TSS0@?1??draw_gradient_rect@ISurface@@QAEXHHHHUColor@@0W4gradient_type_t@@@Z@4HA 101d9c60     Menu.obj
 0003:00195c70       ?pViewMatrix@?1???R<lambda_498009bf6358dc471fbe163595f67980>@@QBE_NXZ@4IA 101d9c70     ESP.obj
 0003:00195c74       ?$TSS0@?1??duck_amount@C_BaseEntity@@QAEHXZ@4HA 101d9c74     ESP.obj
 0003:00195c78       ?m_flDuckAmount@?1??duck_amount@C_BaseEntity@@QAEHXZ@4HA 101d9c78     ESP.obj
 0003:00195c7c       ?$TSS0@?1??m_iPrimaryReserveAmmoCount@C_BaseCombatWeapon@@QAEHXZ@4HA 101d9c7c     ESP.obj
 0003:00195c80       ?$TSS0@?1??GetAmmo@C_BaseCombatWeapon@@QAEHXZ@4HA 101d9c80     ESP.obj
 0003:00195c84       ?m_iClip1@?1??GetAmmo@C_BaseCombatWeapon@@QAEHXZ@4HA 101d9c84     ESP.obj
 0003:00195c88       ?primary_reserve@?1??m_iPrimaryReserveAmmoCount@C_BaseCombatWeapon@@QAEHXZ@4HA 101d9c88     ESP.obj
 0003:00196380       ?inst@?1??get@?$singleton@Vchams@@@@SAAAVchams@@XZ@4V3@A 101da380     Hooks.obj
 0003:0019638c       ?$TSS0@?L@??DoAutostrafe@Misc@@ABEXXZ@4HA 101da38c     Hooks.obj
 0003:00196394       ?cl_sidespeed@?L@??DoAutostrafe@Misc@@ABEXXZ@4MA 101da394     Hooks.obj
 0003:001963dc       ?$TSS0@?1??get@?$singleton@Vchams@@@@SAAAVchams@@XZ@4HA 101da3dc     Hooks.obj
 0003:00196950       ?$TSS0@?1??SetCurrentCommand@C_BaseEntity@@QAEXPAVCUserCmd@@@Z@4HA 101da950     engine_prediction.obj
 0003:00196954       ?m_hConstraintEntity@?1??SetCurrentCommand@C_BaseEntity@@QAEXPAVCUserCmd@@@Z@4HA 101da954     engine_prediction.obj
 0003:00196958       ___dyn_tls_init_callback   101da958     <common>

 entry point at        0001:0003935d

 Static symbols

 0000:ffe20000       .debug$S                   10000000     kernel32:KERNEL32.dll
 0000:ffe20000       .debug$S                   10000000     ucrt:api-ms-win-crt-math-l1-1-0.dll
 0000:ffe20000       .debug$S                   10000000     ucrt:api-ms-win-crt-math-l1-1-0.dll
 0000:ffe20000       .debug$S                   10000000     ucrt:api-ms-win-crt-math-l1-1-0.dll
 0000:ffe20000       .debug$S                   10000000     ucrt:api-ms-win-crt-math-l1-1-0.dll
 0000:ffe20000       .debug$S                   10000000     ucrt:api-ms-win-crt-math-l1-1-0.dll
 0000:ffe20000       .debug$S                   10000000     ucrt:api-ms-win-crt-math-l1-1-0.dll
 0000:ffe20000       .debug$S                   10000000     ucrt:api-ms-win-crt-math-l1-1-0.dll
 0000:ffe20000       .debug$S                   10000000     ucrt:api-ms-win-crt-math-l1-1-0.dll
 0000:ffe20000       .debug$S                   10000000     vcruntime:VCRUNTIME140.dll
 0000:ffe20000       .debug$S                   10000000     vcruntime:VCRUNTIME140.dll
 0000:ffe20000       .debug$S                   10000000     vcruntime:VCRUNTIME140.dll
 0000:ffe20000       .debug$S                   10000000     vcruntime:VCRUNTIME140.dll
 0000:ffe20000       .debug$S                   10000000     kernel32:KERNEL32.dll
 0000:ffe20000       .debug$S                   10000000     kernel32:KERNEL32.dll
 0000:ffe20000       .debug$S                   10000000     kernel32:KERNEL32.dll
 0000:ffe20000       .debug$S                   10000000     kernel32:KERNEL32.dll
 0000:ffe20000       .debug$S                   10000000     kernel32:KERNEL32.dll
 0000:ffe20000       .debug$S                   10000000     kernel32:KERNEL32.dll
 0000:ffe20000       .debug$S                   10000000     kernel32:KERNEL32.dll
 0000:ffe20000       .debug$S                   10000000     kernel32:KERNEL32.dll
 0000:ffe20000       .debug$S                   10000000     kernel32:KERNEL32.dll
 0000:ffe20000       .debug$S                   10000000     kernel32:KERNEL32.dll
 0000:ffe20000       .debug$S                   10000000     kernel32:KERNEL32.dll
 0000:ffe20000       .debug$S                   10000000     kernel32:KERNEL32.dll
 0000:ffe20000       .debug$S                   10000000     user32:USER32.dll
 0000:ffe20000       .debug$S                   10000000     user32:USER32.dll
 0000:ffe20000       .debug$S                   10000000     user32:USER32.dll
 0000:ffe20000       .debug$S                   10000000     user32:USER32.dll
 0000:ffe20000       .debug$S                   10000000     user32:USER32.dll
 0000:ffe20000       .debug$S                   10000000     user32:USER32.dll
 0000:ffe20000       .debug$S                   10000000     user32:USER32.dll
 0000:ffe20000       .debug$S                   10000000     kernel32:KERNEL32.dll
 0000:ffe20000       .debug$S                   10000000     kernel32:KERNEL32.dll
 0000:ffe20000       .debug$S                   10000000     kernel32:KERNEL32.dll
 0000:ffe20000       .debug$S                   10000000     shell32:SHELL32.dll
 0000:ffe20000       .debug$S                   10000000     shell32:SHELL32.dll
 0000:ffe20000       .debug$S                   10000000     msvcprt:MSVCP140.dll
 0000:ffe20000       .debug$S                   10000000     msvcprt:MSVCP140.dll
 0000:ffe20000       .debug$S                   10000000     msvcprt:MSVCP140.dll
 0000:ffe20000       .debug$S                   10000000     msvcprt:MSVCP140.dll
 0000:ffe20000       .debug$S                   10000000     msvcprt:MSVCP140.dll
 0000:ffe20000       .debug$S                   10000000     msvcprt:MSVCP140.dll
 0000:ffe20000       .debug$S                   10000000     msvcprt:MSVCP140.dll
 0000:ffe20000       .debug$S                   10000000     msvcprt:MSVCP140.dll
 0000:ffe20000       .debug$S                   10000000     msvcprt:MSVCP140.dll
 0000:ffe20000       .debug$S                   10000000     msvcprt:MSVCP140.dll
 0000:ffe20000       .debug$S                   10000000     msvcprt:MSVCP140.dll
 0000:ffe20000       .debug$S                   10000000     msvcprt:MSVCP140.dll
 0000:ffe20000       .debug$S                   10000000     kernel32:KERNEL32.dll
 0000:ffe20000       .debug$S                   10000000     kernel32:KERNEL32.dll
 0000:ffe20000       .debug$S                   10000000     kernel32:KERNEL32.dll
 0000:ffe20000       .debug$S                   10000000     kernel32:KERNEL32.dll
 0000:ffe20000       .debug$S                   10000000     kernel32:KERNEL32.dll
 0000:ffe20000       .debug$S                   10000000     kernel32:KERNEL32.dll
 0000:ffe20000       .debug$S                   10000000     kernel32:KERNEL32.dll
 0000:ffe20000       .debug$S                   10000000     kernel32:KERNEL32.dll
 0000:ffe20000       .debug$S                   10000000     kernel32:KERNEL32.dll
 0000:ffe20000       .debug$S                   10000000     kernel32:KERNEL32.dll
 0000:ffe20000       .debug$S                   10000000     kernel32:KERNEL32.dll
 0000:ffe20000       .debug$S                   10000000     vcruntime:VCRUNTIME140.dll
 0000:ffe20000       .debug$S                   10000000     vcruntime:VCRUNTIME140.dll
 0000:ffe20000       .debug$S                   10000000     vcruntime:VCRUNTIME140.dll
 0000:ffe20000       .debug$S                   10000000     vcruntime:VCRUNTIME140.dll
 0000:ffe20000       .debug$S                   10000000     vcruntime:VCRUNTIME140.dll
 0000:ffe20000       .debug$S                   10000000     vcruntime:VCRUNTIME140.dll
 0000:ffe20000       .debug$S                   10000000     vcruntime:VCRUNTIME140.dll
 0000:ffe20000       .debug$S                   10000000     vcruntime:VCRUNTIME140.dll
 0000:ffe20000       .debug$S                   10000000     vcruntime:VCRUNTIME140.dll
 0000:ffe20000       .debug$S                   10000000     vcruntime:VCRUNTIME140.dll
 0000:ffe20000       .debug$S                   10000000     ucrt:api-ms-win-crt-heap-l1-1-0.dll
 0000:ffe20000       .debug$S                   10000000     ucrt:api-ms-win-crt-runtime-l1-1-0.dll
 0000:ffe20000       .debug$S                   10000000     ucrt:api-ms-win-crt-stdio-l1-1-0.dll
 0000:ffe20000       .debug$S                   10000000     ucrt:api-ms-win-crt-convert-l1-1-0.dll
 0000:ffe20000       .debug$S                   10000000     ucrt:api-ms-win-crt-math-l1-1-0.dll
 0000:ffe20000       .debug$S                   10000000     ucrt:api-ms-win-crt-utility-l1-1-0.dll
 0000:ffe20000       .debug$S                   10000000     ucrt:api-ms-win-crt-heap-l1-1-0.dll
 0000:ffe20000       .debug$S                   10000000     ucrt:api-ms-win-crt-stdio-l1-1-0.dll
 0000:ffe20000       .debug$S                   10000000     ucrt:api-ms-win-crt-time-l1-1-0.dll
 0000:ffe20000       .debug$S                   10000000     ucrt:api-ms-win-crt-time-l1-1-0.dll
 0000:ffe20000       .debug$S                   10000000     ucrt:api-ms-win-crt-math-l1-1-0.dll
 0000:ffe20000       .debug$S                   10000000     ucrt:api-ms-win-crt-convert-l1-1-0.dll
 0000:ffe20000       .debug$S                   10000000     ucrt:api-ms-win-crt-convert-l1-1-0.dll
 0000:ffe20000       .debug$S                   10000000     ucrt:api-ms-win-crt-math-l1-1-0.dll
 0000:ffe20000       .debug$S                   10000000     ucrt:api-ms-win-crt-math-l1-1-0.dll
 0000:ffe20000       .debug$S                   10000000     ucrt:api-ms-win-crt-string-l1-1-0.dll
 0000:ffe20000       .debug$S                   10000000     ucrt:api-ms-win-crt-heap-l1-1-0.dll
 0000:ffe20000       .debug$S                   10000000     ucrt:api-ms-win-crt-runtime-l1-1-0.dll
 0000:ffe20000       .debug$S                   10000000     ucrt:api-ms-win-crt-runtime-l1-1-0.dll
 0000:ffe20000       .debug$S                   10000000     ucrt:api-ms-win-crt-runtime-l1-1-0.dll
 0000:ffe20000       .debug$S                   10000000     ucrt:api-ms-win-crt-runtime-l1-1-0.dll
 0000:ffe20000       .debug$S                   10000000     ucrt:api-ms-win-crt-runtime-l1-1-0.dll
 0000:ffe20000       .debug$S                   10000000     ucrt:api-ms-win-crt-runtime-l1-1-0.dll
 0000:ffe20000       .debug$S                   10000000     ucrt:api-ms-win-crt-runtime-l1-1-0.dll
 0000:ffe20000       .debug$S                   10000000     ucrt:api-ms-win-crt-runtime-l1-1-0.dll
 0000:ffe20000       .debug$S                   10000000     ucrt:api-ms-win-crt-runtime-l1-1-0.dll
 0000:ffe20000       .debug$S                   10000000     ucrt:api-ms-win-crt-runtime-l1-1-0.dll
 0000:ffe20000       .debug$S                   10000000     kernel32:KERNEL32.dll
 0000:ffe20000       .debug$S                   10000000     ucrt:api-ms-win-crt-runtime-l1-1-0.dll
 0000:ffe20000       .debug$S                   10000000     ucrt:api-ms-win-crt-runtime-l1-1-0.dll
 0000:ffe20000       .debug$S                   10000000     ucrt:api-ms-win-crt-heap-l1-1-0.dll
 0000:ffe20000       .debug$S                   10000000     kernel32:KERNEL32.dll
 0000:ffe20000       .debug$S                   10000000     kernel32:KERNEL32.dll
 0000:ffe20000       .debug$S                   10000000     kernel32:KERNEL32.dll
 0000:ffe20000       .debug$S                   10000000     kernel32:KERNEL32.dll
 0000:ffe20000       .debug$S                   10000000     kernel32:KERNEL32.dll
 0001:00000000       ??__Evec2_origin@@YAXXZ    10001000 f   backtacking.obj
 0001:00000030       ??__Eplayer_records@@YAXXZ 10001030 f   backtacking.obj
 0001:00000050       ??__Ebacktrack@@YAXXZ      10001050 f   backtacking.obj
 0001:00000070       ??__Evec2_origin@@YAXXZ    10001070 f   Legitbot.obj
 0001:000000a0       ??__Ematrix@@YAXXZ         100010a0 f   Legitbot.obj
 0001:000000c0       ??__Elocalmatrix@@YAXXZ    100010c0 f   Legitbot.obj
 0001:000000e0       ??__Evec2_origin@@YAXXZ    100010e0 f   Event Logs.obj
 0001:00000110       ??__Eprefix@@YAXXZ         10001110 f   Event Logs.obj
 0001:00000130       ??__Emessages@events@@YAXXZ 10001130 f   Event Logs.obj
 0001:00000150       ??__Evec2_origin@@YAXXZ    10001150 f   Aimbot.obj
 0001:00000180       ??__Eg_Aimbot@@YAXXZ       10001180 f   Aimbot.obj
 0001:00000190       ??__Evec2_origin@@YAXXZ    10001190 f   Autowall.obj
 0001:000001c0       ??__Eumomaim@@YAXXZ        100011c0 f   Autowall.obj
 0001:000001d0       ??__Evec2_origin@@YAXXZ    100011d0 f   LagComp.obj
 0001:00000200       ??__Eg_LagComp@@YAXXZ      10001200 f   LagComp.obj
 0001:00000220       ??__Evec2_origin@@YAXXZ    10001220 f   AntiAim.obj
 0001:00000250       ??__Evec2_origin@@YAXXZ    10001250 f   dots.obj
 0001:00000280       ??__EDots@@YAXXZ           10001280 f   dots.obj
 0001:000002a0       ??__Evec2_origin@@YAXXZ    100012a0 f   skinchanger.obj
 0001:000002d0       ??__Evec2_origin@@YAXXZ    100012d0 f   Resolver.obj
 0001:00000300       ??__Evec2_origin@@YAXXZ    10001300 f   chams.obj
 0001:00000330       ??__Evec2_origin@@YAXXZ    10001330 f   Hooks.obj
 0001:00000360       ??__Eprefix@@YAXXZ         10001360 f   Hooks.obj
 0001:00000380       ??__Ew_printf@XorCompileTime@@YAXXZ 10001380 f   Hooks.obj
 0001:00000390       ??__Ew_printf_s@XorCompileTime@@YAXXZ 10001390 f   Hooks.obj
 0001:000003a0       ??__Ew_sprintf@XorCompileTime@@YAXXZ 100013a0 f   Hooks.obj
 0001:000003b0       ??__Ew_sprintf_s@XorCompileTime@@YAXXZ 100013b0 f   Hooks.obj
 0001:000003c0       ??__Eg_Misc@@YAXXZ         100013c0 f   Hooks.obj
 0001:000003d0       ??__Eg_Hooks@@YAXXZ        100013d0 f   Hooks.obj
 0001:000003f0       ??__Eg_Event@@YAXXZ        100013f0 f   Hooks.obj
 0001:00000410       ??__Estr_matrix@@YAXXZ     10001410 f   Hooks.obj
 0001:00000420       ??__Etrace_logs@@YAXXZ     10001420 f   Hooks.obj
 0001:00000440       ??__Elocal_last_bone_matrix@@YAXXZ 10001440 f   Hooks.obj
 0001:00000460       ??__Efake_angle@@YAXXZ     10001460 f   Hooks.obj
 0001:00000470       ??__Ereal_angle@@YAXXZ     10001470 f   Hooks.obj
 0001:00000480       ??__Evec2_origin@@YAXXZ    10001480 f   DLLMain.obj
 0001:000004b0       ??__Evec2_origin@@YAXXZ    100014b0 f   Menu.obj
 0001:000004e0       ??__Ew_printf@XorCompileTime@@YAXXZ 100014e0 f   Menu.obj
 0001:000004f0       ??__Ew_printf_s@XorCompileTime@@YAXXZ 100014f0 f   Menu.obj
 0001:00000500       ??__Ew_sprintf@XorCompileTime@@YAXXZ 10001500 f   Menu.obj
 0001:00000510       ??__Ew_sprintf_s@XorCompileTime@@YAXXZ 10001510 f   Menu.obj
 0001:00000520       ??__Eg_menu@@YAXXZ         10001520 f   Menu.obj
 0001:00000540       ??__Evec2_origin@@YAXXZ    10001540 f   cfgsaving.obj
 0001:00000570       ??__Eg_Config@@YAXXZ       10001570 f   cfgsaving.obj
 0001:000005e0       ??__Evec2_origin@@YAXXZ    100015e0 f   CEntity.obj
 0001:00000610       ??__Evec2_origin@@YAXXZ    10001610 f   GlobalVars.obj
 0001:00000640       ??__EOriginalView@g@@YAXXZ 10001640 f   GlobalVars.obj
 0001:00000650       ??__Estored_angles@g@@YAXXZ 10001650 f   GlobalVars.obj
 0001:00000660       ??__EEnemyEyeAngs@g@@YAXXZ 10001660 f   GlobalVars.obj
 0001:00000680       ??__EAimbotHitbox@g@@YAXXZ 10001680 f   GlobalVars.obj
 0001:000006a0       ??__ERealAngle@g@@YAXXZ    100016a0 f   GlobalVars.obj
 0001:000006b0       ??__EFakeAngle@g@@YAXXZ    100016b0 f   GlobalVars.obj
 0001:000006c0       ??__Evec2_origin@@YAXXZ    100016c0 f   Interfaces.obj
 0001:000006f0       ??__Evec2_origin@@YAXXZ    100016f0 f   Math.obj
 0001:00000720       ??__Eg_pNetvars@@YAXXZ     10001720 f   NetvarManager.obj
 0001:00000740       ??__Evec2_origin@@YAXXZ    10001740 f   ESP.obj
 0001:00000770       ??__Eg_ESP@@YAXXZ          10001770 f   ESP.obj
 0001:00000780       ??__Evec2_origin@@YAXXZ    10001780 f   engine_prediction.obj
 0001:00003041       __catch$?_Reallocate_exactly@?$vector@V?$_List_unchecked_iterator@V?$_List_val@U?$_List_simple_types@U?$pair@$$CBV?$basic_string@DU?$char_traits@D@std@@V?$allocator@D@2@@std@@V?$shared_ptr@UNode@NetvarTree@@@2@@std@@@std@@@std@@@std@@V?$allocator@V?$_List_unchecked_iterator@V?$_List_val@U?$_List_simple_types@U?$pair@$$CBV?$basic_string@DU?$char_traits@D@std@@V?$allocator@D@2@@std@@V?$shared_ptr@UNode@NetvarTree@@@2@@std@@@std@@@std@@@std@@@2@@std@@AAEXI@Z$0 10004041 f i backtacking.obj
 0001:000040e0       __catch$?_Buynode0@?$_List_alloc@U?$_List_base_types@U?$pair@$$CBV?$basic_string@DU?$char_traits@D@std@@V?$allocator@D@2@@std@@V?$shared_ptr@UNode@NetvarTree@@@2@@std@@V?$allocator@U?$pair@$$CBV?$basic_string@DU?$char_traits@D@std@@V?$allocator@D@2@@std@@V?$shared_ptr@UNode@NetvarTree@@@2@@std@@@2@@std@@@std@@QAEPAU?$_List_node@U?$pair@$$CBV?$basic_string@DU?$char_traits@D@std@@V?$allocator@D@2@@std@@V?$shared_ptr@UNode@NetvarTree@@@2@@std@@PAX@2@PAU32@0@Z$0 100050e0 f i backtacking.obj
 0001:00004cc8       __catch$??$_Insert@AAU?$pair@$$CBV?$basic_string@DU?$char_traits@D@std@@V?$allocator@D@2@@std@@V?$shared_ptr@UNode@NetvarTree@@@2@@std@@V?$_List_unchecked_iterator@V?$_List_val@U?$_List_simple_types@U?$pair@$$CBV?$basic_string@DU?$char_traits@D@std@@V?$allocator@D@2@@std@@V?$shared_ptr@UNode@NetvarTree@@@2@@std@@@std@@@std@@@2@@?$_Hash@V?$_Umap_traits@V?$basic_string@DU?$char_traits@D@std@@V?$allocator@D@2@@std@@V?$shared_ptr@UNode@NetvarTree@@@2@V?$_Uhash_compare@V?$basic_string@DU?$char_traits@D@std@@V?$allocator@D@2@@std@@U?$hash@V?$basic_string@DU?$char_traits@D@std@@V?$allocator@D@2@@std@@@2@U?$equal_to@V?$basic_string@DU?$char_traits@D@std@@V?$allocator@D@2@@std@@@2@@2@V?$allocator@U?$pair@$$CBV?$basic_string@DU?$char_traits@D@std@@V?$allocator@D@2@@std@@V?$shared_ptr@UNode@NetvarTree@@@2@@std@@@2@$0A@@std@@@std@@IAE?AU?$pair@V?$_List_iterator@V?$_List_val@U?$_List_simple_types@U?$pair@$$CBV?$basic_string@DU?$char_traits@D@std@@V?$allocator@D@2@@std@@V?$shared_ptr@UNode@NetvarTree@@@2@@std@@@std@@@std@@@std@@_N@1@AAU?$pair@$$CBV?$basic_string@DU?$char_traits@D@std@@V?$allocator@D@2@@std@@V?$shared_ptr@UNode@NetvarTree@@@2@@1@V?$_List_unchecked_iterator@V?$_List_val@U?$_List_simple_types@U?$pair@$$CBV?$basic_string@DU?$char_traits@D@std@@V?$allocator@D@2@@std@@V?$shared_ptr@UNode@NetvarTree@@@2@@std@@@std@@@std@@@1@@Z$0 10005cc8 f i backtacking.obj
 0001:00004d82       __catch$??$_Insert@AAU?$pair@$$CBV?$basic_string@DU?$char_traits@D@std@@V?$allocator@D@2@@std@@V?$shared_ptr@UNode@NetvarTree@@@2@@std@@V?$_List_unchecked_iterator@V?$_List_val@U?$_List_simple_types@U?$pair@$$CBV?$basic_string@DU?$char_traits@D@std@@V?$allocator@D@2@@std@@V?$shared_ptr@UNode@NetvarTree@@@2@@std@@@std@@@std@@@2@@?$_Hash@V?$_Umap_traits@V?$basic_string@DU?$char_traits@D@std@@V?$allocator@D@2@@std@@V?$shared_ptr@UNode@NetvarTree@@@2@V?$_Uhash_compare@V?$basic_string@DU?$char_traits@D@std@@V?$allocator@D@2@@std@@U?$hash@V?$basic_string@DU?$char_traits@D@std@@V?$allocator@D@2@@std@@@2@U?$equal_to@V?$basic_string@DU?$char_traits@D@std@@V?$allocator@D@2@@std@@@2@@2@V?$allocator@U?$pair@$$CBV?$basic_string@DU?$char_traits@D@std@@V?$allocator@D@2@@std@@V?$shared_ptr@UNode@NetvarTree@@@2@@std@@@2@$0A@@std@@@std@@IAE?AU?$pair@V?$_List_iterator@V?$_List_val@U?$_List_simple_types@U?$pair@$$CBV?$basic_string@DU?$char_traits@D@std@@V?$allocator@D@2@@std@@V?$shared_ptr@UNode@NetvarTree@@@2@@std@@@std@@@std@@@std@@_N@1@AAU?$pair@$$CBV?$basic_string@DU?$char_traits@D@std@@V?$allocator@D@2@@std@@V?$shared_ptr@UNode@NetvarTree@@@2@@1@V?$_List_unchecked_iterator@V?$_List_val@U?$_List_simple_types@U?$pair@$$CBV?$basic_string@DU?$char_traits@D@std@@V?$allocator@D@2@@std@@V?$shared_ptr@UNode@NetvarTree@@@2@@std@@@std@@@std@@@1@@Z$2 10005d82 f i backtacking.obj
 0001:00005567       __catch$??$_Buynode@ABUpiecewise_construct_t@std@@V?$tuple@$$QAV?$basic_string@DU?$char_traits@D@std@@V?$allocator@D@2@@std@@@2@V?$tuple@$$V@2@@?$_List_buy@U?$pair@$$CBV?$basic_string@DU?$char_traits@D@std@@V?$allocator@D@2@@std@@V?$shared_ptr@UNode@NetvarTree@@@2@@std@@V?$allocator@U?$pair@$$CBV?$basic_string@DU?$char_traits@D@std@@V?$allocator@D@2@@std@@V?$shared_ptr@UNode@NetvarTree@@@2@@std@@@2@@std@@QAEPAU?$_List_node@U?$pair@$$CBV?$basic_string@DU?$char_traits@D@std@@V?$allocator@D@2@@std@@V?$shared_ptr@UNode@NetvarTree@@@2@@std@@PAX@1@PAU21@0ABUpiecewise_construct_t@1@$$QAV?$tuple@$$QAV?$basic_string@DU?$char_traits@D@std@@V?$allocator@D@2@@std@@@1@$$QAV?$tuple@$$V@1@@Z$0 10006567 f i backtacking.obj
 0001:00007824       __catch$??$_Emplace_reallocate@VCMessage@@@?$vector@VCMessage@@V?$allocator@VCMessage@@@std@@@std@@QAEPAVCMessage@@QAV2@$$QAV2@@Z$0 10008824 f i Event Logs.obj
 0001:0000a2d0       $LN74                      1000b2d0     Aimbot.obj
 0001:0000b47f       __catch$??$_Emplace_reallocate@PAV?$ConfigValue@_N@@@?$vector@PAV?$ConfigValue@_N@@V?$allocator@PAV?$ConfigValue@_N@@@std@@@std@@QAEPAPAV?$ConfigValue@_N@@QAPAV2@$$QAPAV2@@Z$0 1000c47f f i cfgsaving.obj
 0001:0000b47f       __catch$??$_Emplace_reallocate@H@?$vector@HV?$allocator@H@std@@@std@@QAEPAHQAH$$QAH@Z$0 1000c47f f i Aimbot.obj
 0001:0000b47f       __catch$??$_Emplace_reallocate@PAV?$ConfigValue@H@@@?$vector@PAV?$ConfigValue@H@@V?$allocator@PAV?$ConfigValue@H@@@std@@@std@@QAEPAPAV?$ConfigValue@H@@QAPAV2@$$QAPAV2@@Z$0 1000c47f f i cfgsaving.obj
 0001:0000b47f       __catch$??$_Emplace_reallocate@PAVDot@@@?$vector@PAVDot@@V?$allocator@PAVDot@@@std@@@std@@QAEPAPAVDot@@QAPAV2@$$QAPAV2@@Z$0 1000c47f f i dots.obj
 0001:0000b47f       __catch$??$_Emplace_reallocate@PAV?$ConfigValue@M@@@?$vector@PAV?$ConfigValue@M@@V?$allocator@PAV?$ConfigValue@M@@@std@@@std@@QAEPAPAV?$ConfigValue@M@@QAPAV2@$$QAPAV2@@Z$0 1000c47f f i cfgsaving.obj
 0001:0000c1a4       $LN8                       1000d1a4     Autowall.obj
 0001:0000fbec       $LN26                      10010bec     AntiAim.obj
 0001:0000fbfc       $LN27                      10010bfc     AntiAim.obj
 0001:00011bc0       _ctime                     10012bc0 f   Hooks.obj
 0001:00011be0       _time                      10012be0 f   Hooks.obj
 0001:00013108       __catch$?RestoreTable@ShadowVTManager@@QAEXXZ$0 10014108 f i Hooks.obj
 0001:000140ec       $LN15                      100150ec     Hooks.obj
 0001:0001bad0       ??0<lambda_22f5aa91bfa926b559ba981cd98acadb>@@QAE@ABI0@Z 1001cad0 f   Hooks.obj
 0001:0001bad0       ??0<lambda_b1a628b0e71bb53d76a3796ea06b3277>@@QAE@ABI0@Z 1001cad0 f   Hooks.obj
 0001:0001d138       __catch$??$_Range_construct_or_tidy@PBQBD@?$vector@PBDV?$allocator@PBD@std@@@std@@AAEXPBQBD0Uforward_iterator_tag@1@@Z$0 1001e138 f i Hooks.obj
 0001:0001d334       __catch$??$_Emplace_reallocate@Vtrace_info@@@?$vector@Vtrace_info@@V?$allocator@Vtrace_info@@@std@@@std@@QAEPAVtrace_info@@QAV2@$$QAV2@@Z$0 1001e334 f i Hooks.obj
 0001:0001e790       $LN12                      1001f790     Menu.obj
 0001:000233dc       $LN298                     100243dc     Menu.obj
 0001:0002d718       __catch$??$_Range_construct_or_tidy@PBV?$basic_string@DU?$char_traits@D@std@@V?$allocator@D@2@@std@@@?$vector@V?$basic_string@DU?$char_traits@D@std@@V?$allocator@D@2@@std@@V?$allocator@V?$basic_string@DU?$char_traits@D@std@@V?$allocator@D@2@@std@@@2@@std@@AAEXPBV?$basic_string@DU?$char_traits@D@std@@V?$allocator@D@2@@1@0Uforward_iterator_tag@1@@Z$0 1002e718 f i Menu.obj
 0001:00034684       __catch$??$_Buynode@PBDABV?$shared_ptr@UNode@NetvarTree@@@std@@@?$_List_buy@U?$pair@$$CBV?$basic_string@DU?$char_traits@D@std@@V?$allocator@D@2@@std@@V?$shared_ptr@UNode@NetvarTree@@@2@@std@@V?$allocator@U?$pair@$$CBV?$basic_string@DU?$char_traits@D@std@@V?$allocator@D@2@@std@@V?$shared_ptr@UNode@NetvarTree@@@2@@std@@@2@@std@@QAEPAU?$_List_node@U?$pair@$$CBV?$basic_string@DU?$char_traits@D@std@@V?$allocator@D@2@@std@@V?$shared_ptr@UNode@NetvarTree@@@2@@std@@PAX@1@PAU21@0$$QAPBDABV?$shared_ptr@UNode@NetvarTree@@@1@@Z$0 10035684 f i NetvarManager.obj
 0001:00038014       __catch$??$_Emplace_reallocate@V?$basic_string@DU?$char_traits@D@std@@V?$allocator@D@2@@std@@@?$vector@V?$basic_string@DU?$char_traits@D@std@@V?$allocator@D@2@@std@@V?$allocator@V?$basic_string@DU?$char_traits@D@std@@V?$allocator@D@2@@std@@@2@@std@@QAEPAV?$basic_string@DU?$char_traits@D@std@@V?$allocator@D@2@@1@QAV21@$$QAV21@@Z$0 10039014 f i ESP.obj
 0001:00038865       ?__scrt_initialize_thread_safe_statics@@YAHXZ 10039865 f   MSVCRT:thread_safe_statics.obj
 0001:000388a9       ?__scrt_initialize_thread_safe_statics_platform_specific@@YAXXZ 100398a9 f   MSVCRT:thread_safe_statics.obj
 0001:00038998       ?__scrt_uninitialize_thread_safe_statics@@YAXXZ 10039998 f   MSVCRT:thread_safe_statics.obj
 0001:00038c44       ?find_pe_section@@YAPAU_IMAGE_SECTION_HEADER@@QAEI@Z 10039c44 f   MSVCRT:utility.obj
 0001:0003903d       ?dllmain_crt_dispatch@@YGHQAUHINSTANCE__@@KQAX@Z 1003a03d f   MSVCRT:dll_dllmain.obj
 0001:00039090       ?dllmain_crt_process_attach@@YAHQAUHINSTANCE__@@QAX@Z 1003a090 f   MSVCRT:dll_dllmain.obj
 0001:0003919a       ?dllmain_crt_process_detach@@YAH_N@Z 1003a19a f   MSVCRT:dll_dllmain.obj
 0001:0003922c       ?dllmain_dispatch@@YAHQAUHINSTANCE__@@KQAX@Z 1003a22c f   MSVCRT:dll_dllmain.obj
 0001:00039332       ?dllmain_raw@@YGHQAUHINSTANCE__@@KQAX@Z 1003a332 f   MSVCRT:dll_dllmain.obj
 0001:000395a0       $$000000                   1003a5a0     MSVCRT:sehprolg4.obj
 0001:000397ca       ___get_entropy             1003a7ca f   MSVCRT:gs_support.obj
 0001:00039ab0       $$000000                   1003aab0     MSVCRT:lldiv.obj
 0001:00039b60       $$000000                   1003ab60     MSVCRT:llmul.obj
 0001:00039ba0       $$000000                   1003aba0     MSVCRT:chkstk.obj
 0001:00039bd0       $$000000                   1003abd0     MSVCRT:ftol3.obj
 0001:00039f90       __unwindfunclet$?GetOffsetRecursive@NetvarTree@@CAHAAV?$unordered_map@V?$basic_string@DU?$char_traits@D@std@@V?$allocator@D@2@@std@@V?$shared_ptr@UNode@NetvarTree@@@2@U?$hash@V?$basic_string@DU?$char_traits@D@std@@V?$allocator@D@2@@std@@@2@U?$equal_to@V?$basic_string@DU?$char_traits@D@std@@V?$allocator@D@2@@std@@@2@V?$allocator@U?$pair@$$CBV?$basic_string@DU?$char_traits@D@std@@V?$allocator@D@2@@std@@V?$shared_ptr@UNode@NetvarTree@@@2@@std@@@2@@std@@HPBD@Z$0 1003af90 f   backtacking.obj
 0001:00039f90       __unwindfunclet$??$?HDU?$char_traits@D@std@@V?$allocator@D@1@@std@@YA?AV?$basic_string@DU?$char_traits@D@std@@V?$allocator@D@2@@0@ABV10@QBD@Z$0 1003af90 f   Menu.obj
 0001:00039f90       __unwindfunclet$??$?HDU?$char_traits@D@std@@V?$allocator@D@1@@std@@YA?AV?$basic_string@DU?$char_traits@D@std@@V?$allocator@D@2@@0@ABV10@0@Z$0 1003af90 f   Hooks.obj
 0001:00039f90       __unwindfunclet$??$?HDU?$char_traits@D@std@@V?$allocator@D@1@@std@@YA?AV?$basic_string@DU?$char_traits@D@std@@V?$allocator@D@2@@0@QBDABV10@@Z$0 1003af90 f   Event Logs.obj
 0001:00039f98       __ehhandler$?GetOffsetRecursive@NetvarTree@@CAHAAV?$unordered_map@V?$basic_string@DU?$char_traits@D@std@@V?$allocator@D@2@@std@@V?$shared_ptr@UNode@NetvarTree@@@2@U?$hash@V?$basic_string@DU?$char_traits@D@std@@V?$allocator@D@2@@std@@@2@U?$equal_to@V?$basic_string@DU?$char_traits@D@std@@V?$allocator@D@2@@std@@@2@V?$allocator@U?$pair@$$CBV?$basic_string@DU?$char_traits@D@std@@V?$allocator@D@2@@std@@V?$shared_ptr@UNode@NetvarTree@@@2@@std@@@2@@std@@HPBD@Z 1003af98 f   backtacking.obj
 0001:00039f98       __ehhandler$??$?HDU?$char_traits@D@std@@V?$allocator@D@1@@std@@YA?AV?$basic_string@DU?$char_traits@D@std@@V?$allocator@D@2@@0@ABV10@0@Z 1003af98 f   Hooks.obj
 0001:00039f98       __ehhandler$??$?HDU?$char_traits@D@std@@V?$allocator@D@1@@std@@YA?AV?$basic_string@DU?$char_traits@D@std@@V?$allocator@D@2@@0@QBDABV10@@Z 1003af98 f   Event Logs.obj
 0001:00039f98       __ehhandler$??$?HDU?$char_traits@D@std@@V?$allocator@D@1@@std@@YA?AV?$basic_string@DU?$char_traits@D@std@@V?$allocator@D@2@@0@ABV10@QBD@Z 1003af98 f   Menu.obj
 0001:00039fb0       __unwindfunclet$?GetTeam@C_BaseEntity@@QAEHXZ$0 1003afb0 f   backtacking.obj
 0001:00039fbc       __ehhandler$?GetTeam@C_BaseEntity@@QAEHXZ 1003afbc f   backtacking.obj
 0001:00039fd0       __unwindfunclet$?GetSimulationTime@C_BaseEntity@@QAEMXZ$0 1003afd0 f   backtacking.obj
 0001:00039fdc       __ehhandler$?GetSimulationTime@C_BaseEntity@@QAEMXZ 1003afdc f   backtacking.obj
 0001:0003a000       __unwindfunclet$?GetHealth@C_BaseEntity@@QAEHXZ$0 1003b000 f   backtacking.obj
 0001:0003a00c       __ehhandler$?GetHealth@C_BaseEntity@@QAEHXZ 1003b00c f   backtacking.obj
 0001:0003a020       __ehhandler$??1?$list@U?$pair@$$CBV?$basic_string@DU?$char_traits@D@std@@V?$allocator@D@2@@std@@V?$shared_ptr@UNode@NetvarTree@@@2@@std@@V?$allocator@U?$pair@$$CBV?$basic_string@DU?$char_traits@D@std@@V?$allocator@D@2@@std@@V?$shared_ptr@UNode@NetvarTree@@@2@@std@@@2@@std@@QAE@XZ 1003b020 f   Hooks.obj
 0001:0003a020       __ehhandler$?find@?$basic_string@DU?$char_traits@D@std@@V?$allocator@D@2@@std@@QBEIQBDI@Z 1003b020 f   Hooks.obj
 0001:0003a020       __ehhandler$?begin@?$basic_string@DU?$char_traits@D@std@@V?$allocator@D@2@@std@@QAE?AV?$_String_iterator@V?$_String_val@U?$_Simple_types@D@std@@@std@@@2@XZ 1003b020 f   Hooks.obj
 0001:0003a020       __ehhandler$??1?$_List_alloc@U?$_List_base_types@U?$pair@$$CBV?$basic_string@DU?$char_traits@D@std@@V?$allocator@D@2@@std@@V?$shared_ptr@UNode@NetvarTree@@@2@@std@@V?$allocator@U?$pair@$$CBV?$basic_string@DU?$char_traits@D@std@@V?$allocator@D@2@@std@@V?$shared_ptr@UNode@NetvarTree@@@2@@std@@@2@@std@@@std@@QAE@XZ 1003b020 f   Hooks.obj
 0001:0003a020       __ehhandler$?clear@?$list@U?$pair@$$CBV?$basic_string@DU?$char_traits@D@std@@V?$allocator@D@2@@std@@V?$shared_ptr@UNode@NetvarTree@@@2@@std@@V?$allocator@U?$pair@$$CBV?$basic_string@DU?$char_traits@D@std@@V?$allocator@D@2@@std@@V?$shared_ptr@UNode@NetvarTree@@@2@@std@@@2@@std@@QAEXXZ 1003b020 f   Hooks.obj
 0001:0003a020       __ehhandler$?begin@?$deque@UPlayerRecords@@V?$allocator@UPlayerRecords@@@std@@@std@@QAE?AV?$_Deque_iterator@V?$_Deque_val@U?$_Deque_simple_types@UPlayerRecords@@@std@@@std@@@2@XZ 1003b020 f   Aimbot.obj
 0001:0003a020       __ehhandler$??$?0U?$default_delete@VVMTHook@@@std@@$0A@@?$unique_ptr@VVMTHook@@U?$default_delete@VVMTHook@@@std@@@std@@QAE@XZ 1003b020 f   Hooks.obj
 0001:0003a020       __ehhandler$??1?$vector@PBDV?$allocator@PBD@std@@@std@@QAE@XZ 1003b020 f   Hooks.obj
 0001:0003a020       __ehhandler$??$?0U?$default_delete@$$BY0A@I@std@@$0A@@?$unique_ptr@$$BY0A@IU?$default_delete@$$BY0A@I@std@@@std@@QAE@$$T@Z 1003b020 f   Hooks.obj
 0001:0003a020       __ehhandler$??$_Freenode0@V?$allocator@U?$_List_node@U?$pair@$$CBV?$basic_string@DU?$char_traits@D@std@@V?$allocator@D@2@@std@@V?$shared_ptr@UNode@NetvarTree@@@2@@std@@PAX@std@@@std@@@?$_List_node@U?$pair@$$CBV?$basic_string@DU?$char_traits@D@std@@V?$allocator@D@2@@std@@V?$shared_ptr@UNode@NetvarTree@@@2@@std@@PAX@std@@SAXAAV?$allocator@U?$_List_node@U?$pair@$$CBV?$basic_string@DU?$char_traits@D@std@@V?$allocator@D@2@@std@@V?$shared_ptr@UNode@NetvarTree@@@2@@std@@PAX@std@@@1@PAU01@@Z 1003b020 f   backtacking.obj
 0001:0003a020       __ehhandler$??1Hooks@@QAE@XZ 1003b020 f   Hooks.obj
 0001:0003a020       __ehhandler$??0?$vector@HV?$allocator@H@std@@@std@@QAE@XZ 1003b020 f   Aimbot.obj
 0001:0003a020       __ehhandler$??1?$vector@HV?$allocator@H@std@@@std@@QAE@XZ 1003b020 f   Aimbot.obj
 0001:0003a020       __ehhandler$??0Hooks@@QAE@XZ 1003b020 f   Hooks.obj
 0001:0003a020       __ehhandler$??1?$vector@PAV?$ConfigValue@M@@V?$allocator@PAV?$ConfigValue@M@@@std@@@std@@QAE@XZ 1003b020 f   cfgsaving.obj
 0001:0003a020       __ehhandler$??1ShadowVTManager@@QAE@XZ 1003b020 f   Hooks.obj
 0001:0003a020       __ehhandler$??$?0PAIU?$default_delete@$$BY0A@I@std@@$0A@X@?$unique_ptr@$$BY0A@IU?$default_delete@$$BY0A@I@std@@@std@@QAE@PAI@Z 1003b020 f   Hooks.obj
 0001:0003a020       __ehhandler$??$?0U?$default_delete@VNetvarTree@@@std@@$0A@@?$unique_ptr@VNetvarTree@@U?$default_delete@VNetvarTree@@@std@@@std@@QAE@PAVNetvarTree@@@Z 1003b020 f   Hooks.obj
 0001:0003a020       __ehhandler$??$?0U?$default_delete@VVMTHook@@@std@@$0A@@?$unique_ptr@VVMTHook@@U?$default_delete@VVMTHook@@@std@@@std@@QAE@PAVVMTHook@@@Z 1003b020 f   Hooks.obj
 0001:0003a020       __ehhandler$?zero@?$duration@_JU?$ratio@$00$0DOI@@std@@@chrono@std@@SA?AV123@XZ 1003b020 f   Hooks.obj
 0001:0003a020       __ehhandler$?_Equal@?$basic_string@DU?$char_traits@D@std@@V?$allocator@D@2@@std@@QBE_NQBD@Z 1003b020 f   Hooks.obj
 0001:0003a020       __ehhandler$??1?$shared_ptr@UNode@NetvarTree@@@std@@QAE@XZ 1003b020 f   backtacking.obj
 0001:0003a020       __ehhandler$??1?$_Uninitialized_backout_al@PAVtrace_info@@V?$allocator@Vtrace_info@@@std@@@std@@QAE@XZ 1003b020 f   Hooks.obj
 0001:0003a020       __ehhandler$?now@system_clock@chrono@std@@SA?AV?$time_point@Usystem_clock@chrono@std@@V?$duration@_JU?$ratio@$00$0JIJGIA@@std@@@23@@23@XZ 1003b020 f   Hooks.obj
 0001:0003a020       __ehhandler$?end@?$basic_string@DU?$char_traits@D@std@@V?$allocator@D@2@@std@@QAE?AV?$_String_iterator@V?$_String_val@U?$_Simple_types@D@std@@@std@@@2@XZ 1003b020 f   ESP.obj
 0001:0003a020       __ehhandler$?begin@?$vector@VCMessage@@V?$allocator@VCMessage@@@std@@@std@@QAE?AV?$_Vector_iterator@V?$_Vector_val@U?$_Simple_types@VCMessage@@@std@@@std@@@2@XZ 1003b020 f   Event Logs.obj
 0001:0003a020       __ehhandler$??1?$vector@VCMessage@@V?$allocator@VCMessage@@@std@@@std@@QAE@XZ 1003b020 f   Event Logs.obj
 0001:0003a020       __ehhandler$??0?$vector@PAV?$ConfigValue@H@@V?$allocator@PAV?$ConfigValue@H@@@std@@@std@@QAE@XZ 1003b020 f   cfgsaving.obj
 0001:0003a020       __ehhandler$??1?$vector@PAV?$ConfigValue@H@@V?$allocator@PAV?$ConfigValue@H@@@std@@@std@@QAE@XZ 1003b020 f   cfgsaving.obj
 0001:0003a020       __ehhandler$??1?$vector@V?$_List_unchecked_iterator@V?$_List_val@U?$_List_simple_types@U?$pair@$$CBV?$basic_string@DU?$char_traits@D@std@@V?$allocator@D@2@@std@@V?$shared_ptr@UNode@NetvarTree@@@2@@std@@@std@@@std@@@std@@V?$allocator@V?$_List_unchecked_iterator@V?$_List_val@U?$_List_simple_types@U?$pair@$$CBV?$basic_string@DU?$char_traits@D@std@@V?$allocator@D@2@@std@@V?$shared_ptr@UNode@NetvarTree@@@2@@std@@@std@@@std@@@std@@@2@@std@@QAE@XZ 1003b020 f   Hooks.obj
 0001:0003a020       __ehhandler$??0?$vector@PAV?$ConfigValue@_N@@V?$allocator@PAV?$ConfigValue@_N@@@std@@@std@@QAE@XZ 1003b020 f   cfgsaving.obj
 0001:0003a020       __ehhandler$??0?$vector@VCMessage@@V?$allocator@VCMessage@@@std@@@std@@QAE@XZ 1003b020 f   Event Logs.obj
 0001:0003a020       __ehhandler$?begin@?$vector@Vtrace_info@@V?$allocator@Vtrace_info@@@std@@@std@@QAE?AV?$_Vector_iterator@V?$_Vector_val@U?$_Simple_types@Vtrace_info@@@std@@@std@@@2@XZ 1003b020 f   Hooks.obj
 0001:0003a020       __ehhandler$?_Equal@?$basic_string@DU?$char_traits@D@std@@V?$allocator@D@2@@std@@QBE_NABV12@@Z 1003b020 f   backtacking.obj
 0001:0003a020       __ehhandler$?begin@?$list@U?$pair@$$CBV?$basic_string@DU?$char_traits@D@std@@V?$allocator@D@2@@std@@V?$shared_ptr@UNode@NetvarTree@@@2@@std@@V?$allocator@U?$pair@$$CBV?$basic_string@DU?$char_traits@D@std@@V?$allocator@D@2@@std@@V?$shared_ptr@UNode@NetvarTree@@@2@@std@@@2@@std@@QAE?AV?$_List_iterator@V?$_List_val@U?$_List_simple_types@U?$pair@$$CBV?$basic_string@DU?$char_traits@D@std@@V?$allocator@D@2@@std@@V?$shared_ptr@UNode@NetvarTree@@@2@@std@@@std@@@std@@@2@XZ 1003b020 f   backtacking.obj
 0001:0003a020       __ehhandler$??$?0V?$basic_string@DU?$char_traits@D@std@@V?$allocator@D@2@@std@@$$V$0A@@?$tuple@$$QAV?$basic_string@DU?$char_traits@D@std@@V?$allocator@D@2@@std@@@std@@QAE@$$QAV?$basic_string@DU?$char_traits@D@std@@V?$allocator@D@2@@1@@Z 1003b020 f   backtacking.obj
 0001:0003a020       __ehhandler$??1?$vector@PAV?$ConfigValue@_N@@V?$allocator@PAV?$ConfigValue@_N@@@std@@@std@@QAE@XZ 1003b020 f   cfgsaving.obj
 0001:0003a020       __ehhandler$??0?$basic_string@DU?$char_traits@D@std@@V?$allocator@D@2@@std@@QAE@XZ 1003b020 f   Event Logs.obj
 0001:0003a020       __ehhandler$?_Assign_rv_contents_with_alloc_always_equal@?$basic_string@DU?$char_traits@D@std@@V?$allocator@D@2@@std@@QAEX$$QAV12@U?$integral_constant@_N$00@2@@Z 1003b020 f   backtacking.obj
 0001:0003a020       __ehhandler$?_Make_iter@?$list@U?$pair@$$CBV?$basic_string@DU?$char_traits@D@std@@V?$allocator@D@2@@std@@V?$shared_ptr@UNode@NetvarTree@@@2@@std@@V?$allocator@U?$pair@$$CBV?$basic_string@DU?$char_traits@D@std@@V?$allocator@D@2@@std@@V?$shared_ptr@UNode@NetvarTree@@@2@@std@@@2@@std@@QBE?AV?$_List_iterator@V?$_List_val@U?$_List_simple_types@U?$pair@$$CBV?$basic_string@DU?$char_traits@D@std@@V?$allocator@D@2@@std@@V?$shared_ptr@UNode@NetvarTree@@@2@@std@@@std@@@std@@@2@V?$_List_const_iterator@V?$_List_val@U?$_List_simple_types@U?$pair@$$CBV?$basic_string@DU?$char_traits@D@std@@V?$allocator@D@2@@std@@V?$shared_ptr@UNode@NetvarTree@@@2@@std@@@std@@@std@@@2@@Z 1003b020 f   backtacking.obj
 0001:0003a020       __ehhandler$??1?$_Deque_alloc@U?$_Deque_base_types@Ulc_record@@V?$allocator@Ulc_record@@@std@@@std@@@std@@QAE@XZ 1003b020 f   backtacking.obj
 0001:0003a020       __ehhandler$??0?$vector@PAV?$ConfigValue@M@@V?$allocator@PAV?$ConfigValue@M@@@std@@@std@@QAE@XZ 1003b020 f   cfgsaving.obj
 0001:0003a020       __ehhandler$??4?$basic_string@DU?$char_traits@D@std@@V?$allocator@D@2@@std@@QAEAAV01@$$QAV01@@Z 1003b020 f   Event Logs.obj
 0001:0003a020       __ehhandler$??0?$shared_ptr@UNode@NetvarTree@@@std@@QAE@ABV01@@Z 1003b020 f   NetvarManager.obj
 0001:0003a020       __ehhandler$??0?$basic_string@DU?$char_traits@D@std@@V?$allocator@D@2@@std@@QAE@$$QAV01@@Z 1003b020 f   backtacking.obj
 0001:0003a020       __ehhandler$??1?$basic_string@DU?$char_traits@D@std@@V?$allocator@D@2@@std@@QAE@XZ 1003b020 f   backtacking.obj
 0001:0003a020       __ehhandler$??0?$shared_ptr@UNode@NetvarTree@@@std@@QAE@$$QAV01@@Z 1003b020 f   NetvarManager.obj
 0001:0003a020       __ehhandler$?end@?$deque@UPlayerRecords@@V?$allocator@UPlayerRecords@@@std@@@std@@QAE?AV?$_Deque_iterator@V?$_Deque_val@U?$_Deque_simple_types@UPlayerRecords@@@std@@@std@@@2@XZ 1003b020 f   LagComp.obj
 0001:0003a020       __ehhandler$?_Destroy@?$_Ref_count_obj@UNode@NetvarTree@@@std@@EAEXXZ 1003b020 f   NetvarManager.obj
 0001:0003a020       __ehhandler$?c_str@?$basic_string@DU?$char_traits@D@std@@V?$allocator@D@2@@std@@QBEPBDXZ 1003b020 f   backtacking.obj
 0001:0003a020       __ehhandler$??1?$_Uninitialized_backout_al@PAV?$basic_string@DU?$char_traits@D@std@@V?$allocator@D@2@@std@@V?$allocator@V?$basic_string@DU?$char_traits@D@std@@V?$allocator@D@2@@std@@@2@@std@@QAE@XZ 1003b020 f   Menu.obj
 0001:0003a020       __ehhandler$??$?0U?$default_delete@VNetvarTree@@@std@@$0A@@?$unique_ptr@VNetvarTree@@U?$default_delete@VNetvarTree@@@std@@@std@@QAE@XZ 1003b020 f   NetvarManager.obj
 0001:0003a020       __ehhandler$??1?$_Deque_alloc@U?$_Deque_base_types@UPlayerRecords@@V?$allocator@UPlayerRecords@@@std@@@std@@@std@@QAE@XZ 1003b020 f   LagComp.obj
 0001:0003a020       __ehhandler$??0?$vector@V?$_List_unchecked_iterator@V?$_List_val@U?$_List_simple_types@U?$pair@$$CBV?$basic_string@DU?$char_traits@D@std@@V?$allocator@D@2@@std@@V?$shared_ptr@UNode@NetvarTree@@@2@@std@@@std@@@std@@@std@@V?$allocator@V?$_List_unchecked_iterator@V?$_List_val@U?$_List_simple_types@U?$pair@$$CBV?$basic_string@DU?$char_traits@D@std@@V?$allocator@D@2@@std@@V?$shared_ptr@UNode@NetvarTree@@@2@@std@@@std@@@std@@@std@@@2@@std@@QAE@ABV?$allocator@V?$_List_unchecked_iterator@V?$_List_val@U?$_List_simple_types@U?$pair@$$CBV?$basic_string@DU?$char_traits@D@std@@V?$allocator@D@2@@std@@V?$shared_ptr@UNode@NetvarTree@@@2@@std@@@std@@@std@@@std@@@1@@Z 1003b020 f   NetvarManager.obj
 0001:0003a020       __ehhandler$??1?$_Uninitialized_backout_al@PAVCMessage@@V?$allocator@VCMessage@@@std@@@std@@QAE@XZ 1003b020 f   Event Logs.obj
 0001:0003a020       __ehhandler$??1?$deque@UPlayerRecords@@V?$allocator@UPlayerRecords@@@std@@@std@@QAE@XZ 1003b020 f   LagComp.obj
 0001:0003a020       __ehhandler$??1?$deque@Ulc_record@@V?$allocator@Ulc_record@@@std@@@std@@QAE@XZ 1003b020 f   backtacking.obj
 0001:0003a020       __ehhandler$??1?$array@V?$deque@Ulc_record@@V?$allocator@Ulc_record@@@std@@@std@@$0EA@@std@@QAE@XZ 1003b020 f   backtacking.obj
 0001:0003a020       __ehhandler$??1LagComp@@QAE@XZ 1003b020 f   LagComp.obj
 0001:0003a020       __ehhandler$??1?$_Uninitialized_backout_al@PAV?$_List_unchecked_iterator@V?$_List_val@U?$_List_simple_types@U?$pair@$$CBV?$basic_string@DU?$char_traits@D@std@@V?$allocator@D@2@@std@@V?$shared_ptr@UNode@NetvarTree@@@2@@std@@@std@@@std@@@std@@V?$allocator@V?$_List_unchecked_iterator@V?$_List_val@U?$_List_simple_types@U?$pair@$$CBV?$basic_string@DU?$char_traits@D@std@@V?$allocator@D@2@@std@@V?$shared_ptr@UNode@NetvarTree@@@2@@std@@@std@@@std@@@std@@@2@@std@@QAE@XZ 1003b020 f   backtacking.obj
 0001:0003a020       __ehhandler$??0?$vector@V?$basic_string@DU?$char_traits@D@std@@V?$allocator@D@2@@std@@V?$allocator@V?$basic_string@DU?$char_traits@D@std@@V?$allocator@D@2@@std@@@2@@std@@QAE@XZ 1003b020 f   Menu.obj
 0001:0003a020       __ehhandler$?end@?$vector@PAVDot@@V?$allocator@PAVDot@@@std@@@std@@QAE?AV?$_Vector_iterator@V?$_Vector_val@U?$_Simple_types@PAVDot@@@std@@@std@@@2@XZ 1003b020 f   dots.obj
 0001:0003a020       __ehhandler$?begin@?$vector@PAVDot@@V?$allocator@PAVDot@@@std@@@std@@QAE?AV?$_Vector_iterator@V?$_Vector_val@U?$_Simple_types@PAVDot@@@std@@@std@@@2@XZ 1003b020 f   dots.obj
 0001:0003a020       __ehhandler$??1?$vector@PAVDot@@V?$allocator@PAVDot@@@std@@@std@@QAE@XZ 1003b020 f   dots.obj
 0001:0003a020       __ehhandler$??0?$vector@PAVDot@@V?$allocator@PAVDot@@@std@@@std@@QAE@XZ 1003b020 f   dots.obj
 0001:0003a020       __ehhandler$??1?$vector@V?$basic_string@DU?$char_traits@D@std@@V?$allocator@D@2@@std@@V?$allocator@V?$basic_string@DU?$char_traits@D@std@@V?$allocator@D@2@@std@@@2@@std@@QAE@XZ 1003b020 f   Menu.obj
 0001:0003a020       __ehhandler$??1?$unique_ptr@$$BY0A@IU?$default_delete@$$BY0A@I@std@@@std@@QAE@XZ 1003b020 f   Hooks.obj
 0001:0003a020       __ehhandler$??0?$vector@Vtrace_info@@V?$allocator@Vtrace_info@@@std@@@std@@QAE@XZ 1003b020 f   Hooks.obj
 0001:0003a020       __ehhandler$?end@?$list@U?$pair@$$CBV?$basic_string@DU?$char_traits@D@std@@V?$allocator@D@2@@std@@V?$shared_ptr@UNode@NetvarTree@@@2@@std@@V?$allocator@U?$pair@$$CBV?$basic_string@DU?$char_traits@D@std@@V?$allocator@D@2@@std@@V?$shared_ptr@UNode@NetvarTree@@@2@@std@@@2@@std@@QAE?AV?$_List_iterator@V?$_List_val@U?$_List_simple_types@U?$pair@$$CBV?$basic_string@DU?$char_traits@D@std@@V?$allocator@D@2@@std@@V?$shared_ptr@UNode@NetvarTree@@@2@@std@@@std@@@std@@@2@XZ 1003b020 f   backtacking.obj
 0001:0003a020       __ehhandler$??1?$vector@Vtrace_info@@V?$allocator@Vtrace_info@@@std@@@std@@QAE@XZ 1003b020 f   Hooks.obj
 0001:0003a020       __ehhandler$??$?0U?$default_delete@VShadowVTManager@@@std@@$0A@@?$unique_ptr@VShadowVTManager@@U?$default_delete@VShadowVTManager@@@std@@@std@@QAE@XZ 1003b020 f   Hooks.obj
 0001:0003a030       __unwindfunclet$??0?$basic_string@DU?$char_traits@D@std@@V?$allocator@D@2@@std@@QAE@ID@Z$0 1003b030 f   cfgsaving.obj
 0001:0003a030       __unwindfunclet$??0?$basic_string@DU?$char_traits@D@std@@V?$allocator@D@2@@std@@QAE@QBD@Z$0 1003b030 f   backtacking.obj
 0001:0003a038       __ehhandler$??0?$basic_string@DU?$char_traits@D@std@@V?$allocator@D@2@@std@@QAE@QBD@Z 1003b038 f   backtacking.obj
 0001:0003a038       __ehhandler$??0?$basic_string@DU?$char_traits@D@std@@V?$allocator@D@2@@std@@QAE@ID@Z 1003b038 f   cfgsaving.obj
 0001:0003a050       __ehhandler$?_Reallocate_exactly@?$vector@V?$_List_unchecked_iterator@V?$_List_val@U?$_List_simple_types@U?$pair@$$CBV?$basic_string@DU?$char_traits@D@std@@V?$allocator@D@2@@std@@V?$shared_ptr@UNode@NetvarTree@@@2@@std@@@std@@@std@@@std@@V?$allocator@V?$_List_unchecked_iterator@V?$_List_val@U?$_List_simple_types@U?$pair@$$CBV?$basic_string@DU?$char_traits@D@std@@V?$allocator@D@2@@std@@V?$shared_ptr@UNode@NetvarTree@@@2@@std@@@std@@@std@@@std@@@2@@std@@AAEXI@Z 1003b050 f   backtacking.obj
 0001:0003a060       __unwindfunclet$??$GetOffset@PBDPBDPBD@NetvarTree@@QAEHPBD000@Z$0 1003b060 f   Aimbot.obj
 0001:0003a060       __unwindfunclet$??$GetOffset@PBDPBD@NetvarTree@@QAEHPBD00@Z$0 1003b060 f   Aimbot.obj
 0001:0003a060       __unwindfunclet$??$GetOffset@PBD@NetvarTree@@QAEHPBD0@Z$0 1003b060 f   backtacking.obj
 0001:0003a068       __ehhandler$??$GetOffset@PBDPBDPBD@NetvarTree@@QAEHPBD000@Z 1003b068 f   Aimbot.obj
 0001:0003a068       __ehhandler$??$GetOffset@PBDPBD@NetvarTree@@QAEHPBD00@Z 1003b068 f   Aimbot.obj
 0001:0003a068       __ehhandler$??$GetOffset@PBD@NetvarTree@@QAEHPBD0@Z 1003b068 f   backtacking.obj
 0001:0003a080       __unwindfunclet$??$_Uninitialized_move_al_unchecked@PAV?$_List_unchecked_iterator@V?$_List_val@U?$_List_simple_types@U?$pair@$$CBV?$basic_string@DU?$char_traits@D@std@@V?$allocator@D@2@@std@@V?$shared_ptr@UNode@NetvarTree@@@2@@std@@@std@@@std@@@std@@PAV12@V?$allocator@V?$_List_unchecked_iterator@V?$_List_val@U?$_List_simple_types@U?$pair@$$CBV?$basic_string@DU?$char_traits@D@std@@V?$allocator@D@2@@std@@V?$shared_ptr@UNode@NetvarTree@@@2@@std@@@std@@@std@@@std@@@2@@std@@YAPAV?$_List_unchecked_iterator@V?$_List_val@U?$_List_simple_types@U?$pair@$$CBV?$basic_string@DU?$char_traits@D@std@@V?$allocator@D@2@@std@@V?$shared_ptr@UNode@NetvarTree@@@2@@std@@@std@@@std@@@0@PAV10@QAV10@1AAV?$allocator@V?$_List_unchecked_iterator@V?$_List_val@U?$_List_simple_types@U?$pair@$$CBV?$basic_string@DU?$char_traits@D@std@@V?$allocator@D@2@@std@@V?$shared_ptr@UNode@NetvarTree@@@2@@std@@@std@@@std@@@std@@@0@U_General_ptr_iterator_tag@0@U_Unused_parameter@0@@Z$0 1003b080 f   backtacking.obj
 0001:0003a080       __unwindfunclet$??$_Uninit_alloc_fill_n1@PAV?$_List_unchecked_iterator@V?$_List_val@U?$_List_simple_types@U?$pair@$$CBV?$basic_string@DU?$char_traits@D@std@@V?$allocator@D@2@@std@@V?$shared_ptr@UNode@NetvarTree@@@2@@std@@@std@@@std@@@std@@IV?$allocator@V?$_List_unchecked_iterator@V?$_List_val@U?$_List_simple_types@U?$pair@$$CBV?$basic_string@DU?$char_traits@D@std@@V?$allocator@D@2@@std@@V?$shared_ptr@UNode@NetvarTree@@@2@@std@@@std@@@std@@@std@@@2@@std@@YAPAV?$_List_unchecked_iterator@V?$_List_val@U?$_List_simple_types@U?$pair@$$CBV?$basic_string@DU?$char_traits@D@std@@V?$allocator@D@2@@std@@V?$shared_ptr@UNode@NetvarTree@@@2@@std@@@std@@@std@@@0@QAV10@IABV10@AAV?$allocator@V?$_List_unchecked_iterator@V?$_List_val@U?$_List_simple_types@U?$pair@$$CBV?$basic_string@DU?$char_traits@D@std@@V?$allocator@D@2@@std@@V?$shared_ptr@UNode@NetvarTree@@@2@@std@@@std@@@std@@@std@@@0@U?$integral_constant@_N$0A@@0@@Z$0 1003b080 f   backtacking.obj
 0001:0003a080       __unwindfunclet$??$_Uninitialized_move_al_unchecked@PAVtrace_info@@PAV1@V?$allocator@Vtrace_info@@@std@@@std@@YAPAVtrace_info@@PAV1@QAV1@1AAV?$allocator@Vtrace_info@@@0@U_General_ptr_iterator_tag@0@U_Unused_parameter@0@@Z$0 1003b080 f   Hooks.obj
 0001:0003a088       __ehhandler$??$_Uninitialized_move_al_unchecked@PAVtrace_info@@PAV1@V?$allocator@Vtrace_info@@@std@@@std@@YAPAVtrace_info@@PAV1@QAV1@1AAV?$allocator@Vtrace_info@@@0@U_General_ptr_iterator_tag@0@U_Unused_parameter@0@@Z 1003b088 f   Hooks.obj
 0001:0003a088       __ehhandler$??$_Uninit_alloc_fill_n1@PAV?$_List_unchecked_iterator@V?$_List_val@U?$_List_simple_types@U?$pair@$$CBV?$basic_string@DU?$char_traits@D@std@@V?$allocator@D@2@@std@@V?$shared_ptr@UNode@NetvarTree@@@2@@std@@@std@@@std@@@std@@IV?$allocator@V?$_List_unchecked_iterator@V?$_List_val@U?$_List_simple_types@U?$pair@$$CBV?$basic_string@DU?$char_traits@D@std@@V?$allocator@D@2@@std@@V?$shared_ptr@UNode@NetvarTree@@@2@@std@@@std@@@std@@@std@@@2@@std@@YAPAV?$_List_unchecked_iterator@V?$_List_val@U?$_List_simple_types@U?$pair@$$CBV?$basic_string@DU?$char_traits@D@std@@V?$allocator@D@2@@std@@V?$shared_ptr@UNode@NetvarTree@@@2@@std@@@std@@@std@@@0@QAV10@IABV10@AAV?$allocator@V?$_List_unchecked_iterator@V?$_List_val@U?$_List_simple_types@U?$pair@$$CBV?$basic_string@DU?$char_traits@D@std@@V?$allocator@D@2@@std@@V?$shared_ptr@UNode@NetvarTree@@@2@@std@@@std@@@std@@@std@@@0@U?$integral_constant@_N$0A@@0@@Z 1003b088 f   backtacking.obj
 0001:0003a088       __ehhandler$??$_Uninitialized_move_al_unchecked@PAV?$_List_unchecked_iterator@V?$_List_val@U?$_List_simple_types@U?$pair@$$CBV?$basic_string@DU?$char_traits@D@std@@V?$allocator@D@2@@std@@V?$shared_ptr@UNode@NetvarTree@@@2@@std@@@std@@@std@@@std@@PAV12@V?$allocator@V?$_List_unchecked_iterator@V?$_List_val@U?$_List_simple_types@U?$pair@$$CBV?$basic_string@DU?$char_traits@D@std@@V?$allocator@D@2@@std@@V?$shared_ptr@UNode@NetvarTree@@@2@@std@@@std@@@std@@@std@@@2@@std@@YAPAV?$_List_unchecked_iterator@V?$_List_val@U?$_List_simple_types@U?$pair@$$CBV?$basic_string@DU?$char_traits@D@std@@V?$allocator@D@2@@std@@V?$shared_ptr@UNode@NetvarTree@@@2@@std@@@std@@@std@@@0@PAV10@QAV10@1AAV?$allocator@V?$_List_unchecked_iterator@V?$_List_val@U?$_List_simple_types@U?$pair@$$CBV?$basic_string@DU?$char_traits@D@std@@V?$allocator@D@2@@std@@V?$shared_ptr@UNode@NetvarTree@@@2@@std@@@std@@@std@@@std@@@0@U_General_ptr_iterator_tag@0@U_Unused_parameter@0@@Z 1003b088 f   backtacking.obj
 0001:0003a0a0       __ehhandler$?_Buynode0@?$_List_alloc@U?$_List_base_types@U?$pair@$$CBV?$basic_string@DU?$char_traits@D@std@@V?$allocator@D@2@@std@@V?$shared_ptr@UNode@NetvarTree@@@2@@std@@V?$allocator@U?$pair@$$CBV?$basic_string@DU?$char_traits@D@std@@V?$allocator@D@2@@std@@V?$shared_ptr@UNode@NetvarTree@@@2@@std@@@2@@std@@@std@@QAEPAU?$_List_node@U?$pair@$$CBV?$basic_string@DU?$char_traits@D@std@@V?$allocator@D@2@@std@@V?$shared_ptr@UNode@NetvarTree@@@2@@std@@PAX@2@PAU32@0@Z 1003b0a0 f   backtacking.obj
 0001:0003a0b0       __ehhandler$??$_Insert@AAU?$pair@$$CBV?$basic_string@DU?$char_traits@D@std@@V?$allocator@D@2@@std@@V?$shared_ptr@UNode@NetvarTree@@@2@@std@@V?$_List_unchecked_iterator@V?$_List_val@U?$_List_simple_types@U?$pair@$$CBV?$basic_string@DU?$char_traits@D@std@@V?$allocator@D@2@@std@@V?$shared_ptr@UNode@NetvarTree@@@2@@std@@@std@@@std@@@2@@?$_Hash@V?$_Umap_traits@V?$basic_string@DU?$char_traits@D@std@@V?$allocator@D@2@@std@@V?$shared_ptr@UNode@NetvarTree@@@2@V?$_Uhash_compare@V?$basic_string@DU?$char_traits@D@std@@V?$allocator@D@2@@std@@U?$hash@V?$basic_string@DU?$char_traits@D@std@@V?$allocator@D@2@@std@@@2@U?$equal_to@V?$basic_string@DU?$char_traits@D@std@@V?$allocator@D@2@@std@@@2@@2@V?$allocator@U?$pair@$$CBV?$basic_string@DU?$char_traits@D@std@@V?$allocator@D@2@@std@@V?$shared_ptr@UNode@NetvarTree@@@2@@std@@@2@$0A@@std@@@std@@IAE?AU?$pair@V?$_List_iterator@V?$_List_val@U?$_List_simple_types@U?$pair@$$CBV?$basic_string@DU?$char_traits@D@std@@V?$allocator@D@2@@std@@V?$shared_ptr@UNode@NetvarTree@@@2@@std@@@std@@@std@@@std@@_N@1@AAU?$pair@$$CBV?$basic_string@DU?$char_traits@D@std@@V?$allocator@D@2@@std@@V?$shared_ptr@UNode@NetvarTree@@@2@@1@V?$_List_unchecked_iterator@V?$_List_val@U?$_List_simple_types@U?$pair@$$CBV?$basic_string@DU?$char_traits@D@std@@V?$allocator@D@2@@std@@V?$shared_ptr@UNode@NetvarTree@@@2@@std@@@std@@@std@@@1@@Z 1003b0b0 f   backtacking.obj
 0001:0003a0c0       __ehhandler$??$_Buynode@ABUpiecewise_construct_t@std@@V?$tuple@$$QAV?$basic_string@DU?$char_traits@D@std@@V?$allocator@D@2@@std@@@2@V?$tuple@$$V@2@@?$_List_buy@U?$pair@$$CBV?$basic_string@DU?$char_traits@D@std@@V?$allocator@D@2@@std@@V?$shared_ptr@UNode@NetvarTree@@@2@@std@@V?$allocator@U?$pair@$$CBV?$basic_string@DU?$char_traits@D@std@@V?$allocator@D@2@@std@@V?$shared_ptr@UNode@NetvarTree@@@2@@std@@@2@@std@@QAEPAU?$_List_node@U?$pair@$$CBV?$basic_string@DU?$char_traits@D@std@@V?$allocator@D@2@@std@@V?$shared_ptr@UNode@NetvarTree@@@2@@std@@PAX@1@PAU21@0ABUpiecewise_construct_t@1@$$QAV?$tuple@$$QAV?$basic_string@DU?$char_traits@D@std@@V?$allocator@D@2@@std@@@1@$$QAV?$tuple@$$V@1@@Z 1003b0c0 f   backtacking.obj
 0001:0003a0d0       __unwindfunclet$?GetActiveWeapon@C_BaseEntity@@QAEPAVC_BaseCombatWeapon@@XZ$0 1003b0d0 f   Legitbot.obj
 0001:0003a0dc       __ehhandler$?GetActiveWeapon@C_BaseEntity@@QAEPAVC_BaseCombatWeapon@@XZ 1003b0dc f   Legitbot.obj
 0001:0003a0f0       __unwindfunclet$?IsImmune@C_BaseEntity@@QAE_NXZ$0 1003b0f0 f   Legitbot.obj
 0001:0003a0fc       __ehhandler$?IsImmune@C_BaseEntity@@QAE_NXZ 1003b0fc f   Legitbot.obj
 0001:0003a110       __unwindfunclet$??0CMessage@@QAE@V?$basic_string@DU?$char_traits@D@std@@V?$allocator@D@2@@std@@MUColor@@H@Z$0 1003b110 f   Event Logs.obj
 0001:0003a110       __unwindfunclet$??0?$ConfigValue@M@@QAE@V?$basic_string@DU?$char_traits@D@std@@V?$allocator@D@2@@std@@PAM@Z$0 1003b110 f   cfgsaving.obj
 0001:0003a110       __unwindfunclet$??0?$ConfigValue@_N@@QAE@V?$basic_string@DU?$char_traits@D@std@@V?$allocator@D@2@@std@@PA_N@Z$0 1003b110 f   cfgsaving.obj
 0001:0003a110       __unwindfunclet$??0?$ConfigValue@H@@QAE@V?$basic_string@DU?$char_traits@D@std@@V?$allocator@D@2@@std@@PAH@Z$0 1003b110 f   cfgsaving.obj
 0001:0003a118       __unwindfunclet$??0CMessage@@QAE@V?$basic_string@DU?$char_traits@D@std@@V?$allocator@D@2@@std@@MUColor@@H@Z$1 1003b118 f   Event Logs.obj
 0001:0003a118       __unwindfunclet$??0?$ConfigValue@_N@@QAE@V?$basic_string@DU?$char_traits@D@std@@V?$allocator@D@2@@std@@PA_N@Z$1 1003b118 f   cfgsaving.obj
 0001:0003a118       __unwindfunclet$??0?$ConfigValue@H@@QAE@V?$basic_string@DU?$char_traits@D@std@@V?$allocator@D@2@@std@@PAH@Z$1 1003b118 f   cfgsaving.obj
 0001:0003a118       __unwindfunclet$??0?$ConfigValue@M@@QAE@V?$basic_string@DU?$char_traits@D@std@@V?$allocator@D@2@@std@@PAM@Z$1 1003b118 f   cfgsaving.obj
 0001:0003a120       __ehhandler$??0?$ConfigValue@H@@QAE@V?$basic_string@DU?$char_traits@D@std@@V?$allocator@D@2@@std@@PAH@Z 1003b120 f   cfgsaving.obj
 0001:0003a120       __ehhandler$??0CMessage@@QAE@V?$basic_string@DU?$char_traits@D@std@@V?$allocator@D@2@@std@@MUColor@@H@Z 1003b120 f   Event Logs.obj
 0001:0003a120       __ehhandler$??0?$ConfigValue@M@@QAE@V?$basic_string@DU?$char_traits@D@std@@V?$allocator@D@2@@std@@PAM@Z 1003b120 f   cfgsaving.obj
 0001:0003a120       __ehhandler$??0?$ConfigValue@_N@@QAE@V?$basic_string@DU?$char_traits@D@std@@V?$allocator@D@2@@std@@PA_N@Z 1003b120 f   cfgsaving.obj
 0001:0003a130       __unwindfunclet$?log@events@@YAXV?$basic_string@DU?$char_traits@D@std@@V?$allocator@D@2@@std@@@Z$0 1003b130 f   Event Logs.obj
 0001:0003a13b       __unwindfunclet$?log@events@@YAXV?$basic_string@DU?$char_traits@D@std@@V?$allocator@D@2@@std@@@Z$2 1003b13b f   Event Logs.obj
 0001:0003a146       __unwindfunclet$?log@events@@YAXV?$basic_string@DU?$char_traits@D@std@@V?$allocator@D@2@@std@@@Z$3 1003b146 f   Event Logs.obj
 0001:0003a14e       __ehhandler$?log@events@@YAXV?$basic_string@DU?$char_traits@D@std@@V?$allocator@D@2@@std@@@Z 1003b14e f   Event Logs.obj
 0001:0003a160       __unwindfunclet$?print@events@@YAXV?$basic_string@DU?$char_traits@D@std@@V?$allocator@D@2@@std@@@Z$0 1003b160 f   Event Logs.obj
 0001:0003a160       __unwindfunclet$?Button@Menu@@AAEXV?$basic_string@DU?$char_traits@D@std@@V?$allocator@D@2@@std@@PA_NH@Z$0 1003b160 f   Menu.obj
 0001:0003a160       __unwindfunclet$?CheckBox@Menu@@AAEXV?$basic_string@DU?$char_traits@D@std@@V?$allocator@D@2@@std@@PA_N@Z$0 1003b160 f   Menu.obj
 0001:0003a160       __unwindfunclet$?group_box@Menu@@AAEXV?$basic_string@DU?$char_traits@D@std@@V?$allocator@D@2@@std@@HHHH@Z$0 1003b160 f   Menu.obj
 0001:0003a160       __unwindfunclet$?text@Menu@@AAEXV?$basic_string@DU?$char_traits@D@std@@V?$allocator@D@2@@std@@HH@Z$0 1003b160 f   Menu.obj
 0001:0003a160       __unwindfunclet$?ColorPicker@Menu@@AAEXV?$basic_string@DU?$char_traits@D@std@@V?$allocator@D@2@@std@@AAUColorV2@@H@Z$0 1003b160 f   Menu.obj
 0001:0003a160       __unwindfunclet$?Tab@Menu@@AAEXV?$basic_string@DU?$char_traits@D@std@@V?$allocator@D@2@@std@@@Z$0 1003b160 f   Menu.obj
 0001:0003a16b       __ehhandler$?print@events@@YAXV?$basic_string@DU?$char_traits@D@std@@V?$allocator@D@2@@std@@@Z 1003b16b f   Event Logs.obj
 0001:0003a16b       __ehhandler$?text@Menu@@AAEXV?$basic_string@DU?$char_traits@D@std@@V?$allocator@D@2@@std@@HH@Z 1003b16b f   Menu.obj
 0001:0003a16b       __ehhandler$?ColorPicker@Menu@@AAEXV?$basic_string@DU?$char_traits@D@std@@V?$allocator@D@2@@std@@AAUColorV2@@H@Z 1003b16b f   Menu.obj
 0001:0003a16b       __ehhandler$?group_box@Menu@@AAEXV?$basic_string@DU?$char_traits@D@std@@V?$allocator@D@2@@std@@HHHH@Z 1003b16b f   Menu.obj
 0001:0003a16b       __ehhandler$?Button@Menu@@AAEXV?$basic_string@DU?$char_traits@D@std@@V?$allocator@D@2@@std@@PA_NH@Z 1003b16b f   Menu.obj
 0001:0003a16b       __ehhandler$?CheckBox@Menu@@AAEXV?$basic_string@DU?$char_traits@D@std@@V?$allocator@D@2@@std@@PA_N@Z 1003b16b f   Menu.obj
 0001:0003a16b       __ehhandler$?Tab@Menu@@AAEXV?$basic_string@DU?$char_traits@D@std@@V?$allocator@D@2@@std@@@Z 1003b16b f   Menu.obj
 0001:0003a180       __unwindfunclet$??0?$basic_string@DU?$char_traits@D@std@@V?$allocator@D@2@@std@@QAE@ABV01@@Z$0 1003b180 f   Event Logs.obj
 0001:0003a180       __unwindfunclet$??$?0PADX@?$basic_string@DU?$char_traits@D@std@@V?$allocator@D@2@@std@@QAE@PAD0ABV?$allocator@D@1@@Z$0 1003b180 f   chams.obj
 0001:0003a188       __ehhandler$??0?$basic_string@DU?$char_traits@D@std@@V?$allocator@D@2@@std@@QAE@ABV01@@Z 1003b188 f   Event Logs.obj
 0001:0003a188       __ehhandler$??$?0PADX@?$basic_string@DU?$char_traits@D@std@@V?$allocator@D@2@@std@@QAE@PAD0ABV?$allocator@D@1@@Z 1003b188 f   chams.obj
 0001:0003a1a0       __ehhandler$??$_Emplace_reallocate@VCMessage@@@?$vector@VCMessage@@V?$allocator@VCMessage@@@std@@@std@@QAEPAVCMessage@@QAV2@$$QAV2@@Z 1003b1a0 f   Event Logs.obj
 0001:0003a1b0       __unwindfunclet$??$_Uninitialized_move_al_unchecked@PAVCMessage@@PAV1@V?$allocator@VCMessage@@@std@@@std@@YAPAVCMessage@@PAV1@QAV1@1AAV?$allocator@VCMessage@@@0@U_General_ptr_iterator_tag@0@U_Unused_parameter@0@@Z$0 1003b1b0 f   Event Logs.obj
 0001:0003a1b8       __ehhandler$??$_Uninitialized_move_al_unchecked@PAVCMessage@@PAV1@V?$allocator@VCMessage@@@std@@@std@@YAPAVCMessage@@PAV1@QAV1@1AAV?$allocator@VCMessage@@@0@U_General_ptr_iterator_tag@0@U_Unused_parameter@0@@Z 1003b1b8 f   Event Logs.obj
 0001:0003a1d0       __unwindfunclet$?GetFlags@C_BaseEntity@@QAE?AW4EntityFlags@@XZ$0 1003b1d0 f   Aimbot.obj
 0001:0003a1dc       __ehhandler$?GetFlags@C_BaseEntity@@QAE?AW4EntityFlags@@XZ 1003b1dc f   Aimbot.obj
 0001:0003a1f0       __unwindfunclet$?GetLifeState@C_BaseEntity@@QAE_NXZ$0 1003b1f0 f   Aimbot.obj
 0001:0003a1fc       __ehhandler$?GetLifeState@C_BaseEntity@@QAE_NXZ 1003b1fc f   Aimbot.obj
 0001:0003a210       __unwindfunclet$?GetTickBase@C_BaseEntity@@QAEHXZ$0 1003b210 f   Aimbot.obj
 0001:0003a21c       __ehhandler$?GetTickBase@C_BaseEntity@@QAEHXZ 1003b21c f   Aimbot.obj
 0001:0003a230       __unwindfunclet$?GetEyeAngles@C_BaseEntity@@QAE?AVVector@@XZ$0 1003b230 f   Aimbot.obj
 0001:0003a23c       __ehhandler$?GetEyeAngles@C_BaseEntity@@QAE?AVVector@@XZ 1003b23c f   Aimbot.obj
 0001:0003a250       __unwindfunclet$?GetOrigin@C_BaseEntity@@QAE?AVVector@@XZ$0 1003b250 f   Aimbot.obj
 0001:0003a25c       __ehhandler$?GetOrigin@C_BaseEntity@@QAE?AVVector@@XZ 1003b25c f   Aimbot.obj
 0001:0003a270       __unwindfunclet$?GetVelocity@C_BaseEntity@@QAE?AVVector@@XZ$0 1003b270 f   Aimbot.obj
 0001:0003a27c       __ehhandler$?GetVelocity@C_BaseEntity@@QAE?AVVector@@XZ 1003b27c f   Aimbot.obj
 0001:0003a290       __unwindfunclet$?GetItemDefinitionIndex@C_BaseCombatWeapon@@QAE?AW4ItemDefinitionIndex@@XZ$0 1003b290 f   Aimbot.obj
 0001:0003a29c       __ehhandler$?GetItemDefinitionIndex@C_BaseCombatWeapon@@QAE?AW4ItemDefinitionIndex@@XZ 1003b29c f   Aimbot.obj
 0001:0003a2b0       __unwindfunclet$?GetLastShotTime@C_BaseCombatWeapon@@QAEMXZ$0 1003b2b0 f   Aimbot.obj
 0001:0003a2bc       __ehhandler$?GetLastShotTime@C_BaseCombatWeapon@@QAEMXZ 1003b2bc f   Aimbot.obj
 0001:0003a2d0       __unwindfunclet$?GetNextPrimaryAttack@C_BaseCombatWeapon@@QAEMXZ$0 1003b2d0 f   Aimbot.obj
 0001:0003a2dc       __ehhandler$?GetNextPrimaryAttack@C_BaseCombatWeapon@@QAEMXZ 1003b2dc f   Aimbot.obj
 0001:0003a2f0       __unwindfunclet$?Hitscan@Aimbot@@AAE?AVVector@@PAVC_BaseEntity@@@Z$0 1003b2f0 f   Aimbot.obj
 0001:0003a2f8       __ehhandler$?Hitscan@Aimbot@@AAE?AVVector@@PAVC_BaseEntity@@@Z 1003b2f8 f   Aimbot.obj
 0001:0003a310       __unwindfunclet$?at@?$deque@UPlayerRecords@@V?$allocator@UPlayerRecords@@@std@@@std@@QAEAAUPlayerRecords@@I@Z$0 1003b310 f   Aimbot.obj
 0001:0003a318       __unwindfunclet$?at@?$deque@UPlayerRecords@@V?$allocator@UPlayerRecords@@@std@@@std@@QAEAAUPlayerRecords@@I@Z$1 1003b318 f   Aimbot.obj
 0001:0003a320       __ehhandler$?at@?$deque@UPlayerRecords@@V?$allocator@UPlayerRecords@@@std@@@std@@QAEAAUPlayerRecords@@I@Z 1003b320 f   Aimbot.obj
 0001:0003a330       __unwindfunclet$??H?$_Deque_iterator@V?$_Deque_val@U?$_Deque_simple_types@UPlayerRecords@@@std@@@std@@@std@@QBE?AV01@H@Z$0 1003b330 f   Aimbot.obj
 0001:0003a338       __ehhandler$??H?$_Deque_iterator@V?$_Deque_val@U?$_Deque_simple_types@UPlayerRecords@@@std@@@std@@@std@@QBE?AV01@H@Z 1003b338 f   Aimbot.obj
 0001:0003a350       __unwindfunclet$??$?0H@?$_Ref_count_obj@UNode@NetvarTree@@@std@@QAE@$$QAH@Z$0 1003b350 f   NetvarManager.obj
 0001:0003a350       __unwindfunclet$??0?$_Deque_const_iterator@V?$_Deque_val@U?$_Deque_simple_types@UPlayerRecords@@@std@@@std@@@std@@QAE@IPBU_Container_base12@1@@Z$0 1003b350 f   Aimbot.obj
 0001:0003a358       __ehhandler$??$?0H@?$_Ref_count_obj@UNode@NetvarTree@@@std@@QAE@$$QAH@Z 1003b358 f   NetvarManager.obj
 0001:0003a358       __ehhandler$??0?$_Deque_const_iterator@V?$_Deque_val@U?$_Deque_simple_types@UPlayerRecords@@@std@@@std@@@std@@QAE@IPBU_Container_base12@1@@Z 1003b358 f   Aimbot.obj
 0001:0003a370       __ehhandler$??$_Emplace_reallocate@PAV?$ConfigValue@H@@@?$vector@PAV?$ConfigValue@H@@V?$allocator@PAV?$ConfigValue@H@@@std@@@std@@QAEPAPAV?$ConfigValue@H@@QAPAV2@$$QAPAV2@@Z 1003b370 f   cfgsaving.obj
 0001:0003a370       __ehhandler$??$_Emplace_reallocate@H@?$vector@HV?$allocator@H@std@@@std@@QAEPAHQAH$$QAH@Z 1003b370 f   Aimbot.obj
 0001:0003a370       __ehhandler$??$_Emplace_reallocate@PAVDot@@@?$vector@PAVDot@@V?$allocator@PAVDot@@@std@@@std@@QAEPAPAVDot@@QAPAV2@$$QAPAV2@@Z 1003b370 f   dots.obj
 0001:0003a370       __ehhandler$??$_Emplace_reallocate@PAV?$ConfigValue@_N@@@?$vector@PAV?$ConfigValue@_N@@V?$allocator@PAV?$ConfigValue@_N@@@std@@@std@@QAEPAPAV?$ConfigValue@_N@@QAPAV2@$$QAPAV2@@Z 1003b370 f   cfgsaving.obj
 0001:0003a370       __ehhandler$??$_Emplace_reallocate@PAV?$ConfigValue@M@@@?$vector@PAV?$ConfigValue@M@@V?$allocator@PAV?$ConfigValue@M@@@std@@@std@@QAEPAPAV?$ConfigValue@M@@QAPAV2@$$QAPAV2@@Z 1003b370 f   cfgsaving.obj
 0001:0003a380       __unwindfunclet$?IsNade@C_BaseEntity@@QAE_NXZ$0 1003b380 f   CEntity.obj
 0001:0003a380       __unwindfunclet$??$GetOffsetRecursive@PBD@NetvarTree@@AAEHAAV?$unordered_map@V?$basic_string@DU?$char_traits@D@std@@V?$allocator@D@2@@std@@V?$shared_ptr@UNode@NetvarTree@@@2@U?$hash@V?$basic_string@DU?$char_traits@D@std@@V?$allocator@D@2@@std@@@2@U?$equal_to@V?$basic_string@DU?$char_traits@D@std@@V?$allocator@D@2@@std@@@2@V?$allocator@U?$pair@$$CBV?$basic_string@DU?$char_traits@D@std@@V?$allocator@D@2@@std@@V?$shared_ptr@UNode@NetvarTree@@@2@@std@@@2@@std@@HPBD1@Z$0 1003b380 f   Aimbot.obj
 0001:0003a380       __unwindfunclet$??$GetOffsetRecursive@PBDPBD@NetvarTree@@AAEHAAV?$unordered_map@V?$basic_string@DU?$char_traits@D@std@@V?$allocator@D@2@@std@@V?$shared_ptr@UNode@NetvarTree@@@2@U?$hash@V?$basic_string@DU?$char_traits@D@std@@V?$allocator@D@2@@std@@@2@U?$equal_to@V?$basic_string@DU?$char_traits@D@std@@V?$allocator@D@2@@std@@@2@V?$allocator@U?$pair@$$CBV?$basic_string@DU?$char_traits@D@std@@V?$allocator@D@2@@std@@V?$shared_ptr@UNode@NetvarTree@@@2@@std@@@2@@std@@HPBD11@Z$0 1003b380 f   Aimbot.obj
 0001:0003a388       __ehhandler$??$GetOffsetRecursive@PBDPBD@NetvarTree@@AAEHAAV?$unordered_map@V?$basic_string@DU?$char_traits@D@std@@V?$allocator@D@2@@std@@V?$shared_ptr@UNode@NetvarTree@@@2@U?$hash@V?$basic_string@DU?$char_traits@D@std@@V?$allocator@D@2@@std@@@2@U?$equal_to@V?$basic_string@DU?$char_traits@D@std@@V?$allocator@D@2@@std@@@2@V?$allocator@U?$pair@$$CBV?$basic_string@DU?$char_traits@D@std@@V?$allocator@D@2@@std@@V?$shared_ptr@UNode@NetvarTree@@@2@@std@@@2@@std@@HPBD11@Z 1003b388 f   Aimbot.obj
 0001:0003a388       __ehhandler$?IsNade@C_BaseEntity@@QAE_NXZ 1003b388 f   CEntity.obj
 0001:0003a388       __ehhandler$??$GetOffsetRecursive@PBD@NetvarTree@@AAEHAAV?$unordered_map@V?$basic_string@DU?$char_traits@D@std@@V?$allocator@D@2@@std@@V?$shared_ptr@UNode@NetvarTree@@@2@U?$hash@V?$basic_string@DU?$char_traits@D@std@@V?$allocator@D@2@@std@@@2@U?$equal_to@V?$basic_string@DU?$char_traits@D@std@@V?$allocator@D@2@@std@@@2@V?$allocator@U?$pair@$$CBV?$basic_string@DU?$char_traits@D@std@@V?$allocator@D@2@@std@@V?$shared_ptr@UNode@NetvarTree@@@2@@std@@@2@@std@@HPBD1@Z 1003b388 f   Aimbot.obj
 0001:0003a3a0       __unwindfunclet$?ArmorValue@C_BaseEntity@@QAEHXZ$0 1003b3a0 f   Autowall.obj
 0001:0003a3ac       __ehhandler$?ArmorValue@C_BaseEntity@@QAEHXZ 1003b3ac f   Autowall.obj
 0001:0003a3c0       __unwindfunclet$?HasHelmet@C_BaseEntity@@QAE_NXZ$0 1003b3c0 f   Autowall.obj
 0001:0003a3cc       __ehhandler$?HasHelmet@C_BaseEntity@@QAE_NXZ 1003b3cc f   Autowall.obj
 0001:0003a3e0       __unwindfunclet$?UTIL_ClipTraceToPlayers@@YAXABVVector@@0IPAVITraceFilter@@PAUC_Trace@@@Z$0 1003b3e0 f   Autowall.obj
 0001:0003a3ec       __ehhandler$?UTIL_ClipTraceToPlayers@@YAXABVVector@@0IPAVITraceFilter@@PAUC_Trace@@@Z 1003b3ec f   Autowall.obj
 0001:0003a400       __unwindfunclet$?TraceToExitalt@@YA_NAAVVector@@AAUC_Trace@@V1@2PAU2@@Z$0 1003b400 f   Autowall.obj
 0001:0003a40c       __ehhandler$?TraceToExitalt@@YA_NAAVVector@@AAUC_Trace@@V1@2PAU2@@Z 1003b40c f   Autowall.obj
 0001:0003a420       __unwindfunclet$?StoreRecord@LagComp@@QAEXPAVC_BaseEntity@@@Z$0 1003b420 f   LagComp.obj
 0001:0003a428       __unwindfunclet$?StoreRecord@LagComp@@QAEXPAVC_BaseEntity@@@Z$1 1003b428 f   LagComp.obj
 0001:0003a430       __ehhandler$?StoreRecord@LagComp@@QAEXPAVC_BaseEntity@@@Z 1003b430 f   LagComp.obj
 0001:0003a440       __unwindfunclet$?ClearRecords@LagComp@@QAEXH@Z$0 1003b440 f   LagComp.obj
 0001:0003a448       __unwindfunclet$?ClearRecords@LagComp@@QAEXH@Z$1 1003b448 f   LagComp.obj
 0001:0003a450       __ehhandler$?ClearRecords@LagComp@@QAEXH@Z 1003b450 f   LagComp.obj
 0001:0003a460       __unwindfunclet$?erase@?$deque@UPlayerRecords@@V?$allocator@UPlayerRecords@@@std@@@std@@QAE?AV?$_Deque_iterator@V?$_Deque_val@U?$_Deque_simple_types@UPlayerRecords@@@std@@@std@@@2@V?$_Deque_const_iterator@V?$_Deque_val@U?$_Deque_simple_types@UPlayerRecords@@@std@@@std@@@2@@Z$0 1003b460 f   LagComp.obj
 0001:0003a460       __unwindfunclet$?_Make_iter@?$deque@UPlayerRecords@@V?$allocator@UPlayerRecords@@@std@@@std@@QBE?AV?$_Deque_iterator@V?$_Deque_val@U?$_Deque_simple_types@UPlayerRecords@@@std@@@std@@@2@V?$_Deque_const_iterator@V?$_Deque_val@U?$_Deque_simple_types@UPlayerRecords@@@std@@@std@@@2@@Z$0 1003b460 f   LagComp.obj
 0001:0003a468       __ehhandler$?erase@?$deque@UPlayerRecords@@V?$allocator@UPlayerRecords@@@std@@@std@@QAE?AV?$_Deque_iterator@V?$_Deque_val@U?$_Deque_simple_types@UPlayerRecords@@@std@@@std@@@2@V?$_Deque_const_iterator@V?$_Deque_val@U?$_Deque_simple_types@UPlayerRecords@@@std@@@std@@@2@@Z 1003b468 f   LagComp.obj
 0001:0003a468       __ehhandler$?_Make_iter@?$deque@UPlayerRecords@@V?$allocator@UPlayerRecords@@@std@@@std@@QBE?AV?$_Deque_iterator@V?$_Deque_val@U?$_Deque_simple_types@UPlayerRecords@@@std@@@std@@@2@V?$_Deque_const_iterator@V?$_Deque_val@U?$_Deque_simple_types@UPlayerRecords@@@std@@@std@@@2@@Z 1003b468 f   LagComp.obj
 0001:0003a480       __unwindfunclet$??H?$_Deque_const_iterator@V?$_Deque_val@U?$_Deque_simple_types@UPlayerRecords@@@std@@@std@@@std@@QBE?AV01@H@Z$0 1003b480 f   LagComp.obj
 0001:0003a488       __ehhandler$??H?$_Deque_const_iterator@V?$_Deque_val@U?$_Deque_simple_types@UPlayerRecords@@@std@@@std@@@std@@QBE?AV01@H@Z 1003b488 f   LagComp.obj
 0001:0003a4a0       __unwindfunclet$?erase@?$deque@UPlayerRecords@@V?$allocator@UPlayerRecords@@@std@@@std@@QAE?AV?$_Deque_iterator@V?$_Deque_val@U?$_Deque_simple_types@UPlayerRecords@@@std@@@std@@@2@V?$_Deque_const_iterator@V?$_Deque_val@U?$_Deque_simple_types@UPlayerRecords@@@std@@@std@@@2@0@Z$0 1003b4a0 f   LagComp.obj
 0001:0003a4a8       __unwindfunclet$?erase@?$deque@UPlayerRecords@@V?$allocator@UPlayerRecords@@@std@@@std@@QAE?AV?$_Deque_iterator@V?$_Deque_val@U?$_Deque_simple_types@UPlayerRecords@@@std@@@std@@@2@V?$_Deque_const_iterator@V?$_Deque_val@U?$_Deque_simple_types@UPlayerRecords@@@std@@@std@@@2@0@Z$1 1003b4a8 f   LagComp.obj
 0001:0003a4b0       __unwindfunclet$?erase@?$deque@UPlayerRecords@@V?$allocator@UPlayerRecords@@@std@@@std@@QAE?AV?$_Deque_iterator@V?$_Deque_val@U?$_Deque_simple_types@UPlayerRecords@@@std@@@std@@@2@V?$_Deque_const_iterator@V?$_Deque_val@U?$_Deque_simple_types@UPlayerRecords@@@std@@@std@@@2@0@Z$3 1003b4b0 f   LagComp.obj
 0001:0003a4b8       __unwindfunclet$?erase@?$deque@UPlayerRecords@@V?$allocator@UPlayerRecords@@@std@@@std@@QAE?AV?$_Deque_iterator@V?$_Deque_val@U?$_Deque_simple_types@UPlayerRecords@@@std@@@std@@@2@V?$_Deque_const_iterator@V?$_Deque_val@U?$_Deque_simple_types@UPlayerRecords@@@std@@@std@@@2@0@Z$5 1003b4b8 f   LagComp.obj
 0001:0003a4c0       __unwindfunclet$?erase@?$deque@UPlayerRecords@@V?$allocator@UPlayerRecords@@@std@@@std@@QAE?AV?$_Deque_iterator@V?$_Deque_val@U?$_Deque_simple_types@UPlayerRecords@@@std@@@std@@@2@V?$_Deque_const_iterator@V?$_Deque_val@U?$_Deque_simple_types@UPlayerRecords@@@std@@@std@@@2@0@Z$6 1003b4c0 f   LagComp.obj
 0001:0003a4cb       __unwindfunclet$?erase@?$deque@UPlayerRecords@@V?$allocator@UPlayerRecords@@@std@@@std@@QAE?AV?$_Deque_iterator@V?$_Deque_val@U?$_Deque_simple_types@UPlayerRecords@@@std@@@std@@@2@V?$_Deque_const_iterator@V?$_Deque_val@U?$_Deque_simple_types@UPlayerRecords@@@std@@@std@@@2@0@Z$7 1003b4cb f   LagComp.obj
 0001:0003a4d6       __unwindfunclet$?erase@?$deque@UPlayerRecords@@V?$allocator@UPlayerRecords@@@std@@@std@@QAE?AV?$_Deque_iterator@V?$_Deque_val@U?$_Deque_simple_types@UPlayerRecords@@@std@@@std@@@2@V?$_Deque_const_iterator@V?$_Deque_val@U?$_Deque_simple_types@UPlayerRecords@@@std@@@std@@@2@0@Z$16 1003b4d6 f   LagComp.obj
 0001:0003a4e1       __ehhandler$?erase@?$deque@UPlayerRecords@@V?$allocator@UPlayerRecords@@@std@@@std@@QAE?AV?$_Deque_iterator@V?$_Deque_val@U?$_Deque_simple_types@UPlayerRecords@@@std@@@std@@@2@V?$_Deque_const_iterator@V?$_Deque_val@U?$_Deque_simple_types@UPlayerRecords@@@std@@@std@@@2@0@Z 1003b4e1 f   LagComp.obj
 0001:0003a4f0       __unwindfunclet$??$move@V?$_Deque_iterator@V?$_Deque_val@U?$_Deque_simple_types@UPlayerRecords@@@std@@@std@@@std@@V12@@std@@YA?AV?$_Deque_iterator@V?$_Deque_val@U?$_Deque_simple_types@UPlayerRecords@@@std@@@std@@@0@V10@00@Z$0 1003b4f0 f   LagComp.obj
 0001:0003a4f0       __unwindfunclet$??$move_backward@V?$_Deque_iterator@V?$_Deque_val@U?$_Deque_simple_types@UPlayerRecords@@@std@@@std@@@std@@V12@@std@@YA?AV?$_Deque_iterator@V?$_Deque_val@U?$_Deque_simple_types@UPlayerRecords@@@std@@@std@@@0@V10@00@Z$0 1003b4f0 f   LagComp.obj
 0001:0003a4f8       __unwindfunclet$??$move_backward@V?$_Deque_iterator@V?$_Deque_val@U?$_Deque_simple_types@UPlayerRecords@@@std@@@std@@@std@@V12@@std@@YA?AV?$_Deque_iterator@V?$_Deque_val@U?$_Deque_simple_types@UPlayerRecords@@@std@@@std@@@0@V10@00@Z$1 1003b4f8 f   LagComp.obj
 0001:0003a4f8       __unwindfunclet$??$move@V?$_Deque_iterator@V?$_Deque_val@U?$_Deque_simple_types@UPlayerRecords@@@std@@@std@@@std@@V12@@std@@YA?AV?$_Deque_iterator@V?$_Deque_val@U?$_Deque_simple_types@UPlayerRecords@@@std@@@std@@@0@V10@00@Z$1 1003b4f8 f   LagComp.obj
 0001:0003a500       __unwindfunclet$??$move_backward@V?$_Deque_iterator@V?$_Deque_val@U?$_Deque_simple_types@UPlayerRecords@@@std@@@std@@@std@@V12@@std@@YA?AV?$_Deque_iterator@V?$_Deque_val@U?$_Deque_simple_types@UPlayerRecords@@@std@@@std@@@0@V10@00@Z$2 1003b500 f   LagComp.obj
 0001:0003a500       __unwindfunclet$??$move@V?$_Deque_iterator@V?$_Deque_val@U?$_Deque_simple_types@UPlayerRecords@@@std@@@std@@@std@@V12@@std@@YA?AV?$_Deque_iterator@V?$_Deque_val@U?$_Deque_simple_types@UPlayerRecords@@@std@@@std@@@0@V10@00@Z$2 1003b500 f   LagComp.obj
 0001:0003a508       __ehhandler$??$move_backward@V?$_Deque_iterator@V?$_Deque_val@U?$_Deque_simple_types@UPlayerRecords@@@std@@@std@@@std@@V12@@std@@YA?AV?$_Deque_iterator@V?$_Deque_val@U?$_Deque_simple_types@UPlayerRecords@@@std@@@std@@@0@V10@00@Z 1003b508 f   LagComp.obj
 0001:0003a508       __ehhandler$??$move@V?$_Deque_iterator@V?$_Deque_val@U?$_Deque_simple_types@UPlayerRecords@@@std@@@std@@@std@@V12@@std@@YA?AV?$_Deque_iterator@V?$_Deque_val@U?$_Deque_simple_types@UPlayerRecords@@@std@@@std@@@0@V10@00@Z 1003b508 f   LagComp.obj
 0001:0003a520       __unwindfunclet$?GetMoveType@C_BaseEntity@@QAE?AW4MoveType_t@@XZ$0 1003b520 f   AntiAim.obj
 0001:0003a52c       __ehhandler$?GetMoveType@C_BaseEntity@@QAE?AW4MoveType_t@@XZ 1003b52c f   AntiAim.obj
 0001:0003a540       __unwindfunclet$?DrawBackDrop@Drop@@YAXXZ$0 1003b540 f   dots.obj
 0001:0003a54f       __unwindfunclet$?DrawBackDrop@Drop@@YAXXZ$1 1003b54f f   dots.obj
 0001:0003a55e       __ehhandler$?DrawBackDrop@Drop@@YAXXZ 1003b55e f   dots.obj
 0001:0003a570       __unwindfunclet$?InitKeyValues@@YAXPAVKeyValues@@V?$basic_string@DU?$char_traits@D@std@@V?$allocator@D@2@@std@@@Z$0 1003b570 f   chams.obj
 0001:0003a578       __unwindfunclet$?InitKeyValues@@YAXPAVKeyValues@@V?$basic_string@DU?$char_traits@D@std@@V?$allocator@D@2@@std@@@Z$1 1003b578 f   chams.obj
 0001:0003a584       __ehhandler$?InitKeyValues@@YAXPAVKeyValues@@V?$basic_string@DU?$char_traits@D@std@@V?$allocator@D@2@@std@@@Z 1003b584 f   chams.obj
 0001:0003a590       __unwindfunclet$?LoadFromBuffer@@YAXPAVKeyValues@@V?$basic_string@DU?$char_traits@D@std@@V?$allocator@D@2@@std@@1@Z$0 1003b590 f   chams.obj
 0001:0003a598       __unwindfunclet$?LoadFromBuffer@@YAXPAVKeyValues@@V?$basic_string@DU?$char_traits@D@std@@V?$allocator@D@2@@std@@1@Z$1 1003b598 f   chams.obj
 0001:0003a5a0       __unwindfunclet$?LoadFromBuffer@@YAXPAVKeyValues@@V?$basic_string@DU?$char_traits@D@std@@V?$allocator@D@2@@std@@1@Z$2 1003b5a0 f   chams.obj
 0001:0003a5ac       __ehhandler$?LoadFromBuffer@@YAXPAVKeyValues@@V?$basic_string@DU?$char_traits@D@std@@V?$allocator@D@2@@std@@1@Z 1003b5ac f   chams.obj
 0001:0003a5c0       __unwindfunclet$?create_material@chams@@QAEPAVIMaterial@@_N00@Z$0 1003b5c0 f   chams.obj
 0001:0003a5cb       __unwindfunclet$?create_material@chams@@QAEPAVIMaterial@@_N00@Z$1 1003b5cb f   chams.obj
 0001:0003a5d6       __unwindfunclet$?create_material@chams@@QAEPAVIMaterial@@_N00@Z$2 1003b5d6 f   chams.obj
 0001:0003a5e1       __unwindfunclet$?create_material@chams@@QAEPAVIMaterial@@_N00@Z$3 1003b5e1 f   chams.obj
 0001:0003a5ec       __unwindfunclet$?create_material@chams@@QAEPAVIMaterial@@_N00@Z$4 1003b5ec f   chams.obj
 0001:0003a5f7       __unwindfunclet$?create_material@chams@@QAEPAVIMaterial@@_N00@Z$5 1003b5f7 f   chams.obj
 0001:0003a602       __unwindfunclet$?create_material@chams@@QAEPAVIMaterial@@_N00@Z$6 1003b602 f   chams.obj
 0001:0003a60d       __unwindfunclet$?create_material@chams@@QAEPAVIMaterial@@_N00@Z$7 1003b60d f   chams.obj
 0001:0003a618       __unwindfunclet$?create_material@chams@@QAEPAVIMaterial@@_N00@Z$8 1003b618 f   chams.obj
 0001:0003a623       __unwindfunclet$?create_material@chams@@QAEPAVIMaterial@@_N00@Z$9 1003b623 f   chams.obj
 0001:0003a62e       __unwindfunclet$?create_material@chams@@QAEPAVIMaterial@@_N00@Z$10 1003b62e f   chams.obj
 0001:0003a639       __unwindfunclet$?create_material@chams@@QAEPAVIMaterial@@_N00@Z$12 1003b639 f   chams.obj
 0001:0003a641       __ehhandler$?create_material@chams@@QAEPAVIMaterial@@_N00@Z 1003b641 f   chams.obj
 0001:0003a650       __unwindfunclet$?m_hViewModel@C_BaseEntity@@QAEHXZ$0 1003b650 f   Hooks.obj
 0001:0003a65c       __ehhandler$?m_hViewModel@C_BaseEntity@@QAEHXZ 1003b65c f   Hooks.obj
 0001:0003a670       __unwindfunclet$?defusing@C_BaseEntity@@QAE_NXZ$0 1003b670 f   Hooks.obj
 0001:0003a67c       __ehhandler$?defusing@C_BaseEntity@@QAE_NXZ 1003b67c f   Hooks.obj
 0001:0003a690       __unwindfunclet$?has_defuser@C_BaseEntity@@QAE_NXZ$0 1003b690 f   Hooks.obj
 0001:0003a69c       __ehhandler$?has_defuser@C_BaseEntity@@QAE_NXZ 1003b69c f   Hooks.obj
 0001:0003a6b0       __unwindfunclet$?IsScoped@C_BaseEntity@@QAE_NXZ$0 1003b6b0 f   Hooks.obj
 0001:0003a6bc       __ehhandler$?IsScoped@C_BaseEntity@@QAE_NXZ 1003b6bc f   Hooks.obj
 0001:0003a6d0       __unwindfunclet$?c4_defuse_count_down@ccsbomb@@QAEMXZ$0 1003b6d0 f   Hooks.obj
 0001:0003a6dc       __ehhandler$?c4_defuse_count_down@ccsbomb@@QAEMXZ 1003b6dc f   Hooks.obj
 0001:0003a6f0       __unwindfunclet$?c4_blow_time@ccsbomb@@QAEMXZ$0 1003b6f0 f   Hooks.obj
 0001:0003a6fc       __ehhandler$?c4_blow_time@ccsbomb@@QAEMXZ 1003b6fc f   Hooks.obj
 0001:0003a710       __unwindfunclet$?bomb_defused@ccsbomb@@QAEMXZ$0 1003b710 f   Hooks.obj
 0001:0003a71c       __ehhandler$?bomb_defused@ccsbomb@@QAEMXZ 1003b71c f   Hooks.obj
 0001:0003a730       __unwindfunclet$?RoundedFilledRect@ISurface@@QAEXHHHHMUColor@@@Z$0 1003b730 f   Hooks.obj
 0001:0003a73c       __ehhandler$?RoundedFilledRect@ISurface@@QAEXHHHHMUColor@@@Z 1003b73c f   Hooks.obj
 0001:0003a750       __unwindfunclet$??0VMTHook@@QAE@PAX@Z$0 1003b750 f   Hooks.obj
 0001:0003a758       __ehhandler$??0VMTHook@@QAE@PAX@Z 1003b758 f   Hooks.obj
 0001:0003a770       __ehhandler$?RestoreTable@ShadowVTManager@@QAEXXZ 1003b770 f   Hooks.obj
 0001:0003a780       __unwindfunclet$?DoAutostrafe@Misc@@ABEXXZ$0 1003b780 f   Hooks.obj
 0001:0003a78c       __ehhandler$?DoAutostrafe@Misc@@ABEXXZ 1003b78c f   Hooks.obj
 0001:0003a7a0       __unwindfunclet$?clean_name@@YA?AV?$basic_string@DU?$char_traits@D@std@@V?$allocator@D@2@@std@@V12@@Z$0 1003b7a0 f   ESP.obj
 0001:0003a7a0       __unwindfunclet$?clean_weapon@@YA?AV?$basic_string@DU?$char_traits@D@std@@V?$allocator@D@2@@std@@V12@@Z$0 1003b7a0 f   Hooks.obj
 0001:0003a7a8       __unwindfunclet$?clean_weapon@@YA?AV?$basic_string@DU?$char_traits@D@std@@V?$allocator@D@2@@std@@V12@@Z$1 1003b7a8 f   Hooks.obj
 0001:0003a7a8       __unwindfunclet$?clean_name@@YA?AV?$basic_string@DU?$char_traits@D@std@@V?$allocator@D@2@@std@@V12@@Z$1 1003b7a8 f   ESP.obj
 0001:0003a7b0       __ehhandler$?clean_name@@YA?AV?$basic_string@DU?$char_traits@D@std@@V?$allocator@D@2@@std@@V12@@Z 1003b7b0 f   ESP.obj
 0001:0003a7b0       __ehhandler$?clean_weapon@@YA?AV?$basic_string@DU?$char_traits@D@std@@V?$allocator@D@2@@std@@V12@@Z 1003b7b0 f   Hooks.obj
 0001:0003a7c0       __unwindfunclet$?purchase@@YAXPAVI_Game_Event@@@Z$0 1003b7c0 f   Hooks.obj
 0001:0003a7cb       __unwindfunclet$?purchase@@YAXPAVI_Game_Event@@@Z$1 1003b7cb f   Hooks.obj
 0001:0003a7d6       __unwindfunclet$?purchase@@YAXPAVI_Game_Event@@@Z$3 1003b7d6 f   Hooks.obj
 0001:0003a7e1       __unwindfunclet$?purchase@@YAXPAVI_Game_Event@@@Z$4 1003b7e1 f   Hooks.obj
 0001:0003a7e9       __unwindfunclet$?purchase@@YAXPAVI_Game_Event@@@Z$5 1003b7e9 f   Hooks.obj
 0001:0003a7f4       __unwindfunclet$?purchase@@YAXPAVI_Game_Event@@@Z$6 1003b7f4 f   Hooks.obj
 0001:0003a7ff       __unwindfunclet$?purchase@@YAXPAVI_Game_Event@@@Z$7 1003b7ff f   Hooks.obj
 0001:0003a807       __unwindfunclet$?purchase@@YAXPAVI_Game_Event@@@Z$9 1003b807 f   Hooks.obj
 0001:0003a812       __ehhandler$?purchase@@YAXPAVI_Game_Event@@@Z 1003b812 f   Hooks.obj
 0001:0003a820       __unwindfunclet$?health@@YAXPAVIGameEvent@@@Z$0 1003b820 f   Hooks.obj
 0001:0003a82b       __unwindfunclet$?health@@YAXPAVIGameEvent@@@Z$1 1003b82b f   Hooks.obj
